(dp1
S'output'
p2
S"<type 'exceptions.TypeError'> string indices must be integers"
p3
sS'layer'
p4
S'C:\\Users\\nilton\\Desktop\\scripts\\curso_de_python\\web2py\\applications\\xcpadmin\\views\\listvm/index.html'
p5
sS'code'
p6
S'response.write(\'<!DOCTYPE html>\\n<!-- paulirish.com/2008/conditional-stylesheets-vs-css-hacks-answer-neither/ -->\\n<!--[if lt IE 7]><html class="ie ie6 ie-lte9 ie-lte8 ie-lte7 no-js" lang="\', escape=False)\nresponse.write(T.accepted_language or \'en\')\nresponse.write(\'"> <![endif]-->\\n<!--[if IE 7]><html class="ie ie7 ie-lte9 ie-lte8 ie-lte7 no-js" lang="\', escape=False)\nresponse.write(T.accepted_language or \'en\')\nresponse.write(\'"> <![endif]-->\\n<!--[if IE 8]><html class="ie ie8 ie-lte9 ie-lte8 no-js" lang="\', escape=False)\nresponse.write(T.accepted_language or \'en\')\nresponse.write(\'"> <![endif]-->\\n<!--[if IE 9]><html class="ie9 ie-lte9 no-js" lang="\', escape=False)\nresponse.write(T.accepted_language or \'en\')\nresponse.write(\'"> <![endif]-->\\n<!--[if (gt IE 9)|!(IE)]><!--> <html class="no-js" lang="\', escape=False)\nresponse.write(T.accepted_language or \'en\')\nresponse.write(\'"> <!--<![endif]-->\\n<head>\\n  <meta charset="utf-8" />\\n  <!-- www.phpied.com/conditional-comments-block-downloads/ -->\\n  <!-- Always force latest IE rendering engine\\n\\t   (even in intranet) & Chrome Frame\\n\\t   Remove this if you use the .htaccess -->\\n  <!--[if IE]>\\n    <meta http-equiv="X-UA-Compatible" content="IE=edge\', escape=False)\nresponse.write(not request.is_local and \',chrome=1\' or \'\')\nresponse.write(\'">\\n  <![endif]-->\\n  \\n  <title>\', escape=False)\nresponse.write(response.title or request.application)\nresponse.write(\'</title>\\n  \\n  <!-- http://dev.w3.org/html5/markup/meta.name.html -->\\n  <meta name="application-name" content="\', escape=False)\nresponse.write(request.application)\nresponse.write(\'" />\\n  \\n  <!-- Speaking of Google, don\\\'t forget to set your site up:\\n\\t   http://google.com/webmasters -->\\n  <meta name="google-site-verification" content="" />\\n\\n  <!--  Mobile Viewport Fix\\n\\t  j.mp/mobileviewport & davidbcalhoun.com/2010/viewport-metatag\\n\\t  device-width: Occupy full width of the screen in its current orientation\\n\\t  initial-scale = 1.0 retains dimensions instead of zooming out if page height > device height\\n\\t  user-scalable = yes allows the user to zoom in -->\\n  <meta name="viewport" content="width=device-width, initial-scale=1.0, user-scalable=yes">\\n  \\n  <!-- Place favicon.ico and apple-touch-icon.png in the root of your domain and delete these references -->\\n  <link rel="shortcut icon" href="\', escape=False)\nresponse.write(URL(\'static\',\'favicon.ico\'))\nresponse.write(\'" type="image/x-icon">\\n  <link rel="apple-touch-icon" href="\', escape=False)\nresponse.write(URL(\'static\',\'favicon.png\'))\nresponse.write(\'">\\n\\n  <!-- All JavaScript at the bottom, except for Modernizr which enables \\n\\t   HTML5 elements & feature detects -->\\n  <script src="\', escape=False)\nresponse.write(URL(\'static\',\'js/modernizr.custom.js\'))\nresponse.write(\'"></script>  \\n\\n  <!-- include stylesheets -->\\n  \', escape=False)\nresponse.files.append(URL(\'static\',\'css/skeleton.css\'))\nresponse.files.append(URL(\'static\',\'css/web2py.css\'))\nresponse.files.append(URL(\'static\',\'css/superfish.css\'))\nresponse.files.append(URL(\'static\',\'js/superfish.js\'))\nresponse.write(\'\\n\\n  \', escape=False)\nresponse.write(\'<script type="text/javascript"><!--\\n    // These variables are used by the web2py_ajax_init function in web2py_ajax.js (which is loaded below).\\n    var w2p_ajax_confirm_message = "\', escape=False)\nresponse.write(T(\'Are you sure you want to delete this object?\'))\nresponse.write(\'";\\n    var w2p_ajax_date_format = "\', escape=False)\nresponse.write(T(\'%Y-%m-%d\'))\nresponse.write(\'";\\n    var w2p_ajax_datetime_format = "\', escape=False)\nresponse.write(T(\'%Y-%m-%d %H:%M:%S\'))\nresponse.write(\'";\\n    //--></script>\\n\', escape=False)\nresponse.files.insert(0,URL(\'static\',\'js/jquery.js\'))\nresponse.files.insert(1,URL(\'static\',\'css/calendar.css\'))\nresponse.files.insert(2,URL(\'static\',\'js/calendar.js\'))\nresponse.files.insert(3,URL(\'static\',\'js/web2py.js\'))\nresponse.include_meta()\nresponse.include_files()\nresponse.write(\'\\n\', escape=False)\nresponse.write(\'\\n\\n  <script type="text/javascript">\\n    jQuery(function(){ jQuery(\\\'ul.sf-menu\\\').supersubs({minWidth:12,maxWidth:30,extraWidth:3}).superfish(); });\\n  </script>\\n\\n  \', escape=False)\n# using sidebars need to know what sidebar you want to use\nleft_sidebar_enabled = globals().get(\'left_sidebar_enabled\',False)\nright_sidebar_enabled = globals().get(\'right_sidebar_enabled\',False)\nmiddle_columns = {0:\'sixteen\',1:\'twelve\',2:\'eight\'}[\n(left_sidebar_enabled and 1 or 0)+(right_sidebar_enabled and 1 or 0)]\nresponse.write(\'\\n\\n  <!-- uncomment here to load jquery-ui\\n  <link rel="stylesheet" href="http://ajax.googleapis.com/ajax/libs/jqueryui/1.8.16/themes/base/jquery-ui.css" type="text/css" media="all" />\\n  <script src="http://ajax.googleapis.com/ajax/libs/jqueryui/1.8.16/jquery-ui.min.js" type="text/javascript"></script>\\n  uncomment to load jquery-ui //-->\\n</head>\\n<body>\\n  <div class="wrapper"><!-- for sticky footer -->\\n  \\n    <div class="topbar">\\n      <div class="container">    \\n        <div class="sixteen columns">\\n          <div id="navbar">\', escape=False)\nresponse.write(\'auth\' in globals() and auth.navbar(separators=(\' \',\' | \',\'\')))\nresponse.write(\'</div>\\n          \', escape=False)\nis_mobile=request.user_agent().is_mobile\nresponse.write(\'\\n          <div id="menu">\', escape=False)\nresponse.write(MENU(response.menu, _class=\'mobile-menu\' if is_mobile else \'sf-menu\',mobile=is_mobile))\nresponse.write(\'\\n          </div>\\n        </div>\\n      </div>\\n    </div><!-- topbar -->\\n    \\n    <div class="flash">\', escape=False)\nresponse.write(response.flash or \'\')\nresponse.write(\'</div>\\n    \\n    <div class="header">\\n      <div class="container">         \\n        <div class="sixteen columns">\\n          <h1 class="remove-bottom" style="margin-top: .5em;">\\n          \', escape=False)\nresponse.write(response.title or request.application)\nresponse.write(\'\\n          </h1>\\n          <h5>\', escape=False)\nresponse.write(response.subtitle or \'\')\nresponse.write(\'</h5>\\n        </div>\\n        <div class="sixteen columns">\\n          <div class="statusbar clearfix">\\n            \', escape=False)\nresponse.write(\'\\n            <div class="breadcrumbs">\', escape=False)\nresponse.write(request.function.replace(\'_\', \' \').title())\nresponse.write(\'</div>\\n            \', escape=False)\nresponse.write(\'\\n            <!-- AddToAny BEGIN -->\\n            <div style="float:right; padding-top: .25em;" class="a2a_kit a2a_default_style">\\n            <a class="a2a_dd" href="http://www.addtoany.com/share_save">Share</a></div>\\n            <script type="text/javascript" src="http://static.addtoany.com/menu/page.js"></script>\\n            <!-- AddToAny END -->\\n          </div>\\n        </div>\\n      </div>\\n    </div>\\n\\n    <div class="main">\\n      <div class="container">                 \\n        \', escape=False)\nif left_sidebar_enabled:\n    response.write(\'\\n        <div class="four columns left-sidebar">\\n          \', escape=False)\n    response.write(\'\\n          <h3>Left Sidebar</h3>\\n          <p></p>\\n          \', escape=False)\n    response.write(\'\\n        </div>\\n        \', escape=False)\n    pass\nresponse.write(\'\\n        \\n        <div class="\', escape=False)\nresponse.write(middle_columns)\nresponse.write(\' columns center">\\n          \', escape=False)\nresponse.write(\'\\n          \', escape=False)\nresponse.write(\'\\r\\n\\r\\n\\r\\n<h3>POOL SERVER</h3>\\r\\n\', escape=False)\nfor row in table:\n    response.write(\'\\r\\n\', escape=False)\n    if (table[row]["is_control_domain"]):\n        response.write(\'\\r\\n\', escape=False)\n        response.write(TABLE(TR(table[row]["name_label"])))\n        response.write(\'\\r\\n\', escape=False)\n        pass\n    response.write(\'\\r\\n\', escape=False)\n    pass\nresponse.write(\'\\r\\n\\r\\n\\r\\n\\r\\n<h3>VMs</h3>\\r\\n\\r\\n\', escape=False)\nfor row in table:\n    response.write(\'\\r\\n\\r\\n\', escape=False)\n    if not(table[row]["is_a_template"]) and not(table[row]["is_control_domain"]):\n        response.write(\'\\r\\n\\r\\n\', escape=False)\n        response.write(TABLE(TR(\n        table[row]["name_label"], \'RAM:\', table[row]["memory_static_max"] + \'MB\', \'UUID:\',\n        table[row]["uuid"], \'STATUS:\', table[row]["power_state"]\n        )))\n        response.write(\'\\r\\n\\r\\n\', escape=False)\n        pass\n    response.write(\'\\r\\n\', escape=False)\n    pass\nresponse.write(\'\\r\\n\\r\\n\\r\\n<h3>Templates</h3>\\r\\n\\r\\n\', escape=False)\nfor row in table:\n    response.write(\'\\r\\n\\r\\n\', escape=False)\n    if (table[row]["is_a_template"]) and not(table[row]["is_control_domain"]):\n        response.write(\'\\r\\n\', escape=False)\n        response.write(TABLE(TR(table[row]["name_label"])))\n        response.write(\'\\r\\n\', escape=False)\n        pass\n    response.write(\'\\r\\n\\r\\n\', escape=False)\n    pass\nresponse.write(\'\\r\\n\', escape=False)\nresponse.write(\'\\n          \', escape=False)\nresponse.write(\'\\n        </div>\\n        \\n        \', escape=False)\nif right_sidebar_enabled:\n    response.write(\'\\n        <div class="four columns">\\n          \', escape=False)\n    response.write(\'\\n          <h3>Right Sidebar</h3>\\n          <p></p>\\n          \', escape=False)\n    response.write(\'\\n        </div>    \\n        \', escape=False)\n    pass\nresponse.write(\'\\n        \\n      </div><!-- container -->\\n    </div><!-- main -->\\n    \\n    <div class="push"></div>\\n  </div><!-- wrapper -->\\n\\n  <div class="footer">\\n    <div class="container">    \\n      <div class="sixteen columns">\\n        \', escape=False)\nresponse.write(\' <!-- this is default footer -->\\n        <div class="footer-content clearfix">\\n          <div class="copyright">\', escape=False)\nresponse.write(T(\'Copyright\'))\nresponse.write(\' &#169; 2011</div>\\n          <div style="float: right;">\\n            <a href="http://www.web2py.com/">\\n            <img style="padding-bottom: 0;" src="\', escape=False)\nresponse.write(URL(\'static\',\'images/poweredby.png\'))\nresponse.write(\'"/>\\n            </a>\\n          </div>\\n        </div>\\n        \', escape=False)\nresponse.write(\'\\t\\n      </div>\\n    </div><!-- container -->\\n  </div><!-- footer -->\\n  \\n  <!--[if lt IE 7 ]>\\n\\t<script src="\', escape=False)\nresponse.write(URL(\'static\',\'js/dd_belatedpng.js\'))\nresponse.write(\'"></script>\\n\\t<script> DD_belatedPNG.fix(\\\'img, .png_bg\\\'); //fix any <img> or .png_bg background-images </script>\\n\\t<![endif]-->\\n  \', escape=False)\nif response.google_analytics_id:\n    response.write(\'<script type="text/javascript"> var _gaq = _gaq || []; _gaq.push([\\\'_setAccount\\\', \\\'\', escape=False)\n    response.write(response.google_analytics_id)\n    response.write("\']); _gaq.push([\'_trackPageview\']); (function() { var ga = document.createElement(\'script\'); ga.type = \'text/javascript\'; ga.async = true; ga.src = (\'https:\' == document.location.protocol ? \'https://ssl\' : \'http://www\') + \'.google-analytics.com/ga.js\'; var s = document.getElementsByTagName(\'script\')[0]; s.parentNode.insertBefore(ga, s); })(); </script> ", escape=False)\n    pass\nresponse.write(\'\\n</body>\\n</html>\\n\', escape=False)'
p7
sS'snapshot'
p8
(dp9
S'exception'
p10
(dp11
S'__hash__'
p12
S"<method-wrapper '__hash__' of exceptions.TypeError object at 0x061EB288>"
p13
sS'__setattr__'
p14
S"<method-wrapper '__setattr__' of exceptions.TypeError object at 0x061EB288>"
p15
sS'__reduce_ex__'
p16
S'<built-in method __reduce_ex__ of exceptions.TypeError object at 0x061EB288>'
p17
sS'__getslice__'
p18
S"<method-wrapper '__getslice__' of exceptions.TypeError object at 0x061EB288>"
p19
sS'__getitem__'
p20
S"<method-wrapper '__getitem__' of exceptions.TypeError object at 0x061EB288>"
p21
sS'__setstate__'
p22
S'<built-in method __setstate__ of exceptions.TypeError object at 0x061EB288>'
p23
sS'__reduce__'
p24
S'<built-in method __reduce__ of exceptions.TypeError object at 0x061EB288>'
p25
sS'__str__'
p26
S"<method-wrapper '__str__' of exceptions.TypeError object at 0x061EB288>"
p27
sS'args'
p28
S"('string indices must be integers',)"
p29
sS'__getattribute__'
p30
S"<method-wrapper '__getattribute__' of exceptions.TypeError object at 0x061EB288>"
p31
sS'__class__'
p32
S"<type 'exceptions.TypeError'>"
p33
sS'__delattr__'
p34
S"<method-wrapper '__delattr__' of exceptions.TypeError object at 0x061EB288>"
p35
sS'__repr__'
p36
S"<method-wrapper '__repr__' of exceptions.TypeError object at 0x061EB288>"
p37
sS'__dict__'
p38
S'{}'
p39
sS'__doc__'
p40
S"'Inappropriate argument type.'"
p41
sS'__init__'
p42
S"<method-wrapper '__init__' of exceptions.TypeError object at 0x061EB288>"
p43
sS'__new__'
p44
S'<built-in method __new__ of type object at 0x1E1CCD78>'
p45
ssS'evalue'
p46
S'string indices must be integers'
p47
sS'request'
p48
ccopy_reg
_reconstructor
p49
(cgluon.html
BEAUTIFY
p50
c__builtin__
object
p51
NtRp52
(dp53
S'attributes'
p54
(dp55
sS'components'
p56
(lp57
g49
(cgluon.html
TABLE
p58
g51
NtRp59
(dp60
g54
(dp61
S'level'
p62
I5
ssS'parent'
p63
Nsg56
(lp64
g49
(cgluon.html
TR
p65
g51
NtRp66
(dp67
g54
(dp68
sg63
g59
sg56
(lp69
g49
(cgluon.html
TD
p70
g51
NtRp71
(dp72
g54
(dp73
S'_style'
p74
S'font-weight:bold;vertical-align:top'
p75
ssg63
g66
sg56
(lp76
S'ajax'
p77
asbag49
(g70
g51
NtRp78
(dp79
g54
(dp80
S'_valign'
p81
S'top'
p82
ssg63
g66
sg56
(lp83
S':'
asbag49
(g70
g51
NtRp84
(dp85
g54
(dp86
sg63
g66
sg56
(lp87
g49
(g50
g51
NtRp88
(dp89
g54
(dp90
g62
I5
ssg63
g84
sg56
(lp91
S'False'
p92
asbasbasbag49
(g65
g51
NtRp93
(dp94
g54
(dp95
sg63
g59
sg56
(lp96
g49
(g70
g51
NtRp97
(dp98
g54
(dp99
g74
g75
ssg63
g93
sg56
(lp100
S'application'
p101
asbag49
(g70
g51
NtRp102
(dp103
g54
(dp104
g81
g82
ssg63
g93
sg56
(lp105
S':'
asbag49
(g70
g51
NtRp106
(dp107
g54
(dp108
sg63
g93
sg56
(lp109
g49
(g50
g51
NtRp110
(dp111
g54
(dp112
g62
I5
ssg63
g106
sg56
(lp113
S'xcpadmin'
p114
asbasbasbag49
(g65
g51
NtRp115
(dp116
g54
(dp117
sg63
g59
sg56
(lp118
g49
(g70
g51
NtRp119
(dp120
g54
(dp121
g74
g75
ssg63
g115
sg56
(lp122
g28
asbag49
(g70
g51
NtRp123
(dp124
g54
(dp125
g81
g82
ssg63
g115
sg56
(lp126
S':'
asbag49
(g70
g51
NtRp127
(dp128
g54
(dp129
sg63
g115
sg56
(lp130
g49
(g50
g51
NtRp131
(dp132
g54
(dp133
g62
I5
ssg63
g127
sg56
(lp134
g49
(g58
g51
NtRp135
(dp136
g54
(dp137
g62
I4
ssg63
Nsg56
(lp138
sbasbasbasbag49
(g65
g51
NtRp139
(dp140
g54
(dp141
sg63
g59
sg56
(lp142
g49
(g70
g51
NtRp143
(dp144
g54
(dp145
g74
g75
ssg63
g139
sg56
(lp146
S'body'
p147
asbag49
(g70
g51
NtRp148
(dp149
g54
(dp150
g81
g82
ssg63
g139
sg56
(lp151
S':'
asbag49
(g70
g51
NtRp152
(dp153
g54
(dp154
sg63
g139
sg56
(lp155
g49
(g50
g51
NtRp156
(dp157
g54
(dp158
g62
I5
ssg63
g152
sg56
(lp159
S'<cStringIO.StringO object at 0x05E70D00>'
p160
asbasbasbag49
(g65
g51
NtRp161
(dp162
g54
(dp163
sg63
g59
sg56
(lp164
g49
(g70
g51
NtRp165
(dp166
g54
(dp167
g74
g75
ssg63
g161
sg56
(lp168
S'client'
p169
asbag49
(g70
g51
NtRp170
(dp171
g54
(dp172
g81
g82
ssg63
g161
sg56
(lp173
S':'
asbag49
(g70
g51
NtRp174
(dp175
g54
(dp176
sg63
g161
sg56
(lp177
g49
(g50
g51
NtRp178
(dp179
g54
(dp180
g62
I5
ssg63
g174
sg56
(lp181
S'127.0.0.1'
p182
asbasbasbag49
(g65
g51
NtRp183
(dp184
g54
(dp185
sg63
g59
sg56
(lp186
g49
(g70
g51
NtRp187
(dp188
g54
(dp189
g74
g75
ssg63
g183
sg56
(lp190
S'controller'
p191
asbag49
(g70
g51
NtRp192
(dp193
g54
(dp194
g81
g82
ssg63
g183
sg56
(lp195
S':'
asbag49
(g70
g51
NtRp196
(dp197
g54
(dp198
sg63
g183
sg56
(lp199
g49
(g50
g51
NtRp200
(dp201
g54
(dp202
g62
I5
ssg63
g196
sg56
(lp203
S'listvm'
p204
asbasbasbag49
(g65
g51
NtRp205
(dp206
g54
(dp207
sg63
g59
sg56
(lp208
g49
(g70
g51
NtRp209
(dp210
g54
(dp211
g74
g75
ssg63
g205
sg56
(lp212
S'cookies'
p213
asbag49
(g70
g51
NtRp214
(dp215
g54
(dp216
g81
g82
ssg63
g205
sg56
(lp217
S':'
asbag49
(g70
g51
NtRp218
(dp219
g54
(dp220
sg63
g205
sg56
(lp221
g49
(g50
g51
NtRp222
(dp223
g54
(dp224
g62
I5
ssg63
g218
sg56
(lp225
g49
(g58
g51
NtRp226
(dp227
g54
(dp228
g62
I4
ssg63
Nsg56
(lp229
g49
(g65
g51
NtRp230
(dp231
g54
(dp232
sg63
g226
sg56
(lp233
g49
(g70
g51
NtRp234
(dp235
g54
(dp236
g74
g75
ssg63
g230
sg56
(lp237
S'session_id_admin'
p238
asbag49
(g70
g51
NtRp239
(dp240
g54
(dp241
g81
g82
ssg63
g230
sg56
(lp242
S':'
asbag49
(g70
g51
NtRp243
(dp244
g54
(dp245
sg63
g230
sg56
(lp246
g49
(g50
g51
NtRp247
(dp248
g54
(dp249
g62
I4
ssg63
g243
sg56
(lp250
g49
(g58
g51
NtRp251
(dp252
g54
(dp253
g62
I3
ssg63
Nsg56
(lp254
g49
(g65
g51
NtRp255
(dp256
g54
(dp257
sg63
g251
sg56
(lp258
g49
(g70
g51
NtRp259
(dp260
g54
(dp261
g74
g75
ssg63
g255
sg56
(lp262
S'comment'
p263
asbag49
(g70
g51
NtRp264
(dp265
g54
(dp266
g81
g82
ssg63
g255
sg56
(lp267
S':'
asbag49
(g70
g51
NtRp268
(dp269
g54
(dp270
sg63
g255
sg56
(lp271
g49
(g50
g51
NtRp272
(dp273
g54
(dp274
g62
I3
ssg63
g268
sg56
(lp275
S''
asbasbasbag49
(g65
g51
NtRp276
(dp277
g54
(dp278
sg63
g251
sg56
(lp279
g49
(g70
g51
NtRp280
(dp281
g54
(dp282
g74
g75
ssg63
g276
sg56
(lp283
S'domain'
p284
asbag49
(g70
g51
NtRp285
(dp286
g54
(dp287
g81
g82
ssg63
g276
sg56
(lp288
S':'
asbag49
(g70
g51
NtRp289
(dp290
g54
(dp291
sg63
g276
sg56
(lp292
g49
(g50
g51
NtRp293
(dp294
g54
(dp295
g62
I3
ssg63
g289
sg56
(lp296
S''
asbasbasbag49
(g65
g51
NtRp297
(dp298
g54
(dp299
sg63
g251
sg56
(lp300
g49
(g70
g51
NtRp301
(dp302
g54
(dp303
g74
g75
ssg63
g297
sg56
(lp304
S'expires'
p305
asbag49
(g70
g51
NtRp306
(dp307
g54
(dp308
g81
g82
ssg63
g297
sg56
(lp309
S':'
asbag49
(g70
g51
NtRp310
(dp311
g54
(dp312
sg63
g297
sg56
(lp313
g49
(g50
g51
NtRp314
(dp315
g54
(dp316
g62
I3
ssg63
g310
sg56
(lp317
S''
asbasbasbag49
(g65
g51
NtRp318
(dp319
g54
(dp320
sg63
g251
sg56
(lp321
g49
(g70
g51
NtRp322
(dp323
g54
(dp324
g74
g75
ssg63
g318
sg56
(lp325
S'max-age'
p326
asbag49
(g70
g51
NtRp327
(dp328
g54
(dp329
g81
g82
ssg63
g318
sg56
(lp330
S':'
asbag49
(g70
g51
NtRp331
(dp332
g54
(dp333
sg63
g318
sg56
(lp334
g49
(g50
g51
NtRp335
(dp336
g54
(dp337
g62
I3
ssg63
g331
sg56
(lp338
S''
asbasbasbag49
(g65
g51
NtRp339
(dp340
g54
(dp341
sg63
g251
sg56
(lp342
g49
(g70
g51
NtRp343
(dp344
g54
(dp345
g74
g75
ssg63
g339
sg56
(lp346
S'path'
p347
asbag49
(g70
g51
NtRp348
(dp349
g54
(dp350
g81
g82
ssg63
g339
sg56
(lp351
S':'
asbag49
(g70
g51
NtRp352
(dp353
g54
(dp354
sg63
g339
sg56
(lp355
g49
(g50
g51
NtRp356
(dp357
g54
(dp358
g62
I3
ssg63
g352
sg56
(lp359
S''
asbasbasbag49
(g65
g51
NtRp360
(dp361
g54
(dp362
sg63
g251
sg56
(lp363
g49
(g70
g51
NtRp364
(dp365
g54
(dp366
g74
g75
ssg63
g360
sg56
(lp367
S'secure'
p368
asbag49
(g70
g51
NtRp369
(dp370
g54
(dp371
g81
g82
ssg63
g360
sg56
(lp372
S':'
asbag49
(g70
g51
NtRp373
(dp374
g54
(dp375
sg63
g360
sg56
(lp376
g49
(g50
g51
NtRp377
(dp378
g54
(dp379
g62
I3
ssg63
g373
sg56
(lp380
S''
asbasbasbag49
(g65
g51
NtRp381
(dp382
g54
(dp383
sg63
g251
sg56
(lp384
g49
(g70
g51
NtRp385
(dp386
g54
(dp387
g74
g75
ssg63
g381
sg56
(lp388
S'version'
p389
asbag49
(g70
g51
NtRp390
(dp391
g54
(dp392
g81
g82
ssg63
g381
sg56
(lp393
S':'
asbag49
(g70
g51
NtRp394
(dp395
g54
(dp396
sg63
g381
sg56
(lp397
g49
(g50
g51
NtRp398
(dp399
g54
(dp400
g62
I3
ssg63
g394
sg56
(lp401
S''
asbasbasbasbasbasbasbag49
(g65
g51
NtRp402
(dp403
g54
(dp404
sg63
g226
sg56
(lp405
g49
(g70
g51
NtRp406
(dp407
g54
(dp408
g74
g75
ssg63
g402
sg56
(lp409
S'session_id_welcome'
p410
asbag49
(g70
g51
NtRp411
(dp412
g54
(dp413
g81
g82
ssg63
g402
sg56
(lp414
S':'
asbag49
(g70
g51
NtRp415
(dp416
g54
(dp417
sg63
g402
sg56
(lp418
g49
(g50
g51
NtRp419
(dp420
g54
(dp421
g62
I4
ssg63
g415
sg56
(lp422
g49
(g58
g51
NtRp423
(dp424
g54
(dp425
g62
I3
ssg63
Nsg56
(lp426
g49
(g65
g51
NtRp427
(dp428
g54
(dp429
sg63
g423
sg56
(lp430
g49
(g70
g51
NtRp431
(dp432
g54
(dp433
g74
g75
ssg63
g427
sg56
(lp434
g263
asbag49
(g70
g51
NtRp435
(dp436
g54
(dp437
g81
g82
ssg63
g427
sg56
(lp438
S':'
asbag49
(g70
g51
NtRp439
(dp440
g54
(dp441
sg63
g427
sg56
(lp442
g49
(g50
g51
NtRp443
(dp444
g54
(dp445
g62
I3
ssg63
g439
sg56
(lp446
S''
asbasbasbag49
(g65
g51
NtRp447
(dp448
g54
(dp449
sg63
g423
sg56
(lp450
g49
(g70
g51
NtRp451
(dp452
g54
(dp453
g74
g75
ssg63
g447
sg56
(lp454
g284
asbag49
(g70
g51
NtRp455
(dp456
g54
(dp457
g81
g82
ssg63
g447
sg56
(lp458
S':'
asbag49
(g70
g51
NtRp459
(dp460
g54
(dp461
sg63
g447
sg56
(lp462
g49
(g50
g51
NtRp463
(dp464
g54
(dp465
g62
I3
ssg63
g459
sg56
(lp466
S''
asbasbasbag49
(g65
g51
NtRp467
(dp468
g54
(dp469
sg63
g423
sg56
(lp470
g49
(g70
g51
NtRp471
(dp472
g54
(dp473
g74
g75
ssg63
g467
sg56
(lp474
g305
asbag49
(g70
g51
NtRp475
(dp476
g54
(dp477
g81
g82
ssg63
g467
sg56
(lp478
S':'
asbag49
(g70
g51
NtRp479
(dp480
g54
(dp481
sg63
g467
sg56
(lp482
g49
(g50
g51
NtRp483
(dp484
g54
(dp485
g62
I3
ssg63
g479
sg56
(lp486
S''
asbasbasbag49
(g65
g51
NtRp487
(dp488
g54
(dp489
sg63
g423
sg56
(lp490
g49
(g70
g51
NtRp491
(dp492
g54
(dp493
g74
g75
ssg63
g487
sg56
(lp494
g326
asbag49
(g70
g51
NtRp495
(dp496
g54
(dp497
g81
g82
ssg63
g487
sg56
(lp498
S':'
asbag49
(g70
g51
NtRp499
(dp500
g54
(dp501
sg63
g487
sg56
(lp502
g49
(g50
g51
NtRp503
(dp504
g54
(dp505
g62
I3
ssg63
g499
sg56
(lp506
S''
asbasbasbag49
(g65
g51
NtRp507
(dp508
g54
(dp509
sg63
g423
sg56
(lp510
g49
(g70
g51
NtRp511
(dp512
g54
(dp513
g74
g75
ssg63
g507
sg56
(lp514
g347
asbag49
(g70
g51
NtRp515
(dp516
g54
(dp517
g81
g82
ssg63
g507
sg56
(lp518
S':'
asbag49
(g70
g51
NtRp519
(dp520
g54
(dp521
sg63
g507
sg56
(lp522
g49
(g50
g51
NtRp523
(dp524
g54
(dp525
g62
I3
ssg63
g519
sg56
(lp526
S''
asbasbasbag49
(g65
g51
NtRp527
(dp528
g54
(dp529
sg63
g423
sg56
(lp530
g49
(g70
g51
NtRp531
(dp532
g54
(dp533
g74
g75
ssg63
g527
sg56
(lp534
g368
asbag49
(g70
g51
NtRp535
(dp536
g54
(dp537
g81
g82
ssg63
g527
sg56
(lp538
S':'
asbag49
(g70
g51
NtRp539
(dp540
g54
(dp541
sg63
g527
sg56
(lp542
g49
(g50
g51
NtRp543
(dp544
g54
(dp545
g62
I3
ssg63
g539
sg56
(lp546
S''
asbasbasbag49
(g65
g51
NtRp547
(dp548
g54
(dp549
sg63
g423
sg56
(lp550
g49
(g70
g51
NtRp551
(dp552
g54
(dp553
g74
g75
ssg63
g547
sg56
(lp554
g389
asbag49
(g70
g51
NtRp555
(dp556
g54
(dp557
g81
g82
ssg63
g547
sg56
(lp558
S':'
asbag49
(g70
g51
NtRp559
(dp560
g54
(dp561
sg63
g547
sg56
(lp562
g49
(g50
g51
NtRp563
(dp564
g54
(dp565
g62
I3
ssg63
g559
sg56
(lp566
S''
asbasbasbasbasbasbasbag49
(g65
g51
NtRp567
(dp568
g54
(dp569
sg63
g226
sg56
(lp570
g49
(g70
g51
NtRp571
(dp572
g54
(dp573
g74
g75
ssg63
g567
sg56
(lp574
S'session_id_xcpadmin'
p575
asbag49
(g70
g51
NtRp576
(dp577
g54
(dp578
g81
g82
ssg63
g567
sg56
(lp579
S':'
asbag49
(g70
g51
NtRp580
(dp581
g54
(dp582
sg63
g567
sg56
(lp583
g49
(g50
g51
NtRp584
(dp585
g54
(dp586
g62
I4
ssg63
g580
sg56
(lp587
g49
(g58
g51
NtRp588
(dp589
g54
(dp590
g62
I3
ssg63
Nsg56
(lp591
g49
(g65
g51
NtRp592
(dp593
g54
(dp594
sg63
g588
sg56
(lp595
g49
(g70
g51
NtRp596
(dp597
g54
(dp598
g74
g75
ssg63
g592
sg56
(lp599
g263
asbag49
(g70
g51
NtRp600
(dp601
g54
(dp602
g81
g82
ssg63
g592
sg56
(lp603
S':'
asbag49
(g70
g51
NtRp604
(dp605
g54
(dp606
sg63
g592
sg56
(lp607
g49
(g50
g51
NtRp608
(dp609
g54
(dp610
g62
I3
ssg63
g604
sg56
(lp611
S''
asbasbasbag49
(g65
g51
NtRp612
(dp613
g54
(dp614
sg63
g588
sg56
(lp615
g49
(g70
g51
NtRp616
(dp617
g54
(dp618
g74
g75
ssg63
g612
sg56
(lp619
g284
asbag49
(g70
g51
NtRp620
(dp621
g54
(dp622
g81
g82
ssg63
g612
sg56
(lp623
S':'
asbag49
(g70
g51
NtRp624
(dp625
g54
(dp626
sg63
g612
sg56
(lp627
g49
(g50
g51
NtRp628
(dp629
g54
(dp630
g62
I3
ssg63
g624
sg56
(lp631
S''
asbasbasbag49
(g65
g51
NtRp632
(dp633
g54
(dp634
sg63
g588
sg56
(lp635
g49
(g70
g51
NtRp636
(dp637
g54
(dp638
g74
g75
ssg63
g632
sg56
(lp639
g305
asbag49
(g70
g51
NtRp640
(dp641
g54
(dp642
g81
g82
ssg63
g632
sg56
(lp643
S':'
asbag49
(g70
g51
NtRp644
(dp645
g54
(dp646
sg63
g632
sg56
(lp647
g49
(g50
g51
NtRp648
(dp649
g54
(dp650
g62
I3
ssg63
g644
sg56
(lp651
S''
asbasbasbag49
(g65
g51
NtRp652
(dp653
g54
(dp654
sg63
g588
sg56
(lp655
g49
(g70
g51
NtRp656
(dp657
g54
(dp658
g74
g75
ssg63
g652
sg56
(lp659
g326
asbag49
(g70
g51
NtRp660
(dp661
g54
(dp662
g81
g82
ssg63
g652
sg56
(lp663
S':'
asbag49
(g70
g51
NtRp664
(dp665
g54
(dp666
sg63
g652
sg56
(lp667
g49
(g50
g51
NtRp668
(dp669
g54
(dp670
g62
I3
ssg63
g664
sg56
(lp671
S''
asbasbasbag49
(g65
g51
NtRp672
(dp673
g54
(dp674
sg63
g588
sg56
(lp675
g49
(g70
g51
NtRp676
(dp677
g54
(dp678
g74
g75
ssg63
g672
sg56
(lp679
g347
asbag49
(g70
g51
NtRp680
(dp681
g54
(dp682
g81
g82
ssg63
g672
sg56
(lp683
S':'
asbag49
(g70
g51
NtRp684
(dp685
g54
(dp686
sg63
g672
sg56
(lp687
g49
(g50
g51
NtRp688
(dp689
g54
(dp690
g62
I3
ssg63
g684
sg56
(lp691
S''
asbasbasbag49
(g65
g51
NtRp692
(dp693
g54
(dp694
sg63
g588
sg56
(lp695
g49
(g70
g51
NtRp696
(dp697
g54
(dp698
g74
g75
ssg63
g692
sg56
(lp699
g368
asbag49
(g70
g51
NtRp700
(dp701
g54
(dp702
g81
g82
ssg63
g692
sg56
(lp703
S':'
asbag49
(g70
g51
NtRp704
(dp705
g54
(dp706
sg63
g692
sg56
(lp707
g49
(g50
g51
NtRp708
(dp709
g54
(dp710
g62
I3
ssg63
g704
sg56
(lp711
S''
asbasbasbag49
(g65
g51
NtRp712
(dp713
g54
(dp714
sg63
g588
sg56
(lp715
g49
(g70
g51
NtRp716
(dp717
g54
(dp718
g74
g75
ssg63
g712
sg56
(lp719
g389
asbag49
(g70
g51
NtRp720
(dp721
g54
(dp722
g81
g82
ssg63
g712
sg56
(lp723
S':'
asbag49
(g70
g51
NtRp724
(dp725
g54
(dp726
sg63
g712
sg56
(lp727
g49
(g50
g51
NtRp728
(dp729
g54
(dp730
g62
I3
ssg63
g724
sg56
(lp731
S''
asbasbasbasbasbasbasbasbasbasbasbag49
(g65
g51
NtRp732
(dp733
g54
(dp734
sg63
g59
sg56
(lp735
g49
(g70
g51
NtRp736
(dp737
g54
(dp738
g74
g75
ssg63
g732
sg56
(lp739
S'env'
p740
asbag49
(g70
g51
NtRp741
(dp742
g54
(dp743
g81
g82
ssg63
g732
sg56
(lp744
S':'
asbag49
(g70
g51
NtRp745
(dp746
g54
(dp747
sg63
g732
sg56
(lp748
g49
(g50
g51
NtRp749
(dp750
g54
(dp751
g62
I5
ssg63
g745
sg56
(lp752
g49
(g58
g51
NtRp753
(dp754
g54
(dp755
g62
I4
ssg63
Nsg56
(lp756
g49
(g65
g51
NtRp757
(dp758
g54
(dp759
sg63
g753
sg56
(lp760
g49
(g70
g51
NtRp761
(dp762
g54
(dp763
g74
g75
ssg63
g757
sg56
(lp764
S'app_folders'
p765
asbag49
(g70
g51
NtRp766
(dp767
g54
(dp768
g81
g82
ssg63
g757
sg56
(lp769
S':'
asbag49
(g70
g51
NtRp770
(dp771
g54
(dp772
sg63
g757
sg56
(lp773
g49
(g50
g51
NtRp774
(dp775
g54
(dp776
g62
I4
ssg63
g770
sg56
(lp777
S"set(['C:\\\\Users\\\\nilton\\\\Desktop\\\\scripts\\\\curso_de_python\\\\web2py\\\\applications\\\\admin\\\\', 'C:\\\\Users\\\\nilton\\\\Desktop\\\\scripts\\\\curso_de_python\\\\web2py\\\\applications\\\\xcpadmin\\\\', 'C:\\\\Users\\\\nilton\\\\Desktop\\\\scripts\\\\curso_de_python\\\\web2py\\\\applications\\\\welcome\\\\'])"
p778
asbasbasbag49
(g65
g51
NtRp779
(dp780
g54
(dp781
sg63
g753
sg56
(lp782
g49
(g70
g51
NtRp783
(dp784
g54
(dp785
g74
g75
ssg63
g779
sg56
(lp786
S'applications_parent'
p787
asbag49
(g70
g51
NtRp788
(dp789
g54
(dp790
g81
g82
ssg63
g779
sg56
(lp791
S':'
asbag49
(g70
g51
NtRp792
(dp793
g54
(dp794
sg63
g779
sg56
(lp795
g49
(g50
g51
NtRp796
(dp797
g54
(dp798
g62
I4
ssg63
g792
sg56
(lp799
S'C:\\Users\\nilton\\Desktop\\scripts\\curso_de_python\\web2py'
p800
asbasbasbag49
(g65
g51
NtRp801
(dp802
g54
(dp803
sg63
g753
sg56
(lp804
g49
(g70
g51
NtRp805
(dp806
g54
(dp807
g74
g75
ssg63
g801
sg56
(lp808
S'cmd_args'
p809
asbag49
(g70
g51
NtRp810
(dp811
g54
(dp812
g81
g82
ssg63
g801
sg56
(lp813
S':'
asbag49
(g70
g51
NtRp814
(dp815
g54
(dp816
sg63
g801
sg56
(lp817
g49
(g50
g51
NtRp818
(dp819
g54
(dp820
g62
I4
ssg63
g814
sg56
(lp821
g49
(g58
g51
NtRp822
(dp823
g54
(dp824
g62
I3
ssg63
Nsg56
(lp825
sbasbasbasbag49
(g65
g51
NtRp826
(dp827
g54
(dp828
sg63
g753
sg56
(lp829
g49
(g70
g51
NtRp830
(dp831
g54
(dp832
g74
g75
ssg63
g826
sg56
(lp833
S'cmd_options'
p834
asbag49
(g70
g51
NtRp835
(dp836
g54
(dp837
g81
g82
ssg63
g826
sg56
(lp838
S':'
asbag49
(g70
g51
NtRp839
(dp840
g54
(dp841
sg63
g826
sg56
(lp842
g49
(g50
g51
NtRp843
(dp844
g54
(dp845
g62
I4
ssg63
g839
sg56
(lp846
S"<Values at 0x27674b8: {'verbose': False, 'ip': '127.0.0.1', 'shutdown_timeout': 5, 'taskbar': False, 'nocron': False, 'pid_filename': 'httpserver.pid', 'maxthreads': None, 'softcron': False, 'server_name': 'nilton-NOT', 'bpython': False, 'nogui': False, 'port': 8000, 'extcron': False, 'debuglevel': 30, 'test': None, 'folder': 'C:\\\\Users\\\\nilton\\\\Desktop\\\\scripts\\\\curso_de_python\\\\web2py', 'config': '', 'import_models': False, 'winservice': '', 'shell': None, 'run': '', 'log_filename': 'httpserver.log', 'args': [''], 'socket_timeout': 1, 'ssl_ca_certificate': None, 'scheduler': None, 'profiler_filename': None, 'ssl_private_key': '', 'password': '<ask>', 'request_queue_size': 5, 'ssl_certificate': '', 'cronjob': False, 'numthreads': None, 'quiet': False, 'interfaces': None, 'minthreads': None, 'timeout': 10, 'plain': False, 'nobanner': False}>"
p847
asbasbasbag49
(g65
g51
NtRp848
(dp849
g54
(dp850
sg63
g753
sg56
(lp851
g49
(g70
g51
NtRp852
(dp853
g54
(dp854
g74
g75
ssg63
g848
sg56
(lp855
S'db_sessions'
p856
asbag49
(g70
g51
NtRp857
(dp858
g54
(dp859
g81
g82
ssg63
g848
sg56
(lp860
S':'
asbag49
(g70
g51
NtRp861
(dp862
g54
(dp863
sg63
g848
sg56
(lp864
g49
(g50
g51
NtRp865
(dp866
g54
(dp867
g62
I4
ssg63
g861
sg56
(lp868
S'set([])'
p869
asbasbasbag49
(g65
g51
NtRp870
(dp871
g54
(dp872
sg63
g753
sg56
(lp873
g49
(g70
g51
NtRp874
(dp875
g54
(dp876
g74
g75
ssg63
g870
sg56
(lp877
S'debugging'
p878
asbag49
(g70
g51
NtRp879
(dp880
g54
(dp881
g81
g82
ssg63
g870
sg56
(lp882
S':'
asbag49
(g70
g51
NtRp883
(dp884
g54
(dp885
sg63
g870
sg56
(lp886
g49
(g50
g51
NtRp887
(dp888
g54
(dp889
g62
I4
ssg63
g883
sg56
(lp890
g92
asbasbasbag49
(g65
g51
NtRp891
(dp892
g54
(dp893
sg63
g753
sg56
(lp894
g49
(g70
g51
NtRp895
(dp896
g54
(dp897
g74
g75
ssg63
g891
sg56
(lp898
S'gluon_parent'
p899
asbag49
(g70
g51
NtRp900
(dp901
g54
(dp902
g81
g82
ssg63
g891
sg56
(lp903
S':'
asbag49
(g70
g51
NtRp904
(dp905
g54
(dp906
sg63
g891
sg56
(lp907
g49
(g50
g51
NtRp908
(dp909
g54
(dp910
g62
I4
ssg63
g904
sg56
(lp911
S'C:\\Users\\nilton\\Desktop\\scripts\\curso_de_python\\web2py'
p912
asbasbasbag49
(g65
g51
NtRp913
(dp914
g54
(dp915
sg63
g753
sg56
(lp916
g49
(g70
g51
NtRp917
(dp918
g54
(dp919
g74
g75
ssg63
g913
sg56
(lp920
S'http_accept'
p921
asbag49
(g70
g51
NtRp922
(dp923
g54
(dp924
g81
g82
ssg63
g913
sg56
(lp925
S':'
asbag49
(g70
g51
NtRp926
(dp927
g54
(dp928
sg63
g913
sg56
(lp929
g49
(g50
g51
NtRp930
(dp931
g54
(dp932
g62
I4
ssg63
g926
sg56
(lp933
S'text/html,application/xhtml+xml,application/xml;q=0.9,*/*;q=0.8'
p934
asbasbasbag49
(g65
g51
NtRp935
(dp936
g54
(dp937
sg63
g753
sg56
(lp938
g49
(g70
g51
NtRp939
(dp940
g54
(dp941
g74
g75
ssg63
g935
sg56
(lp942
S'http_accept_charset'
p943
asbag49
(g70
g51
NtRp944
(dp945
g54
(dp946
g81
g82
ssg63
g935
sg56
(lp947
S':'
asbag49
(g70
g51
NtRp948
(dp949
g54
(dp950
sg63
g935
sg56
(lp951
g49
(g50
g51
NtRp952
(dp953
g54
(dp954
g62
I4
ssg63
g948
sg56
(lp955
S'ISO-8859-1,utf-8;q=0.7,*;q=0.7'
p956
asbasbasbag49
(g65
g51
NtRp957
(dp958
g54
(dp959
sg63
g753
sg56
(lp960
g49
(g70
g51
NtRp961
(dp962
g54
(dp963
g74
g75
ssg63
g957
sg56
(lp964
S'http_accept_encoding'
p965
asbag49
(g70
g51
NtRp966
(dp967
g54
(dp968
g81
g82
ssg63
g957
sg56
(lp969
S':'
asbag49
(g70
g51
NtRp970
(dp971
g54
(dp972
sg63
g957
sg56
(lp973
g49
(g50
g51
NtRp974
(dp975
g54
(dp976
g62
I4
ssg63
g970
sg56
(lp977
S'gzip, deflate'
p978
asbasbasbag49
(g65
g51
NtRp979
(dp980
g54
(dp981
sg63
g753
sg56
(lp982
g49
(g70
g51
NtRp983
(dp984
g54
(dp985
g74
g75
ssg63
g979
sg56
(lp986
S'http_accept_language'
p987
asbag49
(g70
g51
NtRp988
(dp989
g54
(dp990
g81
g82
ssg63
g979
sg56
(lp991
S':'
asbag49
(g70
g51
NtRp992
(dp993
g54
(dp994
sg63
g979
sg56
(lp995
g49
(g50
g51
NtRp996
(dp997
g54
(dp998
g62
I4
ssg63
g992
sg56
(lp999
S'pt-br,pt;q=0.8,en-us;q=0.5,en;q=0.3'
p1000
asbasbasbag49
(g65
g51
NtRp1001
(dp1002
g54
(dp1003
sg63
g753
sg56
(lp1004
g49
(g70
g51
NtRp1005
(dp1006
g54
(dp1007
g74
g75
ssg63
g1001
sg56
(lp1008
S'http_connection'
p1009
asbag49
(g70
g51
NtRp1010
(dp1011
g54
(dp1012
g81
g82
ssg63
g1001
sg56
(lp1013
S':'
asbag49
(g70
g51
NtRp1014
(dp1015
g54
(dp1016
sg63
g1001
sg56
(lp1017
g49
(g50
g51
NtRp1018
(dp1019
g54
(dp1020
g62
I4
ssg63
g1014
sg56
(lp1021
S'keep-alive'
p1022
asbasbasbag49
(g65
g51
NtRp1023
(dp1024
g54
(dp1025
sg63
g753
sg56
(lp1026
g49
(g70
g51
NtRp1027
(dp1028
g54
(dp1029
g74
g75
ssg63
g1023
sg56
(lp1030
S'http_cookie'
p1031
asbag49
(g70
g51
NtRp1032
(dp1033
g54
(dp1034
g81
g82
ssg63
g1023
sg56
(lp1035
S':'
asbag49
(g70
g51
NtRp1036
(dp1037
g54
(dp1038
sg63
g1023
sg56
(lp1039
g49
(g50
g51
NtRp1040
(dp1041
g54
(dp1042
g62
I4
ssg63
g1036
sg56
(lp1043
S'session_id_welcome=127.0.0.1-e2ee4819-196b-48ee-b9a6-c158d9c6823f; session_id_xcpadmin=127.0.0.1-0cb88dcb-67b2-4748-8846-25f35503a0e7; session_id_admin=127.0.0.1-4133fdb4-b4c5-4fa8-b713-fdd8b0e34bbb'
p1044
asbasbasbag49
(g65
g51
NtRp1045
(dp1046
g54
(dp1047
sg63
g753
sg56
(lp1048
g49
(g70
g51
NtRp1049
(dp1050
g54
(dp1051
g74
g75
ssg63
g1045
sg56
(lp1052
S'http_host'
p1053
asbag49
(g70
g51
NtRp1054
(dp1055
g54
(dp1056
g81
g82
ssg63
g1045
sg56
(lp1057
S':'
asbag49
(g70
g51
NtRp1058
(dp1059
g54
(dp1060
sg63
g1045
sg56
(lp1061
g49
(g50
g51
NtRp1062
(dp1063
g54
(dp1064
g62
I4
ssg63
g1058
sg56
(lp1065
S'127.0.0.1:8000'
p1066
asbasbasbag49
(g65
g51
NtRp1067
(dp1068
g54
(dp1069
sg63
g753
sg56
(lp1070
g49
(g70
g51
NtRp1071
(dp1072
g54
(dp1073
g74
g75
ssg63
g1067
sg56
(lp1074
S'http_user_agent'
p1075
asbag49
(g70
g51
NtRp1076
(dp1077
g54
(dp1078
g81
g82
ssg63
g1067
sg56
(lp1079
S':'
asbag49
(g70
g51
NtRp1080
(dp1081
g54
(dp1082
sg63
g1067
sg56
(lp1083
g49
(g50
g51
NtRp1084
(dp1085
g54
(dp1086
g62
I4
ssg63
g1080
sg56
(lp1087
S'Mozilla/5.0 (Windows NT 6.1; rv:9.0.1) Gecko/20100101 Firefox/9.0.1'
p1088
asbasbasbag49
(g65
g51
NtRp1089
(dp1090
g54
(dp1091
sg63
g753
sg56
(lp1092
g49
(g70
g51
NtRp1093
(dp1094
g54
(dp1095
g74
g75
ssg63
g1089
sg56
(lp1096
S'is_jython'
p1097
asbag49
(g70
g51
NtRp1098
(dp1099
g54
(dp1100
g81
g82
ssg63
g1089
sg56
(lp1101
S':'
asbag49
(g70
g51
NtRp1102
(dp1103
g54
(dp1104
sg63
g1089
sg56
(lp1105
g49
(g50
g51
NtRp1106
(dp1107
g54
(dp1108
g62
I4
ssg63
g1102
sg56
(lp1109
g92
asbasbasbag49
(g65
g51
NtRp1110
(dp1111
g54
(dp1112
sg63
g753
sg56
(lp1113
g49
(g70
g51
NtRp1114
(dp1115
g54
(dp1116
g74
g75
ssg63
g1110
sg56
(lp1117
S'is_pypy'
p1118
asbag49
(g70
g51
NtRp1119
(dp1120
g54
(dp1121
g81
g82
ssg63
g1110
sg56
(lp1122
S':'
asbag49
(g70
g51
NtRp1123
(dp1124
g54
(dp1125
sg63
g1110
sg56
(lp1126
g49
(g50
g51
NtRp1127
(dp1128
g54
(dp1129
g62
I4
ssg63
g1123
sg56
(lp1130
g92
asbasbasbag49
(g65
g51
NtRp1131
(dp1132
g54
(dp1133
sg63
g753
sg56
(lp1134
g49
(g70
g51
NtRp1135
(dp1136
g54
(dp1137
g74
g75
ssg63
g1131
sg56
(lp1138
S'path_info'
p1139
asbag49
(g70
g51
NtRp1140
(dp1141
g54
(dp1142
g81
g82
ssg63
g1131
sg56
(lp1143
S':'
asbag49
(g70
g51
NtRp1144
(dp1145
g54
(dp1146
sg63
g1131
sg56
(lp1147
g49
(g50
g51
NtRp1148
(dp1149
g54
(dp1150
g62
I4
ssg63
g1144
sg56
(lp1151
S'/xcpadmin/listvm/'
p1152
asbasbasbag49
(g65
g51
NtRp1153
(dp1154
g54
(dp1155
sg63
g753
sg56
(lp1156
g49
(g70
g51
NtRp1157
(dp1158
g54
(dp1159
g74
g75
ssg63
g1153
sg56
(lp1160
S'query_string'
p1161
asbag49
(g70
g51
NtRp1162
(dp1163
g54
(dp1164
g81
g82
ssg63
g1153
sg56
(lp1165
S':'
asbag49
(g70
g51
NtRp1166
(dp1167
g54
(dp1168
sg63
g1153
sg56
(lp1169
g49
(g50
g51
NtRp1170
(dp1171
g54
(dp1172
g62
I4
ssg63
g1166
sg56
(lp1173
S''
asbasbasbag49
(g65
g51
NtRp1174
(dp1175
g54
(dp1176
sg63
g753
sg56
(lp1177
g49
(g70
g51
NtRp1178
(dp1179
g54
(dp1180
g74
g75
ssg63
g1174
sg56
(lp1181
S'remote_addr'
p1182
asbag49
(g70
g51
NtRp1183
(dp1184
g54
(dp1185
g81
g82
ssg63
g1174
sg56
(lp1186
S':'
asbag49
(g70
g51
NtRp1187
(dp1188
g54
(dp1189
sg63
g1174
sg56
(lp1190
g49
(g50
g51
NtRp1191
(dp1192
g54
(dp1193
g62
I4
ssg63
g1187
sg56
(lp1194
g182
asbasbasbag49
(g65
g51
NtRp1195
(dp1196
g54
(dp1197
sg63
g753
sg56
(lp1198
g49
(g70
g51
NtRp1199
(dp1200
g54
(dp1201
g74
g75
ssg63
g1195
sg56
(lp1202
S'remote_port'
p1203
asbag49
(g70
g51
NtRp1204
(dp1205
g54
(dp1206
g81
g82
ssg63
g1195
sg56
(lp1207
S':'
asbag49
(g70
g51
NtRp1208
(dp1209
g54
(dp1210
sg63
g1195
sg56
(lp1211
g49
(g50
g51
NtRp1212
(dp1213
g54
(dp1214
g62
I4
ssg63
g1208
sg56
(lp1215
S'59396'
p1216
asbasbasbag49
(g65
g51
NtRp1217
(dp1218
g54
(dp1219
sg63
g753
sg56
(lp1220
g49
(g70
g51
NtRp1221
(dp1222
g54
(dp1223
g74
g75
ssg63
g1217
sg56
(lp1224
S'request_method'
p1225
asbag49
(g70
g51
NtRp1226
(dp1227
g54
(dp1228
g81
g82
ssg63
g1217
sg56
(lp1229
S':'
asbag49
(g70
g51
NtRp1230
(dp1231
g54
(dp1232
sg63
g1217
sg56
(lp1233
g49
(g50
g51
NtRp1234
(dp1235
g54
(dp1236
g62
I4
ssg63
g1230
sg56
(lp1237
S'GET'
p1238
asbasbasbag49
(g65
g51
NtRp1239
(dp1240
g54
(dp1241
sg63
g753
sg56
(lp1242
g49
(g70
g51
NtRp1243
(dp1244
g54
(dp1245
g74
g75
ssg63
g1239
sg56
(lp1246
S'script_name'
p1247
asbag49
(g70
g51
NtRp1248
(dp1249
g54
(dp1250
g81
g82
ssg63
g1239
sg56
(lp1251
S':'
asbag49
(g70
g51
NtRp1252
(dp1253
g54
(dp1254
sg63
g1239
sg56
(lp1255
g49
(g50
g51
NtRp1256
(dp1257
g54
(dp1258
g62
I4
ssg63
g1252
sg56
(lp1259
S''
asbasbasbag49
(g65
g51
NtRp1260
(dp1261
g54
(dp1262
sg63
g753
sg56
(lp1263
g49
(g70
g51
NtRp1264
(dp1265
g54
(dp1266
g74
g75
ssg63
g1260
sg56
(lp1267
S'server_name'
p1268
asbag49
(g70
g51
NtRp1269
(dp1270
g54
(dp1271
g81
g82
ssg63
g1260
sg56
(lp1272
S':'
asbag49
(g70
g51
NtRp1273
(dp1274
g54
(dp1275
sg63
g1260
sg56
(lp1276
g49
(g50
g51
NtRp1277
(dp1278
g54
(dp1279
g62
I4
ssg63
g1273
sg56
(lp1280
S'nilton-NOT'
p1281
asbasbasbag49
(g65
g51
NtRp1282
(dp1283
g54
(dp1284
sg63
g753
sg56
(lp1285
g49
(g70
g51
NtRp1286
(dp1287
g54
(dp1288
g74
g75
ssg63
g1282
sg56
(lp1289
S'server_port'
p1290
asbag49
(g70
g51
NtRp1291
(dp1292
g54
(dp1293
g81
g82
ssg63
g1282
sg56
(lp1294
S':'
asbag49
(g70
g51
NtRp1295
(dp1296
g54
(dp1297
sg63
g1282
sg56
(lp1298
g49
(g50
g51
NtRp1299
(dp1300
g54
(dp1301
g62
I4
ssg63
g1295
sg56
(lp1302
S'8000'
p1303
asbasbasbag49
(g65
g51
NtRp1304
(dp1305
g54
(dp1306
sg63
g753
sg56
(lp1307
g49
(g70
g51
NtRp1308
(dp1309
g54
(dp1310
g74
g75
ssg63
g1304
sg56
(lp1311
S'server_protocol'
p1312
asbag49
(g70
g51
NtRp1313
(dp1314
g54
(dp1315
g81
g82
ssg63
g1304
sg56
(lp1316
S':'
asbag49
(g70
g51
NtRp1317
(dp1318
g54
(dp1319
sg63
g1304
sg56
(lp1320
g49
(g50
g51
NtRp1321
(dp1322
g54
(dp1323
g62
I4
ssg63
g1317
sg56
(lp1324
S'HTTP/1.1'
p1325
asbasbasbag49
(g65
g51
NtRp1326
(dp1327
g54
(dp1328
sg63
g753
sg56
(lp1329
g49
(g70
g51
NtRp1330
(dp1331
g54
(dp1332
g74
g75
ssg63
g1326
sg56
(lp1333
S'server_software'
p1334
asbag49
(g70
g51
NtRp1335
(dp1336
g54
(dp1337
g81
g82
ssg63
g1326
sg56
(lp1338
S':'
asbag49
(g70
g51
NtRp1339
(dp1340
g54
(dp1341
sg63
g1326
sg56
(lp1342
g49
(g50
g51
NtRp1343
(dp1344
g54
(dp1345
g62
I4
ssg63
g1339
sg56
(lp1346
S'Rocket 1.2.4'
p1347
asbasbasbag49
(g65
g51
NtRp1348
(dp1349
g54
(dp1350
sg63
g753
sg56
(lp1351
g49
(g70
g51
NtRp1352
(dp1353
g54
(dp1354
g74
g75
ssg63
g1348
sg56
(lp1355
S'web2py_crontype'
p1356
asbag49
(g70
g51
NtRp1357
(dp1358
g54
(dp1359
g81
g82
ssg63
g1348
sg56
(lp1360
S':'
asbag49
(g70
g51
NtRp1361
(dp1362
g54
(dp1363
sg63
g1348
sg56
(lp1364
g49
(g50
g51
NtRp1365
(dp1366
g54
(dp1367
g62
I4
ssg63
g1361
sg56
(lp1368
S'hard'
p1369
asbasbasbag49
(g65
g51
NtRp1370
(dp1371
g54
(dp1372
sg63
g753
sg56
(lp1373
g49
(g70
g51
NtRp1374
(dp1375
g54
(dp1376
g74
g75
ssg63
g1370
sg56
(lp1377
S'web2py_path'
p1378
asbag49
(g70
g51
NtRp1379
(dp1380
g54
(dp1381
g81
g82
ssg63
g1370
sg56
(lp1382
S':'
asbag49
(g70
g51
NtRp1383
(dp1384
g54
(dp1385
sg63
g1370
sg56
(lp1386
g49
(g50
g51
NtRp1387
(dp1388
g54
(dp1389
g62
I4
ssg63
g1383
sg56
(lp1390
g800
asbasbasbag49
(g65
g51
NtRp1391
(dp1392
g54
(dp1393
sg63
g753
sg56
(lp1394
g49
(g70
g51
NtRp1395
(dp1396
g54
(dp1397
g74
g75
ssg63
g1391
sg56
(lp1398
S'web2py_version'
p1399
asbag49
(g70
g51
NtRp1400
(dp1401
g54
(dp1402
g81
g82
ssg63
g1391
sg56
(lp1403
S':'
asbag49
(g70
g51
NtRp1404
(dp1405
g54
(dp1406
sg63
g1391
sg56
(lp1407
g49
(g50
g51
NtRp1408
(dp1409
g54
(dp1410
g62
I4
ssg63
g1404
sg56
(lp1411
g49
(g58
g51
NtRp1412
(dp1413
g54
(dp1414
g62
I3
ssg63
Nsg56
(lp1415
g49
(g65
g51
NtRp1416
(dp1417
g54
(dp1418
sg63
g1412
sg56
(lp1419
g49
(g70
g51
NtRp1420
(dp1421
g54
(dp1422
sg63
g1416
sg56
(lp1423
g49
(g50
g51
NtRp1424
(dp1425
g54
(dp1426
g62
I3
ssg63
g1420
sg56
(lp1427
S'1'
asbasbasbag49
(g65
g51
NtRp1428
(dp1429
g54
(dp1430
sg63
g1412
sg56
(lp1431
g49
(g70
g51
NtRp1432
(dp1433
g54
(dp1434
sg63
g1428
sg56
(lp1435
g49
(g50
g51
NtRp1436
(dp1437
g54
(dp1438
g62
I3
ssg63
g1432
sg56
(lp1439
S'99'
p1440
asbasbasbag49
(g65
g51
NtRp1441
(dp1442
g54
(dp1443
sg63
g1412
sg56
(lp1444
g49
(g70
g51
NtRp1445
(dp1446
g54
(dp1447
sg63
g1441
sg56
(lp1448
g49
(g50
g51
NtRp1449
(dp1450
g54
(dp1451
g62
I3
ssg63
g1445
sg56
(lp1452
S'4'
asbasbasbag49
(g65
g51
NtRp1453
(dp1454
g54
(dp1455
sg63
g1412
sg56
(lp1456
g49
(g70
g51
NtRp1457
(dp1458
g54
(dp1459
sg63
g1453
sg56
(lp1460
g49
(g50
g51
NtRp1461
(dp1462
g54
(dp1463
g62
I3
ssg63
g1457
sg56
(lp1464
S'datetime.datetime(2011, 12, 14, 14, 46, 14)'
p1465
asbasbasbag49
(g65
g51
NtRp1466
(dp1467
g54
(dp1468
sg63
g1412
sg56
(lp1469
g49
(g70
g51
NtRp1470
(dp1471
g54
(dp1472
sg63
g1466
sg56
(lp1473
g49
(g50
g51
NtRp1474
(dp1475
g54
(dp1476
g62
I3
ssg63
g1470
sg56
(lp1477
S'stable'
p1478
asbasbasbasbasbasbasbag49
(g65
g51
NtRp1479
(dp1480
g54
(dp1481
sg63
g753
sg56
(lp1482
g49
(g70
g51
NtRp1483
(dp1484
g54
(dp1485
g74
g75
ssg63
g1479
sg56
(lp1486
S'wsgi_errors'
p1487
asbag49
(g70
g51
NtRp1488
(dp1489
g54
(dp1490
g81
g82
ssg63
g1479
sg56
(lp1491
S':'
asbag49
(g70
g51
NtRp1492
(dp1493
g54
(dp1494
sg63
g1479
sg56
(lp1495
g49
(g50
g51
NtRp1496
(dp1497
g54
(dp1498
g62
I4
ssg63
g1492
sg56
(lp1499
S'<__main__.Stderr object at 0x0124A670>'
p1500
asbasbasbag49
(g65
g51
NtRp1501
(dp1502
g54
(dp1503
sg63
g753
sg56
(lp1504
g49
(g70
g51
NtRp1505
(dp1506
g54
(dp1507
g74
g75
ssg63
g1501
sg56
(lp1508
S'wsgi_file_wrapper'
p1509
asbag49
(g70
g51
NtRp1510
(dp1511
g54
(dp1512
g81
g82
ssg63
g1501
sg56
(lp1513
S':'
asbag49
(g70
g51
NtRp1514
(dp1515
g54
(dp1516
sg63
g1501
sg56
(lp1517
g49
(g50
g51
NtRp1518
(dp1519
g54
(dp1520
g62
I4
ssg63
g1514
sg56
(lp1521
S'<class wsgiref.util.FileWrapper at 0x01BDBBA0>'
p1522
asbasbasbag49
(g65
g51
NtRp1523
(dp1524
g54
(dp1525
sg63
g753
sg56
(lp1526
g49
(g70
g51
NtRp1527
(dp1528
g54
(dp1529
g74
g75
ssg63
g1523
sg56
(lp1530
S'wsgi_input'
p1531
asbag49
(g70
g51
NtRp1532
(dp1533
g54
(dp1534
g81
g82
ssg63
g1523
sg56
(lp1535
S':'
asbag49
(g70
g51
NtRp1536
(dp1537
g54
(dp1538
sg63
g1523
sg56
(lp1539
g49
(g50
g51
NtRp1540
(dp1541
g54
(dp1542
g62
I4
ssg63
g1536
sg56
(lp1543
S'<socket._fileobject object at 0x060023B0>'
p1544
asbasbasbag49
(g65
g51
NtRp1545
(dp1546
g54
(dp1547
sg63
g753
sg56
(lp1548
g49
(g70
g51
NtRp1549
(dp1550
g54
(dp1551
g74
g75
ssg63
g1545
sg56
(lp1552
S'wsgi_multiprocess'
p1553
asbag49
(g70
g51
NtRp1554
(dp1555
g54
(dp1556
g81
g82
ssg63
g1545
sg56
(lp1557
S':'
asbag49
(g70
g51
NtRp1558
(dp1559
g54
(dp1560
sg63
g1545
sg56
(lp1561
g49
(g50
g51
NtRp1562
(dp1563
g54
(dp1564
g62
I4
ssg63
g1558
sg56
(lp1565
g92
asbasbasbag49
(g65
g51
NtRp1566
(dp1567
g54
(dp1568
sg63
g753
sg56
(lp1569
g49
(g70
g51
NtRp1570
(dp1571
g54
(dp1572
g74
g75
ssg63
g1566
sg56
(lp1573
S'wsgi_multithread'
p1574
asbag49
(g70
g51
NtRp1575
(dp1576
g54
(dp1577
g81
g82
ssg63
g1566
sg56
(lp1578
S':'
asbag49
(g70
g51
NtRp1579
(dp1580
g54
(dp1581
sg63
g1566
sg56
(lp1582
g49
(g50
g51
NtRp1583
(dp1584
g54
(dp1585
g62
I4
ssg63
g1579
sg56
(lp1586
S'True'
p1587
asbasbasbag49
(g65
g51
NtRp1588
(dp1589
g54
(dp1590
sg63
g753
sg56
(lp1591
g49
(g70
g51
NtRp1592
(dp1593
g54
(dp1594
g74
g75
ssg63
g1588
sg56
(lp1595
S'wsgi_run_once'
p1596
asbag49
(g70
g51
NtRp1597
(dp1598
g54
(dp1599
g81
g82
ssg63
g1588
sg56
(lp1600
S':'
asbag49
(g70
g51
NtRp1601
(dp1602
g54
(dp1603
sg63
g1588
sg56
(lp1604
g49
(g50
g51
NtRp1605
(dp1606
g54
(dp1607
g62
I4
ssg63
g1601
sg56
(lp1608
g92
asbasbasbag49
(g65
g51
NtRp1609
(dp1610
g54
(dp1611
sg63
g753
sg56
(lp1612
g49
(g70
g51
NtRp1613
(dp1614
g54
(dp1615
g74
g75
ssg63
g1609
sg56
(lp1616
S'wsgi_url_scheme'
p1617
asbag49
(g70
g51
NtRp1618
(dp1619
g54
(dp1620
g81
g82
ssg63
g1609
sg56
(lp1621
S':'
asbag49
(g70
g51
NtRp1622
(dp1623
g54
(dp1624
sg63
g1609
sg56
(lp1625
g49
(g50
g51
NtRp1626
(dp1627
g54
(dp1628
g62
I4
ssg63
g1622
sg56
(lp1629
S'http'
p1630
asbasbasbag49
(g65
g51
NtRp1631
(dp1632
g54
(dp1633
sg63
g753
sg56
(lp1634
g49
(g70
g51
NtRp1635
(dp1636
g54
(dp1637
g74
g75
ssg63
g1631
sg56
(lp1638
S'wsgi_version'
p1639
asbag49
(g70
g51
NtRp1640
(dp1641
g54
(dp1642
g81
g82
ssg63
g1631
sg56
(lp1643
S':'
asbag49
(g70
g51
NtRp1644
(dp1645
g54
(dp1646
sg63
g1631
sg56
(lp1647
g49
(g50
g51
NtRp1648
(dp1649
g54
(dp1650
g62
I4
ssg63
g1644
sg56
(lp1651
g49
(g58
g51
NtRp1652
(dp1653
g54
(dp1654
g62
I3
ssg63
Nsg56
(lp1655
g49
(g65
g51
NtRp1656
(dp1657
g54
(dp1658
sg63
g1652
sg56
(lp1659
g49
(g70
g51
NtRp1660
(dp1661
g54
(dp1662
sg63
g1656
sg56
(lp1663
g49
(g50
g51
NtRp1664
(dp1665
g54
(dp1666
g62
I3
ssg63
g1660
sg56
(lp1667
S'1'
asbasbasbag49
(g65
g51
NtRp1668
(dp1669
g54
(dp1670
sg63
g1652
sg56
(lp1671
g49
(g70
g51
NtRp1672
(dp1673
g54
(dp1674
sg63
g1668
sg56
(lp1675
g49
(g50
g51
NtRp1676
(dp1677
g54
(dp1678
g62
I3
ssg63
g1672
sg56
(lp1679
S'0'
asbasbasbasbasbasbasbasbasbasbasbag49
(g65
g51
NtRp1680
(dp1681
g54
(dp1682
sg63
g59
sg56
(lp1683
g49
(g70
g51
NtRp1684
(dp1685
g54
(dp1686
g74
g75
ssg63
g1680
sg56
(lp1687
S'extension'
p1688
asbag49
(g70
g51
NtRp1689
(dp1690
g54
(dp1691
g81
g82
ssg63
g1680
sg56
(lp1692
S':'
asbag49
(g70
g51
NtRp1693
(dp1694
g54
(dp1695
sg63
g1680
sg56
(lp1696
g49
(g50
g51
NtRp1697
(dp1698
g54
(dp1699
g62
I5
ssg63
g1693
sg56
(lp1700
S'html'
p1701
asbasbasbag49
(g65
g51
NtRp1702
(dp1703
g54
(dp1704
sg63
g59
sg56
(lp1705
g49
(g70
g51
NtRp1706
(dp1707
g54
(dp1708
g74
g75
ssg63
g1702
sg56
(lp1709
S'folder'
p1710
asbag49
(g70
g51
NtRp1711
(dp1712
g54
(dp1713
g81
g82
ssg63
g1702
sg56
(lp1714
S':'
asbag49
(g70
g51
NtRp1715
(dp1716
g54
(dp1717
sg63
g1702
sg56
(lp1718
g49
(g50
g51
NtRp1719
(dp1720
g54
(dp1721
g62
I5
ssg63
g1715
sg56
(lp1722
S'C:\\Users\\nilton\\Desktop\\scripts\\curso_de_python\\web2py\\applications\\xcpadmin\\'
p1723
asbasbasbag49
(g65
g51
NtRp1724
(dp1725
g54
(dp1726
sg63
g59
sg56
(lp1727
g49
(g70
g51
NtRp1728
(dp1729
g54
(dp1730
g74
g75
ssg63
g1724
sg56
(lp1731
S'function'
p1732
asbag49
(g70
g51
NtRp1733
(dp1734
g54
(dp1735
g81
g82
ssg63
g1724
sg56
(lp1736
S':'
asbag49
(g70
g51
NtRp1737
(dp1738
g54
(dp1739
sg63
g1724
sg56
(lp1740
g49
(g50
g51
NtRp1741
(dp1742
g54
(dp1743
g62
I5
ssg63
g1737
sg56
(lp1744
S'index'
p1745
asbasbasbag49
(g65
g51
NtRp1746
(dp1747
g54
(dp1748
sg63
g59
sg56
(lp1749
g49
(g70
g51
NtRp1750
(dp1751
g54
(dp1752
g74
g75
ssg63
g1746
sg56
(lp1753
S'get_vars'
p1754
asbag49
(g70
g51
NtRp1755
(dp1756
g54
(dp1757
g81
g82
ssg63
g1746
sg56
(lp1758
S':'
asbag49
(g70
g51
NtRp1759
(dp1760
g54
(dp1761
sg63
g1746
sg56
(lp1762
g49
(g50
g51
NtRp1763
(dp1764
g54
(dp1765
g62
I5
ssg63
g1759
sg56
(lp1766
g49
(g58
g51
NtRp1767
(dp1768
g54
(dp1769
g62
I4
ssg63
Nsg56
(lp1770
sbasbasbasbag49
(g65
g51
NtRp1771
(dp1772
g54
(dp1773
sg63
g59
sg56
(lp1774
g49
(g70
g51
NtRp1775
(dp1776
g54
(dp1777
g74
g75
ssg63
g1771
sg56
(lp1778
S'global_settings'
p1779
asbag49
(g70
g51
NtRp1780
(dp1781
g54
(dp1782
g81
g82
ssg63
g1771
sg56
(lp1783
S':'
asbag49
(g70
g51
NtRp1784
(dp1785
g54
(dp1786
sg63
g1771
sg56
(lp1787
g49
(g50
g51
NtRp1788
(dp1789
g54
(dp1790
g62
I5
ssg63
g1784
sg56
(lp1791
g49
(g58
g51
NtRp1792
(dp1793
g54
(dp1794
g62
I4
ssg63
Nsg56
(lp1795
g49
(g65
g51
NtRp1796
(dp1797
g54
(dp1798
sg63
g1792
sg56
(lp1799
g49
(g70
g51
NtRp1800
(dp1801
g54
(dp1802
g74
g75
ssg63
g1796
sg56
(lp1803
g765
asbag49
(g70
g51
NtRp1804
(dp1805
g54
(dp1806
g81
g82
ssg63
g1796
sg56
(lp1807
S':'
asbag49
(g70
g51
NtRp1808
(dp1809
g54
(dp1810
sg63
g1796
sg56
(lp1811
g49
(g50
g51
NtRp1812
(dp1813
g54
(dp1814
g62
I4
ssg63
g1808
sg56
(lp1815
S"set(['C:\\\\Users\\\\nilton\\\\Desktop\\\\scripts\\\\curso_de_python\\\\web2py\\\\applications\\\\admin\\\\', 'C:\\\\Users\\\\nilton\\\\Desktop\\\\scripts\\\\curso_de_python\\\\web2py\\\\applications\\\\xcpadmin\\\\', 'C:\\\\Users\\\\nilton\\\\Desktop\\\\scripts\\\\curso_de_python\\\\web2py\\\\applications\\\\welcome\\\\'])"
p1816
asbasbasbag49
(g65
g51
NtRp1817
(dp1818
g54
(dp1819
sg63
g1792
sg56
(lp1820
g49
(g70
g51
NtRp1821
(dp1822
g54
(dp1823
g74
g75
ssg63
g1817
sg56
(lp1824
g787
asbag49
(g70
g51
NtRp1825
(dp1826
g54
(dp1827
g81
g82
ssg63
g1817
sg56
(lp1828
S':'
asbag49
(g70
g51
NtRp1829
(dp1830
g54
(dp1831
sg63
g1817
sg56
(lp1832
g49
(g50
g51
NtRp1833
(dp1834
g54
(dp1835
g62
I4
ssg63
g1829
sg56
(lp1836
g800
asbasbasbag49
(g65
g51
NtRp1837
(dp1838
g54
(dp1839
sg63
g1792
sg56
(lp1840
g49
(g70
g51
NtRp1841
(dp1842
g54
(dp1843
g74
g75
ssg63
g1837
sg56
(lp1844
g809
asbag49
(g70
g51
NtRp1845
(dp1846
g54
(dp1847
g81
g82
ssg63
g1837
sg56
(lp1848
S':'
asbag49
(g70
g51
NtRp1849
(dp1850
g54
(dp1851
sg63
g1837
sg56
(lp1852
g49
(g50
g51
NtRp1853
(dp1854
g54
(dp1855
g62
I4
ssg63
g1849
sg56
(lp1856
g49
(g58
g51
NtRp1857
(dp1858
g54
(dp1859
g62
I3
ssg63
Nsg56
(lp1860
sbasbasbasbag49
(g65
g51
NtRp1861
(dp1862
g54
(dp1863
sg63
g1792
sg56
(lp1864
g49
(g70
g51
NtRp1865
(dp1866
g54
(dp1867
g74
g75
ssg63
g1861
sg56
(lp1868
g834
asbag49
(g70
g51
NtRp1869
(dp1870
g54
(dp1871
g81
g82
ssg63
g1861
sg56
(lp1872
S':'
asbag49
(g70
g51
NtRp1873
(dp1874
g54
(dp1875
sg63
g1861
sg56
(lp1876
g49
(g50
g51
NtRp1877
(dp1878
g54
(dp1879
g62
I4
ssg63
g1873
sg56
(lp1880
S"<Values at 0x27674b8: {'verbose': False, 'ip': '127.0.0.1', 'shutdown_timeout': 5, 'taskbar': False, 'nocron': False, 'pid_filename': 'httpserver.pid', 'maxthreads': None, 'softcron': False, 'server_name': 'nilton-NOT', 'bpython': False, 'nogui': False, 'port': 8000, 'extcron': False, 'debuglevel': 30, 'test': None, 'folder': 'C:\\\\Users\\\\nilton\\\\Desktop\\\\scripts\\\\curso_de_python\\\\web2py', 'config': '', 'import_models': False, 'winservice': '', 'shell': None, 'run': '', 'log_filename': 'httpserver.log', 'args': [''], 'socket_timeout': 1, 'ssl_ca_certificate': None, 'scheduler': None, 'profiler_filename': None, 'ssl_private_key': '', 'password': '<ask>', 'request_queue_size': 5, 'ssl_certificate': '', 'cronjob': False, 'numthreads': None, 'quiet': False, 'interfaces': None, 'minthreads': None, 'timeout': 10, 'plain': False, 'nobanner': False}>"
p1881
asbasbasbag49
(g65
g51
NtRp1882
(dp1883
g54
(dp1884
sg63
g1792
sg56
(lp1885
g49
(g70
g51
NtRp1886
(dp1887
g54
(dp1888
g74
g75
ssg63
g1882
sg56
(lp1889
g856
asbag49
(g70
g51
NtRp1890
(dp1891
g54
(dp1892
g81
g82
ssg63
g1882
sg56
(lp1893
S':'
asbag49
(g70
g51
NtRp1894
(dp1895
g54
(dp1896
sg63
g1882
sg56
(lp1897
g49
(g50
g51
NtRp1898
(dp1899
g54
(dp1900
g62
I4
ssg63
g1894
sg56
(lp1901
S'set([])'
p1902
asbasbasbag49
(g65
g51
NtRp1903
(dp1904
g54
(dp1905
sg63
g1792
sg56
(lp1906
g49
(g70
g51
NtRp1907
(dp1908
g54
(dp1909
g74
g75
ssg63
g1903
sg56
(lp1910
g878
asbag49
(g70
g51
NtRp1911
(dp1912
g54
(dp1913
g81
g82
ssg63
g1903
sg56
(lp1914
S':'
asbag49
(g70
g51
NtRp1915
(dp1916
g54
(dp1917
sg63
g1903
sg56
(lp1918
g49
(g50
g51
NtRp1919
(dp1920
g54
(dp1921
g62
I4
ssg63
g1915
sg56
(lp1922
g92
asbasbasbag49
(g65
g51
NtRp1923
(dp1924
g54
(dp1925
sg63
g1792
sg56
(lp1926
g49
(g70
g51
NtRp1927
(dp1928
g54
(dp1929
g74
g75
ssg63
g1923
sg56
(lp1930
g899
asbag49
(g70
g51
NtRp1931
(dp1932
g54
(dp1933
g81
g82
ssg63
g1923
sg56
(lp1934
S':'
asbag49
(g70
g51
NtRp1935
(dp1936
g54
(dp1937
sg63
g1923
sg56
(lp1938
g49
(g50
g51
NtRp1939
(dp1940
g54
(dp1941
g62
I4
ssg63
g1935
sg56
(lp1942
g912
asbasbasbag49
(g65
g51
NtRp1943
(dp1944
g54
(dp1945
sg63
g1792
sg56
(lp1946
g49
(g70
g51
NtRp1947
(dp1948
g54
(dp1949
g74
g75
ssg63
g1943
sg56
(lp1950
g1097
asbag49
(g70
g51
NtRp1951
(dp1952
g54
(dp1953
g81
g82
ssg63
g1943
sg56
(lp1954
S':'
asbag49
(g70
g51
NtRp1955
(dp1956
g54
(dp1957
sg63
g1943
sg56
(lp1958
g49
(g50
g51
NtRp1959
(dp1960
g54
(dp1961
g62
I4
ssg63
g1955
sg56
(lp1962
g92
asbasbasbag49
(g65
g51
NtRp1963
(dp1964
g54
(dp1965
sg63
g1792
sg56
(lp1966
g49
(g70
g51
NtRp1967
(dp1968
g54
(dp1969
g74
g75
ssg63
g1963
sg56
(lp1970
g1118
asbag49
(g70
g51
NtRp1971
(dp1972
g54
(dp1973
g81
g82
ssg63
g1963
sg56
(lp1974
S':'
asbag49
(g70
g51
NtRp1975
(dp1976
g54
(dp1977
sg63
g1963
sg56
(lp1978
g49
(g50
g51
NtRp1979
(dp1980
g54
(dp1981
g62
I4
ssg63
g1975
sg56
(lp1982
g92
asbasbasbag49
(g65
g51
NtRp1983
(dp1984
g54
(dp1985
sg63
g1792
sg56
(lp1986
g49
(g70
g51
NtRp1987
(dp1988
g54
(dp1989
g74
g75
ssg63
g1983
sg56
(lp1990
g1356
asbag49
(g70
g51
NtRp1991
(dp1992
g54
(dp1993
g81
g82
ssg63
g1983
sg56
(lp1994
S':'
asbag49
(g70
g51
NtRp1995
(dp1996
g54
(dp1997
sg63
g1983
sg56
(lp1998
g49
(g50
g51
NtRp1999
(dp2000
g54
(dp2001
g62
I4
ssg63
g1995
sg56
(lp2002
g1369
asbasbasbag49
(g65
g51
NtRp2003
(dp2004
g54
(dp2005
sg63
g1792
sg56
(lp2006
g49
(g70
g51
NtRp2007
(dp2008
g54
(dp2009
g74
g75
ssg63
g2003
sg56
(lp2010
g1399
asbag49
(g70
g51
NtRp2011
(dp2012
g54
(dp2013
g81
g82
ssg63
g2003
sg56
(lp2014
S':'
asbag49
(g70
g51
NtRp2015
(dp2016
g54
(dp2017
sg63
g2003
sg56
(lp2018
g49
(g50
g51
NtRp2019
(dp2020
g54
(dp2021
g62
I4
ssg63
g2015
sg56
(lp2022
g49
(g58
g51
NtRp2023
(dp2024
g54
(dp2025
g62
I3
ssg63
Nsg56
(lp2026
g49
(g65
g51
NtRp2027
(dp2028
g54
(dp2029
sg63
g2023
sg56
(lp2030
g49
(g70
g51
NtRp2031
(dp2032
g54
(dp2033
sg63
g2027
sg56
(lp2034
g49
(g50
g51
NtRp2035
(dp2036
g54
(dp2037
g62
I3
ssg63
g2031
sg56
(lp2038
S'1'
asbasbasbag49
(g65
g51
NtRp2039
(dp2040
g54
(dp2041
sg63
g2023
sg56
(lp2042
g49
(g70
g51
NtRp2043
(dp2044
g54
(dp2045
sg63
g2039
sg56
(lp2046
g49
(g50
g51
NtRp2047
(dp2048
g54
(dp2049
g62
I3
ssg63
g2043
sg56
(lp2050
S'99'
p2051
asbasbasbag49
(g65
g51
NtRp2052
(dp2053
g54
(dp2054
sg63
g2023
sg56
(lp2055
g49
(g70
g51
NtRp2056
(dp2057
g54
(dp2058
sg63
g2052
sg56
(lp2059
g49
(g50
g51
NtRp2060
(dp2061
g54
(dp2062
g62
I3
ssg63
g2056
sg56
(lp2063
S'4'
asbasbasbag49
(g65
g51
NtRp2064
(dp2065
g54
(dp2066
sg63
g2023
sg56
(lp2067
g49
(g70
g51
NtRp2068
(dp2069
g54
(dp2070
sg63
g2064
sg56
(lp2071
g49
(g50
g51
NtRp2072
(dp2073
g54
(dp2074
g62
I3
ssg63
g2068
sg56
(lp2075
S'datetime.datetime(2011, 12, 14, 14, 46, 14)'
p2076
asbasbasbag49
(g65
g51
NtRp2077
(dp2078
g54
(dp2079
sg63
g2023
sg56
(lp2080
g49
(g70
g51
NtRp2081
(dp2082
g54
(dp2083
sg63
g2077
sg56
(lp2084
g49
(g50
g51
NtRp2085
(dp2086
g54
(dp2087
g62
I3
ssg63
g2081
sg56
(lp2088
g1478
asbasbasbasbasbasbasbasbasbasbasbag49
(g65
g51
NtRp2089
(dp2090
g54
(dp2091
sg63
g59
sg56
(lp2092
g49
(g70
g51
NtRp2093
(dp2094
g54
(dp2095
g74
g75
ssg63
g2089
sg56
(lp2096
S'is_https'
p2097
asbag49
(g70
g51
NtRp2098
(dp2099
g54
(dp2100
g81
g82
ssg63
g2089
sg56
(lp2101
S':'
asbag49
(g70
g51
NtRp2102
(dp2103
g54
(dp2104
sg63
g2089
sg56
(lp2105
g49
(g50
g51
NtRp2106
(dp2107
g54
(dp2108
g62
I5
ssg63
g2102
sg56
(lp2109
g92
asbasbasbag49
(g65
g51
NtRp2110
(dp2111
g54
(dp2112
sg63
g59
sg56
(lp2113
g49
(g70
g51
NtRp2114
(dp2115
g54
(dp2116
g74
g75
ssg63
g2110
sg56
(lp2117
S'is_local'
p2118
asbag49
(g70
g51
NtRp2119
(dp2120
g54
(dp2121
g81
g82
ssg63
g2110
sg56
(lp2122
S':'
asbag49
(g70
g51
NtRp2123
(dp2124
g54
(dp2125
sg63
g2110
sg56
(lp2126
g49
(g50
g51
NtRp2127
(dp2128
g54
(dp2129
g62
I5
ssg63
g2123
sg56
(lp2130
g1587
asbasbasbag49
(g65
g51
NtRp2131
(dp2132
g54
(dp2133
sg63
g59
sg56
(lp2134
g49
(g70
g51
NtRp2135
(dp2136
g54
(dp2137
g74
g75
ssg63
g2131
sg56
(lp2138
S'is_restful'
p2139
asbag49
(g70
g51
NtRp2140
(dp2141
g54
(dp2142
g81
g82
ssg63
g2131
sg56
(lp2143
S':'
asbag49
(g70
g51
NtRp2144
(dp2145
g54
(dp2146
sg63
g2131
sg56
(lp2147
g49
(g50
g51
NtRp2148
(dp2149
g54
(dp2150
g62
I5
ssg63
g2144
sg56
(lp2151
g92
asbasbasbag49
(g65
g51
NtRp2152
(dp2153
g54
(dp2154
sg63
g59
sg56
(lp2155
g49
(g70
g51
NtRp2156
(dp2157
g54
(dp2158
g74
g75
ssg63
g2152
sg56
(lp2159
S'now'
p2160
asbag49
(g70
g51
NtRp2161
(dp2162
g54
(dp2163
g81
g82
ssg63
g2152
sg56
(lp2164
S':'
asbag49
(g70
g51
NtRp2165
(dp2166
g54
(dp2167
sg63
g2152
sg56
(lp2168
g49
(g50
g51
NtRp2169
(dp2170
g54
(dp2171
g62
I5
ssg63
g2165
sg56
(lp2172
S'datetime.datetime(2012, 1, 24, 13, 54, 52, 953000)'
p2173
asbasbasbag49
(g65
g51
NtRp2174
(dp2175
g54
(dp2176
sg63
g59
sg56
(lp2177
g49
(g70
g51
NtRp2178
(dp2179
g54
(dp2180
g74
g75
ssg63
g2174
sg56
(lp2181
S'post_vars'
p2182
asbag49
(g70
g51
NtRp2183
(dp2184
g54
(dp2185
g81
g82
ssg63
g2174
sg56
(lp2186
S':'
asbag49
(g70
g51
NtRp2187
(dp2188
g54
(dp2189
sg63
g2174
sg56
(lp2190
g49
(g50
g51
NtRp2191
(dp2192
g54
(dp2193
g62
I5
ssg63
g2187
sg56
(lp2194
g49
(g58
g51
NtRp2195
(dp2196
g54
(dp2197
g62
I4
ssg63
Nsg56
(lp2198
sbasbasbasbag49
(g65
g51
NtRp2199
(dp2200
g54
(dp2201
sg63
g59
sg56
(lp2202
g49
(g70
g51
NtRp2203
(dp2204
g54
(dp2205
g74
g75
ssg63
g2199
sg56
(lp2206
S'url'
p2207
asbag49
(g70
g51
NtRp2208
(dp2209
g54
(dp2210
g81
g82
ssg63
g2199
sg56
(lp2211
S':'
asbag49
(g70
g51
NtRp2212
(dp2213
g54
(dp2214
sg63
g2199
sg56
(lp2215
g49
(g50
g51
NtRp2216
(dp2217
g54
(dp2218
g62
I5
ssg63
g2212
sg56
(lp2219
S'/xcpadmin/listvm/index'
p2220
asbasbasbag49
(g65
g51
NtRp2221
(dp2222
g54
(dp2223
sg63
g59
sg56
(lp2224
g49
(g70
g51
NtRp2225
(dp2226
g54
(dp2227
g74
g75
ssg63
g2221
sg56
(lp2228
S'utcnow'
p2229
asbag49
(g70
g51
NtRp2230
(dp2231
g54
(dp2232
g81
g82
ssg63
g2221
sg56
(lp2233
S':'
asbag49
(g70
g51
NtRp2234
(dp2235
g54
(dp2236
sg63
g2221
sg56
(lp2237
g49
(g50
g51
NtRp2238
(dp2239
g54
(dp2240
g62
I5
ssg63
g2234
sg56
(lp2241
S'datetime.datetime(2012, 1, 24, 15, 54, 52, 953000)'
p2242
asbasbasbag49
(g65
g51
NtRp2243
(dp2244
g54
(dp2245
sg63
g59
sg56
(lp2246
g49
(g70
g51
NtRp2247
(dp2248
g54
(dp2249
g74
g75
ssg63
g2243
sg56
(lp2250
S'uuid'
p2251
asbag49
(g70
g51
NtRp2252
(dp2253
g54
(dp2254
g81
g82
ssg63
g2243
sg56
(lp2255
S':'
asbag49
(g70
g51
NtRp2256
(dp2257
g54
(dp2258
sg63
g2243
sg56
(lp2259
g49
(g50
g51
NtRp2260
(dp2261
g54
(dp2262
g62
I5
ssg63
g2256
sg56
(lp2263
S'xcpadmin/127.0.0.1.2012-01-24.13-54-52.368fae5f-86d0-4925-a10a-9ff6e3e53a15'
p2264
asbasbasbag49
(g65
g51
NtRp2265
(dp2266
g54
(dp2267
sg63
g59
sg56
(lp2268
g49
(g70
g51
NtRp2269
(dp2270
g54
(dp2271
g74
g75
ssg63
g2265
sg56
(lp2272
S'vars'
p2273
asbag49
(g70
g51
NtRp2274
(dp2275
g54
(dp2276
g81
g82
ssg63
g2265
sg56
(lp2277
S':'
asbag49
(g70
g51
NtRp2278
(dp2279
g54
(dp2280
sg63
g2265
sg56
(lp2281
g49
(g50
g51
NtRp2282
(dp2283
g54
(dp2284
g62
I5
ssg63
g2278
sg56
(lp2285
g49
(g58
g51
NtRp2286
(dp2287
g54
(dp2288
g62
I4
ssg63
Nsg56
(lp2289
sbasbasbasbag49
(g65
g51
NtRp2290
(dp2291
g54
(dp2292
sg63
g59
sg56
(lp2293
g49
(g70
g51
NtRp2294
(dp2295
g54
(dp2296
g74
g75
ssg63
g2290
sg56
(lp2297
S'wsgi'
p2298
asbag49
(g70
g51
NtRp2299
(dp2300
g54
(dp2301
g81
g82
ssg63
g2290
sg56
(lp2302
S':'
asbag49
(g70
g51
NtRp2303
(dp2304
g54
(dp2305
sg63
g2290
sg56
(lp2306
g49
(g50
g51
NtRp2307
(dp2308
g54
(dp2309
g62
I5
ssg63
g2303
sg56
(lp2310
g49
(g58
g51
NtRp2311
(dp2312
g54
(dp2313
g62
I4
ssg63
Nsg56
(lp2314
g49
(g65
g51
NtRp2315
(dp2316
g54
(dp2317
sg63
g2311
sg56
(lp2318
g49
(g70
g51
NtRp2319
(dp2320
g54
(dp2321
g74
g75
ssg63
g2315
sg56
(lp2322
S'environ'
p2323
asbag49
(g70
g51
NtRp2324
(dp2325
g54
(dp2326
g81
g82
ssg63
g2315
sg56
(lp2327
S':'
asbag49
(g70
g51
NtRp2328
(dp2329
g54
(dp2330
sg63
g2315
sg56
(lp2331
g49
(g50
g51
NtRp2332
(dp2333
g54
(dp2334
g62
I4
ssg63
g2328
sg56
(lp2335
g49
(g58
g51
NtRp2336
(dp2337
g54
(dp2338
g62
I3
ssg63
Nsg56
(lp2339
g49
(g65
g51
NtRp2340
(dp2341
g54
(dp2342
sg63
g2336
sg56
(lp2343
g49
(g70
g51
NtRp2344
(dp2345
g54
(dp2346
g74
g75
ssg63
g2340
sg56
(lp2347
S'HTTP_ACCEPT'
p2348
asbag49
(g70
g51
NtRp2349
(dp2350
g54
(dp2351
g81
g82
ssg63
g2340
sg56
(lp2352
S':'
asbag49
(g70
g51
NtRp2353
(dp2354
g54
(dp2355
sg63
g2340
sg56
(lp2356
g49
(g50
g51
NtRp2357
(dp2358
g54
(dp2359
g62
I3
ssg63
g2353
sg56
(lp2360
g934
asbasbasbag49
(g65
g51
NtRp2361
(dp2362
g54
(dp2363
sg63
g2336
sg56
(lp2364
g49
(g70
g51
NtRp2365
(dp2366
g54
(dp2367
g74
g75
ssg63
g2361
sg56
(lp2368
S'HTTP_ACCEPT_CHARSET'
p2369
asbag49
(g70
g51
NtRp2370
(dp2371
g54
(dp2372
g81
g82
ssg63
g2361
sg56
(lp2373
S':'
asbag49
(g70
g51
NtRp2374
(dp2375
g54
(dp2376
sg63
g2361
sg56
(lp2377
g49
(g50
g51
NtRp2378
(dp2379
g54
(dp2380
g62
I3
ssg63
g2374
sg56
(lp2381
g956
asbasbasbag49
(g65
g51
NtRp2382
(dp2383
g54
(dp2384
sg63
g2336
sg56
(lp2385
g49
(g70
g51
NtRp2386
(dp2387
g54
(dp2388
g74
g75
ssg63
g2382
sg56
(lp2389
S'HTTP_ACCEPT_ENCODING'
p2390
asbag49
(g70
g51
NtRp2391
(dp2392
g54
(dp2393
g81
g82
ssg63
g2382
sg56
(lp2394
S':'
asbag49
(g70
g51
NtRp2395
(dp2396
g54
(dp2397
sg63
g2382
sg56
(lp2398
g49
(g50
g51
NtRp2399
(dp2400
g54
(dp2401
g62
I3
ssg63
g2395
sg56
(lp2402
g978
asbasbasbag49
(g65
g51
NtRp2403
(dp2404
g54
(dp2405
sg63
g2336
sg56
(lp2406
g49
(g70
g51
NtRp2407
(dp2408
g54
(dp2409
g74
g75
ssg63
g2403
sg56
(lp2410
S'HTTP_ACCEPT_LANGUAGE'
p2411
asbag49
(g70
g51
NtRp2412
(dp2413
g54
(dp2414
g81
g82
ssg63
g2403
sg56
(lp2415
S':'
asbag49
(g70
g51
NtRp2416
(dp2417
g54
(dp2418
sg63
g2403
sg56
(lp2419
g49
(g50
g51
NtRp2420
(dp2421
g54
(dp2422
g62
I3
ssg63
g2416
sg56
(lp2423
g1000
asbasbasbag49
(g65
g51
NtRp2424
(dp2425
g54
(dp2426
sg63
g2336
sg56
(lp2427
g49
(g70
g51
NtRp2428
(dp2429
g54
(dp2430
g74
g75
ssg63
g2424
sg56
(lp2431
S'HTTP_CONNECTION'
p2432
asbag49
(g70
g51
NtRp2433
(dp2434
g54
(dp2435
g81
g82
ssg63
g2424
sg56
(lp2436
S':'
asbag49
(g70
g51
NtRp2437
(dp2438
g54
(dp2439
sg63
g2424
sg56
(lp2440
g49
(g50
g51
NtRp2441
(dp2442
g54
(dp2443
g62
I3
ssg63
g2437
sg56
(lp2444
g1022
asbasbasbag49
(g65
g51
NtRp2445
(dp2446
g54
(dp2447
sg63
g2336
sg56
(lp2448
g49
(g70
g51
NtRp2449
(dp2450
g54
(dp2451
g74
g75
ssg63
g2445
sg56
(lp2452
S'HTTP_COOKIE'
p2453
asbag49
(g70
g51
NtRp2454
(dp2455
g54
(dp2456
g81
g82
ssg63
g2445
sg56
(lp2457
S':'
asbag49
(g70
g51
NtRp2458
(dp2459
g54
(dp2460
sg63
g2445
sg56
(lp2461
g49
(g50
g51
NtRp2462
(dp2463
g54
(dp2464
g62
I3
ssg63
g2458
sg56
(lp2465
g1044
asbasbasbag49
(g65
g51
NtRp2466
(dp2467
g54
(dp2468
sg63
g2336
sg56
(lp2469
g49
(g70
g51
NtRp2470
(dp2471
g54
(dp2472
g74
g75
ssg63
g2466
sg56
(lp2473
S'HTTP_HOST'
p2474
asbag49
(g70
g51
NtRp2475
(dp2476
g54
(dp2477
g81
g82
ssg63
g2466
sg56
(lp2478
S':'
asbag49
(g70
g51
NtRp2479
(dp2480
g54
(dp2481
sg63
g2466
sg56
(lp2482
g49
(g50
g51
NtRp2483
(dp2484
g54
(dp2485
g62
I3
ssg63
g2479
sg56
(lp2486
g1066
asbasbasbag49
(g65
g51
NtRp2487
(dp2488
g54
(dp2489
sg63
g2336
sg56
(lp2490
g49
(g70
g51
NtRp2491
(dp2492
g54
(dp2493
g74
g75
ssg63
g2487
sg56
(lp2494
S'HTTP_USER_AGENT'
p2495
asbag49
(g70
g51
NtRp2496
(dp2497
g54
(dp2498
g81
g82
ssg63
g2487
sg56
(lp2499
S':'
asbag49
(g70
g51
NtRp2500
(dp2501
g54
(dp2502
sg63
g2487
sg56
(lp2503
g49
(g50
g51
NtRp2504
(dp2505
g54
(dp2506
g62
I3
ssg63
g2500
sg56
(lp2507
g1088
asbasbasbag49
(g65
g51
NtRp2508
(dp2509
g54
(dp2510
sg63
g2336
sg56
(lp2511
g49
(g70
g51
NtRp2512
(dp2513
g54
(dp2514
g74
g75
ssg63
g2508
sg56
(lp2515
S'PATH_INFO'
p2516
asbag49
(g70
g51
NtRp2517
(dp2518
g54
(dp2519
g81
g82
ssg63
g2508
sg56
(lp2520
S':'
asbag49
(g70
g51
NtRp2521
(dp2522
g54
(dp2523
sg63
g2508
sg56
(lp2524
g49
(g50
g51
NtRp2525
(dp2526
g54
(dp2527
g62
I3
ssg63
g2521
sg56
(lp2528
g1152
asbasbasbag49
(g65
g51
NtRp2529
(dp2530
g54
(dp2531
sg63
g2336
sg56
(lp2532
g49
(g70
g51
NtRp2533
(dp2534
g54
(dp2535
g74
g75
ssg63
g2529
sg56
(lp2536
S'QUERY_STRING'
p2537
asbag49
(g70
g51
NtRp2538
(dp2539
g54
(dp2540
g81
g82
ssg63
g2529
sg56
(lp2541
S':'
asbag49
(g70
g51
NtRp2542
(dp2543
g54
(dp2544
sg63
g2529
sg56
(lp2545
g49
(g50
g51
NtRp2546
(dp2547
g54
(dp2548
g62
I3
ssg63
g2542
sg56
(lp2549
S''
asbasbasbag49
(g65
g51
NtRp2550
(dp2551
g54
(dp2552
sg63
g2336
sg56
(lp2553
g49
(g70
g51
NtRp2554
(dp2555
g54
(dp2556
g74
g75
ssg63
g2550
sg56
(lp2557
S'REMOTE_ADDR'
p2558
asbag49
(g70
g51
NtRp2559
(dp2560
g54
(dp2561
g81
g82
ssg63
g2550
sg56
(lp2562
S':'
asbag49
(g70
g51
NtRp2563
(dp2564
g54
(dp2565
sg63
g2550
sg56
(lp2566
g49
(g50
g51
NtRp2567
(dp2568
g54
(dp2569
g62
I3
ssg63
g2563
sg56
(lp2570
g182
asbasbasbag49
(g65
g51
NtRp2571
(dp2572
g54
(dp2573
sg63
g2336
sg56
(lp2574
g49
(g70
g51
NtRp2575
(dp2576
g54
(dp2577
g74
g75
ssg63
g2571
sg56
(lp2578
S'REMOTE_PORT'
p2579
asbag49
(g70
g51
NtRp2580
(dp2581
g54
(dp2582
g81
g82
ssg63
g2571
sg56
(lp2583
S':'
asbag49
(g70
g51
NtRp2584
(dp2585
g54
(dp2586
sg63
g2571
sg56
(lp2587
g49
(g50
g51
NtRp2588
(dp2589
g54
(dp2590
g62
I3
ssg63
g2584
sg56
(lp2591
g1216
asbasbasbag49
(g65
g51
NtRp2592
(dp2593
g54
(dp2594
sg63
g2336
sg56
(lp2595
g49
(g70
g51
NtRp2596
(dp2597
g54
(dp2598
g74
g75
ssg63
g2592
sg56
(lp2599
S'REQUEST_METHOD'
p2600
asbag49
(g70
g51
NtRp2601
(dp2602
g54
(dp2603
g81
g82
ssg63
g2592
sg56
(lp2604
S':'
asbag49
(g70
g51
NtRp2605
(dp2606
g54
(dp2607
sg63
g2592
sg56
(lp2608
g49
(g50
g51
NtRp2609
(dp2610
g54
(dp2611
g62
I3
ssg63
g2605
sg56
(lp2612
g1238
asbasbasbag49
(g65
g51
NtRp2613
(dp2614
g54
(dp2615
sg63
g2336
sg56
(lp2616
g49
(g70
g51
NtRp2617
(dp2618
g54
(dp2619
g74
g75
ssg63
g2613
sg56
(lp2620
S'SCRIPT_NAME'
p2621
asbag49
(g70
g51
NtRp2622
(dp2623
g54
(dp2624
g81
g82
ssg63
g2613
sg56
(lp2625
S':'
asbag49
(g70
g51
NtRp2626
(dp2627
g54
(dp2628
sg63
g2613
sg56
(lp2629
g49
(g50
g51
NtRp2630
(dp2631
g54
(dp2632
g62
I3
ssg63
g2626
sg56
(lp2633
S''
asbasbasbag49
(g65
g51
NtRp2634
(dp2635
g54
(dp2636
sg63
g2336
sg56
(lp2637
g49
(g70
g51
NtRp2638
(dp2639
g54
(dp2640
g74
g75
ssg63
g2634
sg56
(lp2641
S'SERVER_NAME'
p2642
asbag49
(g70
g51
NtRp2643
(dp2644
g54
(dp2645
g81
g82
ssg63
g2634
sg56
(lp2646
S':'
asbag49
(g70
g51
NtRp2647
(dp2648
g54
(dp2649
sg63
g2634
sg56
(lp2650
g49
(g50
g51
NtRp2651
(dp2652
g54
(dp2653
g62
I3
ssg63
g2647
sg56
(lp2654
g1281
asbasbasbag49
(g65
g51
NtRp2655
(dp2656
g54
(dp2657
sg63
g2336
sg56
(lp2658
g49
(g70
g51
NtRp2659
(dp2660
g54
(dp2661
g74
g75
ssg63
g2655
sg56
(lp2662
S'SERVER_PORT'
p2663
asbag49
(g70
g51
NtRp2664
(dp2665
g54
(dp2666
g81
g82
ssg63
g2655
sg56
(lp2667
S':'
asbag49
(g70
g51
NtRp2668
(dp2669
g54
(dp2670
sg63
g2655
sg56
(lp2671
g49
(g50
g51
NtRp2672
(dp2673
g54
(dp2674
g62
I3
ssg63
g2668
sg56
(lp2675
g1303
asbasbasbag49
(g65
g51
NtRp2676
(dp2677
g54
(dp2678
sg63
g2336
sg56
(lp2679
g49
(g70
g51
NtRp2680
(dp2681
g54
(dp2682
g74
g75
ssg63
g2676
sg56
(lp2683
S'SERVER_PROTOCOL'
p2684
asbag49
(g70
g51
NtRp2685
(dp2686
g54
(dp2687
g81
g82
ssg63
g2676
sg56
(lp2688
S':'
asbag49
(g70
g51
NtRp2689
(dp2690
g54
(dp2691
sg63
g2676
sg56
(lp2692
g49
(g50
g51
NtRp2693
(dp2694
g54
(dp2695
g62
I3
ssg63
g2689
sg56
(lp2696
g1325
asbasbasbag49
(g65
g51
NtRp2697
(dp2698
g54
(dp2699
sg63
g2336
sg56
(lp2700
g49
(g70
g51
NtRp2701
(dp2702
g54
(dp2703
g74
g75
ssg63
g2697
sg56
(lp2704
S'SERVER_SOFTWARE'
p2705
asbag49
(g70
g51
NtRp2706
(dp2707
g54
(dp2708
g81
g82
ssg63
g2697
sg56
(lp2709
S':'
asbag49
(g70
g51
NtRp2710
(dp2711
g54
(dp2712
sg63
g2697
sg56
(lp2713
g49
(g50
g51
NtRp2714
(dp2715
g54
(dp2716
g62
I3
ssg63
g2710
sg56
(lp2717
g1347
asbasbasbag49
(g65
g51
NtRp2718
(dp2719
g54
(dp2720
sg63
g2336
sg56
(lp2721
g49
(g70
g51
NtRp2722
(dp2723
g54
(dp2724
g74
g75
ssg63
g2718
sg56
(lp2725
S'wsgi.errors'
p2726
asbag49
(g70
g51
NtRp2727
(dp2728
g54
(dp2729
g81
g82
ssg63
g2718
sg56
(lp2730
S':'
asbag49
(g70
g51
NtRp2731
(dp2732
g54
(dp2733
sg63
g2718
sg56
(lp2734
g49
(g50
g51
NtRp2735
(dp2736
g54
(dp2737
g62
I3
ssg63
g2731
sg56
(lp2738
S'<__main__.Stderr object at 0x0124A670>'
p2739
asbasbasbag49
(g65
g51
NtRp2740
(dp2741
g54
(dp2742
sg63
g2336
sg56
(lp2743
g49
(g70
g51
NtRp2744
(dp2745
g54
(dp2746
g74
g75
ssg63
g2740
sg56
(lp2747
S'wsgi.file_wrapper'
p2748
asbag49
(g70
g51
NtRp2749
(dp2750
g54
(dp2751
g81
g82
ssg63
g2740
sg56
(lp2752
S':'
asbag49
(g70
g51
NtRp2753
(dp2754
g54
(dp2755
sg63
g2740
sg56
(lp2756
g49
(g50
g51
NtRp2757
(dp2758
g54
(dp2759
g62
I3
ssg63
g2753
sg56
(lp2760
S'<class wsgiref.util.FileWrapper at 0x01BDBBA0>'
p2761
asbasbasbag49
(g65
g51
NtRp2762
(dp2763
g54
(dp2764
sg63
g2336
sg56
(lp2765
g49
(g70
g51
NtRp2766
(dp2767
g54
(dp2768
g74
g75
ssg63
g2762
sg56
(lp2769
S'wsgi.input'
p2770
asbag49
(g70
g51
NtRp2771
(dp2772
g54
(dp2773
g81
g82
ssg63
g2762
sg56
(lp2774
S':'
asbag49
(g70
g51
NtRp2775
(dp2776
g54
(dp2777
sg63
g2762
sg56
(lp2778
g49
(g50
g51
NtRp2779
(dp2780
g54
(dp2781
g62
I3
ssg63
g2775
sg56
(lp2782
S'<cStringIO.StringO object at 0x05E70D00>'
p2783
asbasbasbag49
(g65
g51
NtRp2784
(dp2785
g54
(dp2786
sg63
g2336
sg56
(lp2787
g49
(g70
g51
NtRp2788
(dp2789
g54
(dp2790
g74
g75
ssg63
g2784
sg56
(lp2791
S'wsgi.multiprocess'
p2792
asbag49
(g70
g51
NtRp2793
(dp2794
g54
(dp2795
g81
g82
ssg63
g2784
sg56
(lp2796
S':'
asbag49
(g70
g51
NtRp2797
(dp2798
g54
(dp2799
sg63
g2784
sg56
(lp2800
g49
(g50
g51
NtRp2801
(dp2802
g54
(dp2803
g62
I3
ssg63
g2797
sg56
(lp2804
g92
asbasbasbag49
(g65
g51
NtRp2805
(dp2806
g54
(dp2807
sg63
g2336
sg56
(lp2808
g49
(g70
g51
NtRp2809
(dp2810
g54
(dp2811
g74
g75
ssg63
g2805
sg56
(lp2812
S'wsgi.multithread'
p2813
asbag49
(g70
g51
NtRp2814
(dp2815
g54
(dp2816
g81
g82
ssg63
g2805
sg56
(lp2817
S':'
asbag49
(g70
g51
NtRp2818
(dp2819
g54
(dp2820
sg63
g2805
sg56
(lp2821
g49
(g50
g51
NtRp2822
(dp2823
g54
(dp2824
g62
I3
ssg63
g2818
sg56
(lp2825
g1587
asbasbasbag49
(g65
g51
NtRp2826
(dp2827
g54
(dp2828
sg63
g2336
sg56
(lp2829
g49
(g70
g51
NtRp2830
(dp2831
g54
(dp2832
g74
g75
ssg63
g2826
sg56
(lp2833
S'wsgi.run_once'
p2834
asbag49
(g70
g51
NtRp2835
(dp2836
g54
(dp2837
g81
g82
ssg63
g2826
sg56
(lp2838
S':'
asbag49
(g70
g51
NtRp2839
(dp2840
g54
(dp2841
sg63
g2826
sg56
(lp2842
g49
(g50
g51
NtRp2843
(dp2844
g54
(dp2845
g62
I3
ssg63
g2839
sg56
(lp2846
g92
asbasbasbag49
(g65
g51
NtRp2847
(dp2848
g54
(dp2849
sg63
g2336
sg56
(lp2850
g49
(g70
g51
NtRp2851
(dp2852
g54
(dp2853
g74
g75
ssg63
g2847
sg56
(lp2854
S'wsgi.url_scheme'
p2855
asbag49
(g70
g51
NtRp2856
(dp2857
g54
(dp2858
g81
g82
ssg63
g2847
sg56
(lp2859
S':'
asbag49
(g70
g51
NtRp2860
(dp2861
g54
(dp2862
sg63
g2847
sg56
(lp2863
g49
(g50
g51
NtRp2864
(dp2865
g54
(dp2866
g62
I3
ssg63
g2860
sg56
(lp2867
g1630
asbasbasbag49
(g65
g51
NtRp2868
(dp2869
g54
(dp2870
sg63
g2336
sg56
(lp2871
g49
(g70
g51
NtRp2872
(dp2873
g54
(dp2874
g74
g75
ssg63
g2868
sg56
(lp2875
S'wsgi.version'
p2876
asbag49
(g70
g51
NtRp2877
(dp2878
g54
(dp2879
g81
g82
ssg63
g2868
sg56
(lp2880
S':'
asbag49
(g70
g51
NtRp2881
(dp2882
g54
(dp2883
sg63
g2868
sg56
(lp2884
g49
(g50
g51
NtRp2885
(dp2886
g54
(dp2887
g62
I3
ssg63
g2881
sg56
(lp2888
S'1'
asbasbasbasbasbasbasbasbasbasbasbasbasbsS'frames'
p2889
(lp2890
(dp2891
S'file'
p2892
S'C:\\Users\\nilton\\Desktop\\scripts\\curso_de_python\\web2py\\gluon\\restricted.py'
p2893
sS'dump'
p2894
(dp2895
sS'lnum'
p2896
I204
sS'lines'
p2897
(dp2898
sS'call'
p2899
S'(code=r"response.write(\'<!DOCTYPE html>\\n<!-- paulirish....ponse.write(\'\\n</body>\\n</html>\\n\', escape=False)", environment={\'A\': <class \'gluon.html.A\'>, \'Auth\': <class \'gluon.tools.Auth\'>, \'B\': <class \'gluon.html.B\'>, \'BEAUTIFY\': <class \'gluon.html.BEAUTIFY\'>, \'BODY\': <class \'gluon.html.BODY\'>, \'BR\': <class \'gluon.html.BR\'>, \'BUTTON\': <class \'gluon.html.BUTTON\'>, \'CAT\': <class \'gluon.html.CAT\'>, \'CENTER\': <class \'gluon.html.CENTER\'>, \'CLEANUP\': <class \'gluon.validators.CLEANUP\'>, ...}, layer=r\'C:\\Users\\nilton\\Desktop\\scripts\\curso_de_python\\web2py\\applications\\xcpadmin\\views\\listvm/index.html\')'
p2900
sS'func'
p2901
S'restricted'
p2902
sa(dp2903
g2892
S'C:\\Users\\nilton\\Desktop\\scripts\\curso_de_python\\web2py\\applications\\xcpadmin\\views\\listvm\\index.html'
p2904
sg2894
(dp2905
sg2896
I78
sg2897
(dp2906
I69
S"    response.write('\\n        </div>\\n        ', escape=False)"
p2907
sI70
S'    pass'
p2908
sI71
S'response.write(\'\\n        \\n        <div class="\', escape=False)'
p2909
sI72
S'response.write(middle_columns)'
p2910
sI73
S'response.write(\' columns center">\\n          \', escape=False)'
p2911
sI74
S"response.write('\\n          ', escape=False)"
p2912
sI75
S"response.write('\\r\\n\\r\\n\\r\\n<h3>POOL SERVER</h3>\\r\\n', escape=False)"
p2913
sI76
S'for row in table:'
p2914
sI77
S"    response.write('\\r\\n', escape=False)"
p2915
sI78
S'    if (table[row]["is_control_domain"]):'
p2916
sI79
S"        response.write('\\r\\n', escape=False)"
p2917
sI80
S'        response.write(TABLE(TR(table[row]["name_label"])))'
p2918
sI81
S"        response.write('\\r\\n', escape=False)"
p2919
sI82
S'        pass'
p2920
sI83
S"    response.write('\\r\\n', escape=False)"
p2921
sI84
S'    pass'
p2922
sI85
S"response.write('\\r\\n\\r\\n\\r\\n\\r\\n<h3>VMs</h3>\\r\\n\\r\\n', escape=False)"
p2923
sI86
S'for row in table:'
p2924
sI87
S"    response.write('\\r\\n\\r\\n', escape=False)"
p2925
sI88
S'    if not(table[row]["is_a_template"]) and not(table[row]["is_control_domain"]):'
p2926
ssg2899
S'()'
p2927
sg2901
S'<module>'
p2928
sasS'pyver'
p2929
S'Python 2.5.4: C:\\Users\\nilton\\Desktop\\scripts\\curso_de_python\\web2py\\web2py_no_console.exe'
p2930
sS'session'
p2931
g49
(g50
g51
NtRp2932
(dp2933
g54
(dp2934
sg56
(lp2935
g49
(g58
g51
NtRp2936
(dp2937
g54
(dp2938
g62
I5
ssg63
Nsg56
(lp2939
sbasbsS'etype'
p2940
S"<type 'exceptions.TypeError'>"
p2941
sS'date'
p2942
S'Tue Jan 24 13:54:54 2012'
p2943
sS'response'
p2944
g49
(g50
g51
NtRp2945
(dp2946
g54
(dp2947
sg56
(lp2948
g49
(g58
g51
NtRp2949
(dp2950
g54
(dp2951
g62
I5
ssg63
Nsg56
(lp2952
g49
(g65
g51
NtRp2953
(dp2954
g54
(dp2955
sg63
g2949
sg56
(lp2956
g49
(g70
g51
NtRp2957
(dp2958
g54
(dp2959
g74
g75
ssg63
g2953
sg56
(lp2960
g147
asbag49
(g70
g51
NtRp2961
(dp2962
g54
(dp2963
g81
g82
ssg63
g2953
sg56
(lp2964
S':'
asbag49
(g70
g51
NtRp2965
(dp2966
g54
(dp2967
sg63
g2953
sg56
(lp2968
g49
(g50
g51
NtRp2969
(dp2970
g54
(dp2971
g62
I5
ssg63
g2965
sg56
(lp2972
S'<cStringIO.StringO object at 0x067B63A0>'
p2973
asbasbasbag49
(g65
g51
NtRp2974
(dp2975
g54
(dp2976
sg63
g2949
sg56
(lp2977
g49
(g70
g51
NtRp2978
(dp2979
g54
(dp2980
g74
g75
ssg63
g2974
sg56
(lp2981
g213
asbag49
(g70
g51
NtRp2982
(dp2983
g54
(dp2984
g81
g82
ssg63
g2974
sg56
(lp2985
S':'
asbag49
(g70
g51
NtRp2986
(dp2987
g54
(dp2988
sg63
g2974
sg56
(lp2989
g49
(g50
g51
NtRp2990
(dp2991
g54
(dp2992
g62
I5
ssg63
g2986
sg56
(lp2993
g49
(g58
g51
NtRp2994
(dp2995
g54
(dp2996
g62
I4
ssg63
Nsg56
(lp2997
g49
(g65
g51
NtRp2998
(dp2999
g54
(dp3000
sg63
g2994
sg56
(lp3001
g49
(g70
g51
NtRp3002
(dp3003
g54
(dp3004
g74
g75
ssg63
g2998
sg56
(lp3005
S'session_id_xcpadmin'
p3006
asbag49
(g70
g51
NtRp3007
(dp3008
g54
(dp3009
g81
g82
ssg63
g2998
sg56
(lp3010
S':'
asbag49
(g70
g51
NtRp3011
(dp3012
g54
(dp3013
sg63
g2998
sg56
(lp3014
g49
(g50
g51
NtRp3015
(dp3016
g54
(dp3017
g62
I4
ssg63
g3011
sg56
(lp3018
g49
(g58
g51
NtRp3019
(dp3020
g54
(dp3021
g62
I3
ssg63
Nsg56
(lp3022
g49
(g65
g51
NtRp3023
(dp3024
g54
(dp3025
sg63
g3019
sg56
(lp3026
g49
(g70
g51
NtRp3027
(dp3028
g54
(dp3029
g74
g75
ssg63
g3023
sg56
(lp3030
g263
asbag49
(g70
g51
NtRp3031
(dp3032
g54
(dp3033
g81
g82
ssg63
g3023
sg56
(lp3034
S':'
asbag49
(g70
g51
NtRp3035
(dp3036
g54
(dp3037
sg63
g3023
sg56
(lp3038
g49
(g50
g51
NtRp3039
(dp3040
g54
(dp3041
g62
I3
ssg63
g3035
sg56
(lp3042
S''
asbasbasbag49
(g65
g51
NtRp3043
(dp3044
g54
(dp3045
sg63
g3019
sg56
(lp3046
g49
(g70
g51
NtRp3047
(dp3048
g54
(dp3049
g74
g75
ssg63
g3043
sg56
(lp3050
g284
asbag49
(g70
g51
NtRp3051
(dp3052
g54
(dp3053
g81
g82
ssg63
g3043
sg56
(lp3054
S':'
asbag49
(g70
g51
NtRp3055
(dp3056
g54
(dp3057
sg63
g3043
sg56
(lp3058
g49
(g50
g51
NtRp3059
(dp3060
g54
(dp3061
g62
I3
ssg63
g3055
sg56
(lp3062
S''
asbasbasbag49
(g65
g51
NtRp3063
(dp3064
g54
(dp3065
sg63
g3019
sg56
(lp3066
g49
(g70
g51
NtRp3067
(dp3068
g54
(dp3069
g74
g75
ssg63
g3063
sg56
(lp3070
g305
asbag49
(g70
g51
NtRp3071
(dp3072
g54
(dp3073
g81
g82
ssg63
g3063
sg56
(lp3074
S':'
asbag49
(g70
g51
NtRp3075
(dp3076
g54
(dp3077
sg63
g3063
sg56
(lp3078
g49
(g50
g51
NtRp3079
(dp3080
g54
(dp3081
g62
I3
ssg63
g3075
sg56
(lp3082
S''
asbasbasbag49
(g65
g51
NtRp3083
(dp3084
g54
(dp3085
sg63
g3019
sg56
(lp3086
g49
(g70
g51
NtRp3087
(dp3088
g54
(dp3089
g74
g75
ssg63
g3083
sg56
(lp3090
g326
asbag49
(g70
g51
NtRp3091
(dp3092
g54
(dp3093
g81
g82
ssg63
g3083
sg56
(lp3094
S':'
asbag49
(g70
g51
NtRp3095
(dp3096
g54
(dp3097
sg63
g3083
sg56
(lp3098
g49
(g50
g51
NtRp3099
(dp3100
g54
(dp3101
g62
I3
ssg63
g3095
sg56
(lp3102
S''
asbasbasbag49
(g65
g51
NtRp3103
(dp3104
g54
(dp3105
sg63
g3019
sg56
(lp3106
g49
(g70
g51
NtRp3107
(dp3108
g54
(dp3109
g74
g75
ssg63
g3103
sg56
(lp3110
g347
asbag49
(g70
g51
NtRp3111
(dp3112
g54
(dp3113
g81
g82
ssg63
g3103
sg56
(lp3114
S':'
asbag49
(g70
g51
NtRp3115
(dp3116
g54
(dp3117
sg63
g3103
sg56
(lp3118
g49
(g50
g51
NtRp3119
(dp3120
g54
(dp3121
g62
I3
ssg63
g3115
sg56
(lp3122
S'/'
asbasbasbag49
(g65
g51
NtRp3123
(dp3124
g54
(dp3125
sg63
g3019
sg56
(lp3126
g49
(g70
g51
NtRp3127
(dp3128
g54
(dp3129
g74
g75
ssg63
g3123
sg56
(lp3130
g368
asbag49
(g70
g51
NtRp3131
(dp3132
g54
(dp3133
g81
g82
ssg63
g3123
sg56
(lp3134
S':'
asbag49
(g70
g51
NtRp3135
(dp3136
g54
(dp3137
sg63
g3123
sg56
(lp3138
g49
(g50
g51
NtRp3139
(dp3140
g54
(dp3141
g62
I3
ssg63
g3135
sg56
(lp3142
S''
asbasbasbag49
(g65
g51
NtRp3143
(dp3144
g54
(dp3145
sg63
g3019
sg56
(lp3146
g49
(g70
g51
NtRp3147
(dp3148
g54
(dp3149
g74
g75
ssg63
g3143
sg56
(lp3150
g389
asbag49
(g70
g51
NtRp3151
(dp3152
g54
(dp3153
g81
g82
ssg63
g3143
sg56
(lp3154
S':'
asbag49
(g70
g51
NtRp3155
(dp3156
g54
(dp3157
sg63
g3143
sg56
(lp3158
g49
(g50
g51
NtRp3159
(dp3160
g54
(dp3161
g62
I3
ssg63
g3155
sg56
(lp3162
S''
asbasbasbasbasbasbasbasbasbasbasbag49
(g65
g51
NtRp3163
(dp3164
g54
(dp3165
sg63
g2949
sg56
(lp3166
g49
(g70
g51
NtRp3167
(dp3168
g54
(dp3169
g74
g75
ssg63
g3163
sg56
(lp3170
S'files'
p3171
asbag49
(g70
g51
NtRp3172
(dp3173
g54
(dp3174
g81
g82
ssg63
g3163
sg56
(lp3175
S':'
asbag49
(g70
g51
NtRp3176
(dp3177
g54
(dp3178
sg63
g3163
sg56
(lp3179
g49
(g50
g51
NtRp3180
(dp3181
g54
(dp3182
g62
I5
ssg63
g3176
sg56
(lp3183
g49
(g58
g51
NtRp3184
(dp3185
g54
(dp3186
g62
I4
ssg63
Nsg56
(lp3187
g49
(g65
g51
NtRp3188
(dp3189
g54
(dp3190
sg63
g3184
sg56
(lp3191
g49
(g70
g51
NtRp3192
(dp3193
g54
(dp3194
sg63
g3188
sg56
(lp3195
g49
(g50
g51
NtRp3196
(dp3197
g54
(dp3198
g62
I4
ssg63
g3192
sg56
(lp3199
S'/xcpadmin/static/js/jquery.js'
p3200
asbasbasbag49
(g65
g51
NtRp3201
(dp3202
g54
(dp3203
sg63
g3184
sg56
(lp3204
g49
(g70
g51
NtRp3205
(dp3206
g54
(dp3207
sg63
g3201
sg56
(lp3208
g49
(g50
g51
NtRp3209
(dp3210
g54
(dp3211
g62
I4
ssg63
g3205
sg56
(lp3212
S'/xcpadmin/static/css/calendar.css'
p3213
asbasbasbag49
(g65
g51
NtRp3214
(dp3215
g54
(dp3216
sg63
g3184
sg56
(lp3217
g49
(g70
g51
NtRp3218
(dp3219
g54
(dp3220
sg63
g3214
sg56
(lp3221
g49
(g50
g51
NtRp3222
(dp3223
g54
(dp3224
g62
I4
ssg63
g3218
sg56
(lp3225
S'/xcpadmin/static/js/calendar.js'
p3226
asbasbasbag49
(g65
g51
NtRp3227
(dp3228
g54
(dp3229
sg63
g3184
sg56
(lp3230
g49
(g70
g51
NtRp3231
(dp3232
g54
(dp3233
sg63
g3227
sg56
(lp3234
g49
(g50
g51
NtRp3235
(dp3236
g54
(dp3237
g62
I4
ssg63
g3231
sg56
(lp3238
S'/xcpadmin/static/js/web2py.js'
p3239
asbasbasbag49
(g65
g51
NtRp3240
(dp3241
g54
(dp3242
sg63
g3184
sg56
(lp3243
g49
(g70
g51
NtRp3244
(dp3245
g54
(dp3246
sg63
g3240
sg56
(lp3247
g49
(g50
g51
NtRp3248
(dp3249
g54
(dp3250
g62
I4
ssg63
g3244
sg56
(lp3251
S'/xcpadmin/static/css/skeleton.css'
p3252
asbasbasbag49
(g65
g51
NtRp3253
(dp3254
g54
(dp3255
sg63
g3184
sg56
(lp3256
g49
(g70
g51
NtRp3257
(dp3258
g54
(dp3259
sg63
g3253
sg56
(lp3260
g49
(g50
g51
NtRp3261
(dp3262
g54
(dp3263
g62
I4
ssg63
g3257
sg56
(lp3264
S'/xcpadmin/static/css/web2py.css'
p3265
asbasbasbag49
(g65
g51
NtRp3266
(dp3267
g54
(dp3268
sg63
g3184
sg56
(lp3269
g49
(g70
g51
NtRp3270
(dp3271
g54
(dp3272
sg63
g3266
sg56
(lp3273
g49
(g50
g51
NtRp3274
(dp3275
g54
(dp3276
g62
I4
ssg63
g3270
sg56
(lp3277
S'/xcpadmin/static/css/superfish.css'
p3278
asbasbasbag49
(g65
g51
NtRp3279
(dp3280
g54
(dp3281
sg63
g3184
sg56
(lp3282
g49
(g70
g51
NtRp3283
(dp3284
g54
(dp3285
sg63
g3279
sg56
(lp3286
g49
(g50
g51
NtRp3287
(dp3288
g54
(dp3289
g62
I4
ssg63
g3283
sg56
(lp3290
S'/xcpadmin/static/js/superfish.js'
p3291
asbasbasbasbasbasbasbag49
(g65
g51
NtRp3292
(dp3293
g54
(dp3294
sg63
g2949
sg56
(lp3295
g49
(g70
g51
NtRp3296
(dp3297
g54
(dp3298
g74
g75
ssg63
g3292
sg56
(lp3299
S'flash'
p3300
asbag49
(g70
g51
NtRp3301
(dp3302
g54
(dp3303
g81
g82
ssg63
g3292
sg56
(lp3304
S':'
asbag49
(g70
g51
NtRp3305
(dp3306
g54
(dp3307
sg63
g3292
sg56
(lp3308
g49
(g50
g51
NtRp3309
(dp3310
g54
(dp3311
g62
I5
ssg63
g3305
sg56
(lp3312
S''
asbasbasbag49
(g65
g51
NtRp3313
(dp3314
g54
(dp3315
sg63
g2949
sg56
(lp3316
g49
(g70
g51
NtRp3317
(dp3318
g54
(dp3319
g74
g75
ssg63
g3313
sg56
(lp3320
S'generic_patterns'
p3321
asbag49
(g70
g51
NtRp3322
(dp3323
g54
(dp3324
g81
g82
ssg63
g3313
sg56
(lp3325
S':'
asbag49
(g70
g51
NtRp3326
(dp3327
g54
(dp3328
sg63
g3313
sg56
(lp3329
g49
(g50
g51
NtRp3330
(dp3331
g54
(dp3332
g62
I5
ssg63
g3326
sg56
(lp3333
g49
(g58
g51
NtRp3334
(dp3335
g54
(dp3336
g62
I4
ssg63
Nsg56
(lp3337
g49
(g65
g51
NtRp3338
(dp3339
g54
(dp3340
sg63
g3334
sg56
(lp3341
g49
(g70
g51
NtRp3342
(dp3343
g54
(dp3344
sg63
g3338
sg56
(lp3345
g49
(g50
g51
NtRp3346
(dp3347
g54
(dp3348
g62
I4
ssg63
g3342
sg56
(lp3349
S'*'
asbasbasbasbasbasbasbag49
(g65
g51
NtRp3350
(dp3351
g54
(dp3352
sg63
g2949
sg56
(lp3353
g49
(g70
g51
NtRp3354
(dp3355
g54
(dp3356
g74
g75
ssg63
g3350
sg56
(lp3357
S'headers'
p3358
asbag49
(g70
g51
NtRp3359
(dp3360
g54
(dp3361
g81
g82
ssg63
g3350
sg56
(lp3362
S':'
asbag49
(g70
g51
NtRp3363
(dp3364
g54
(dp3365
sg63
g3350
sg56
(lp3366
g49
(g50
g51
NtRp3367
(dp3368
g54
(dp3369
g62
I5
ssg63
g3363
sg56
(lp3370
g49
(g58
g51
NtRp3371
(dp3372
g54
(dp3373
g62
I4
ssg63
Nsg56
(lp3374
g49
(g65
g51
NtRp3375
(dp3376
g54
(dp3377
sg63
g3371
sg56
(lp3378
g49
(g70
g51
NtRp3379
(dp3380
g54
(dp3381
g74
g75
ssg63
g3375
sg56
(lp3382
S'Cache-Control'
p3383
asbag49
(g70
g51
NtRp3384
(dp3385
g54
(dp3386
g81
g82
ssg63
g3375
sg56
(lp3387
S':'
asbag49
(g70
g51
NtRp3388
(dp3389
g54
(dp3390
sg63
g3375
sg56
(lp3391
g49
(g50
g51
NtRp3392
(dp3393
g54
(dp3394
g62
I4
ssg63
g3388
sg56
(lp3395
S'no-store, no-cache, must-revalidate, post-check=0, pre-check=0'
p3396
asbasbasbag49
(g65
g51
NtRp3397
(dp3398
g54
(dp3399
sg63
g3371
sg56
(lp3400
g49
(g70
g51
NtRp3401
(dp3402
g54
(dp3403
g74
g75
ssg63
g3397
sg56
(lp3404
S'Content-Type'
p3405
asbag49
(g70
g51
NtRp3406
(dp3407
g54
(dp3408
g81
g82
ssg63
g3397
sg56
(lp3409
S':'
asbag49
(g70
g51
NtRp3410
(dp3411
g54
(dp3412
sg63
g3397
sg56
(lp3413
g49
(g50
g51
NtRp3414
(dp3415
g54
(dp3416
g62
I4
ssg63
g3410
sg56
(lp3417
S'text/html; charset=utf-8'
p3418
asbasbasbag49
(g65
g51
NtRp3419
(dp3420
g54
(dp3421
sg63
g3371
sg56
(lp3422
g49
(g70
g51
NtRp3423
(dp3424
g54
(dp3425
g74
g75
ssg63
g3419
sg56
(lp3426
S'Expires'
p3427
asbag49
(g70
g51
NtRp3428
(dp3429
g54
(dp3430
g81
g82
ssg63
g3419
sg56
(lp3431
S':'
asbag49
(g70
g51
NtRp3432
(dp3433
g54
(dp3434
sg63
g3419
sg56
(lp3435
g49
(g50
g51
NtRp3436
(dp3437
g54
(dp3438
g62
I4
ssg63
g3432
sg56
(lp3439
S'Tue, 24 Jan 2012 15:54:52 GMT'
p3440
asbasbasbag49
(g65
g51
NtRp3441
(dp3442
g54
(dp3443
sg63
g3371
sg56
(lp3444
g49
(g70
g51
NtRp3445
(dp3446
g54
(dp3447
g74
g75
ssg63
g3441
sg56
(lp3448
S'Pragma'
p3449
asbag49
(g70
g51
NtRp3450
(dp3451
g54
(dp3452
g81
g82
ssg63
g3441
sg56
(lp3453
S':'
asbag49
(g70
g51
NtRp3454
(dp3455
g54
(dp3456
sg63
g3441
sg56
(lp3457
g49
(g50
g51
NtRp3458
(dp3459
g54
(dp3460
g62
I4
ssg63
g3454
sg56
(lp3461
S'no-cache'
p3462
asbasbasbag49
(g65
g51
NtRp3463
(dp3464
g54
(dp3465
sg63
g3371
sg56
(lp3466
g49
(g70
g51
NtRp3467
(dp3468
g54
(dp3469
g74
g75
ssg63
g3463
sg56
(lp3470
S'X-Powered-By'
p3471
asbag49
(g70
g51
NtRp3472
(dp3473
g54
(dp3474
g81
g82
ssg63
g3463
sg56
(lp3475
S':'
asbag49
(g70
g51
NtRp3476
(dp3477
g54
(dp3478
sg63
g3463
sg56
(lp3479
g49
(g50
g51
NtRp3480
(dp3481
g54
(dp3482
g62
I4
ssg63
g3476
sg56
(lp3483
S'web2py'
p3484
asbasbasbasbasbasbasbag49
(g65
g51
NtRp3485
(dp3486
g54
(dp3487
sg63
g2949
sg56
(lp3488
g49
(g70
g51
NtRp3489
(dp3490
g54
(dp3491
g74
g75
ssg63
g3485
sg56
(lp3492
S'menu'
p3493
asbag49
(g70
g51
NtRp3494
(dp3495
g54
(dp3496
g81
g82
ssg63
g3485
sg56
(lp3497
S':'
asbag49
(g70
g51
NtRp3498
(dp3499
g54
(dp3500
sg63
g3485
sg56
(lp3501
g49
(g50
g51
NtRp3502
(dp3503
g54
(dp3504
g62
I5
ssg63
g3498
sg56
(lp3505
g49
(g58
g51
NtRp3506
(dp3507
g54
(dp3508
g62
I4
ssg63
Nsg56
(lp3509
g49
(g65
g51
NtRp3510
(dp3511
g54
(dp3512
sg63
g3506
sg56
(lp3513
g49
(g70
g51
NtRp3514
(dp3515
g54
(dp3516
sg63
g3510
sg56
(lp3517
g49
(g50
g51
NtRp3518
(dp3519
g54
(dp3520
g62
I4
ssg63
g3514
sg56
(lp3521
g49
(g58
g51
NtRp3522
(dp3523
g54
(dp3524
g62
I3
ssg63
Nsg56
(lp3525
g49
(g65
g51
NtRp3526
(dp3527
g54
(dp3528
sg63
g3522
sg56
(lp3529
g49
(g70
g51
NtRp3530
(dp3531
g54
(dp3532
sg63
g3526
sg56
(lp3533
g49
(g50
g51
NtRp3534
(dp3535
g54
(dp3536
g62
I3
ssg63
g3530
sg56
(lp3537
cgluon.languages
lazyT_unpickle
p3538
(S't\x04\x00\x00\x00Home'
tRp3539
asbasbasbag49
(g65
g51
NtRp3540
(dp3541
g54
(dp3542
sg63
g3522
sg56
(lp3543
g49
(g70
g51
NtRp3544
(dp3545
g54
(dp3546
sg63
g3540
sg56
(lp3547
g49
(g50
g51
NtRp3548
(dp3549
g54
(dp3550
g62
I3
ssg63
g3544
sg56
(lp3551
g92
asbasbasbag49
(g65
g51
NtRp3552
(dp3553
g54
(dp3554
sg63
g3522
sg56
(lp3555
g49
(g70
g51
NtRp3556
(dp3557
g54
(dp3558
sg63
g3552
sg56
(lp3559
g49
(g50
g51
NtRp3560
(dp3561
g54
(dp3562
g62
I3
ssg63
g3556
sg56
(lp3563
S'/xcpadmin/default/index'
p3564
asbasbasbag49
(g65
g51
NtRp3565
(dp3566
g54
(dp3567
sg63
g3522
sg56
(lp3568
g49
(g70
g51
NtRp3569
(dp3570
g54
(dp3571
sg63
g3565
sg56
(lp3572
g49
(g50
g51
NtRp3573
(dp3574
g54
(dp3575
g62
I3
ssg63
g3569
sg56
(lp3576
g49
(g58
g51
NtRp3577
(dp3578
g54
(dp3579
g62
I2
ssg63
Nsg56
(lp3580
sbasbasbasbasbasbasbasbag49
(g65
g51
NtRp3581
(dp3582
g54
(dp3583
sg63
g3506
sg56
(lp3584
g49
(g70
g51
NtRp3585
(dp3586
g54
(dp3587
sg63
g3581
sg56
(lp3588
g49
(g50
g51
NtRp3589
(dp3590
g54
(dp3591
g62
I4
ssg63
g3585
sg56
(lp3592
g49
(g58
g51
NtRp3593
(dp3594
g54
(dp3595
g62
I3
ssg63
Nsg56
(lp3596
g49
(g65
g51
NtRp3597
(dp3598
g54
(dp3599
sg63
g3593
sg56
(lp3600
g49
(g70
g51
NtRp3601
(dp3602
g54
(dp3603
sg63
g3597
sg56
(lp3604
g49
(g50
g51
NtRp3605
(dp3606
g54
(dp3607
g62
I3
ssg63
g3601
sg56
(lp3608
g49
(cgluon.html
SPAN
p3609
g51
NtRp3610
(dp3611
g54
(dp3612
g74
S'color:yellow'
p3613
ssg63
g49
(cgluon.html
A
p3614
g51
NtRp3615
(dp3616
g54
(dp3617
S'_onclick'
p3618
S'javascript:void(0);return false;'
p3619
sS'_href'
p3620
S'#'
ssg63
g49
(cgluon.html
LI
p3621
g51
NtRp3622
(dp3623
g54
(dp3624
S'_class'
p3625
S'web2py-menu-expand'
p3626
ssg63
g49
(cgluon.html
UL
p3627
g51
NtRp3628
(dp3629
g54
(dp3630
S'mobile'
p3631
I00
sS'li_class'
p3632
g3626
sg3625
S'sf-menu'
p3633
sS'ul_class'
p3634
S'web2py-menu-vertical'
p3635
sS'li_active'
p3636
S'web2py-menu-active'
p3637
ssg63
Nsg56
(lp3638
g49
(g3621
g51
NtRp3639
(dp3640
g54
(dp3641
sg63
g3628
sg56
(lp3642
g49
(g3614
g51
NtRp3643
(dp3644
g54
(dp3645
g3620
g3564
ssg63
g3639
sg56
(lp3646
g3539
asbasbag3622
asbsg56
(lp3647
g3615
ag49
(g3627
g51
NtRp3648
(dp3649
g54
(dp3650
g3625
g3635
ssg63
g3622
sg56
(lp3651
g49
(g3621
g51
NtRp3652
(dp3653
g54
(dp3654
sg63
g3648
sg56
(lp3655
g49
(g3614
g51
NtRp3656
(dp3657
g54
(dp3658
g3620
S'/admin/default/site'
p3659
ssg63
g3652
sg56
(lp3660
g3538
(S's\x08\x00\x00\x00My Sites'
tRp3661
asbasbag49
(g3621
g51
NtRp3662
(dp3663
g54
(dp3664
g3625
g3626
ssg63
g3648
sg56
(lp3665
g49
(g3614
g51
NtRp3666
(dp3667
g54
(dp3668
g3620
S'/admin/default/design/xcpadmin'
p3669
ssg63
g3662
sg56
(lp3670
g3538
(S's\x08\x00\x00\x00This App'
tRp3671
asbag49
(g3627
g51
NtRp3672
(dp3673
g54
(dp3674
g3625
g3635
ssg63
g3662
sg56
(lp3675
g49
(g3621
g51
NtRp3676
(dp3677
g54
(dp3678
sg63
g3672
sg56
(lp3679
g49
(g3614
g51
NtRp3680
(dp3681
g54
(dp3682
g3620
S'/admin/default/edit/xcpadmin/controllers/listvm.py'
p3683
ssg63
g3676
sg56
(lp3684
g3538
(S't\x0b\x00\x00\x00Controlador'
tRp3685
asbasbag49
(g3621
g51
NtRp3686
(dp3687
g54
(dp3688
sg63
g3672
sg56
(lp3689
g49
(g3614
g51
NtRp3690
(dp3691
g54
(dp3692
g3620
S'/admin/default/edit/xcpadmin/views/listvm/index.html'
p3693
ssg63
g3686
sg56
(lp3694
g3538
(S's\x0e\x00\x00\x00Visualiza\xc3\xa7\xc3\xa3o'
tRp3695
asbasbag49
(g3621
g51
NtRp3696
(dp3697
g54
(dp3698
sg63
g3672
sg56
(lp3699
g49
(g3614
g51
NtRp3700
(dp3701
g54
(dp3702
g3620
S'/admin/default/edit/xcpadmin/views/layout.html'
p3703
ssg63
g3696
sg56
(lp3704
g3538
(S't\x06\x00\x00\x00Layout'
tRp3705
asbasbag49
(g3621
g51
NtRp3706
(dp3707
g54
(dp3708
sg63
g3672
sg56
(lp3709
g49
(g3614
g51
NtRp3710
(dp3711
g54
(dp3712
g3620
S'/admin/default/edit/xcpadmin/static/css/web2py.css'
p3713
ssg63
g3706
sg56
(lp3714
g3538
(S't\n\x00\x00\x00Stylesheet'
tRp3715
asbasbag49
(g3621
g51
NtRp3716
(dp3717
g54
(dp3718
sg63
g3672
sg56
(lp3719
g49
(g3614
g51
NtRp3720
(dp3721
g54
(dp3722
g3620
S'/admin/default/edit/xcpadmin/models/db.py'
p3723
ssg63
g3716
sg56
(lp3724
g3538
(S's\t\x00\x00\x00Modelo BD'
tRp3725
asbasbag49
(g3621
g51
NtRp3726
(dp3727
g54
(dp3728
sg63
g3672
sg56
(lp3729
g49
(g3614
g51
NtRp3730
(dp3731
g54
(dp3732
g3620
S'/admin/default/edit/xcpadmin/models/menu.py'
p3733
ssg63
g3726
sg56
(lp3734
g3538
(S's\x0e\x00\x00\x00Modelo de Menu'
tRp3735
asbasbag49
(g3621
g51
NtRp3736
(dp3737
g54
(dp3738
sg63
g3672
sg56
(lp3739
g49
(g3614
g51
NtRp3740
(dp3741
g54
(dp3742
g3620
S'/xcpadmin/appadmin/index'
p3743
ssg63
g3736
sg56
(lp3744
g3538
(S's\x0e\x00\x00\x00Banco de dados'
tRp3745
asbasbag49
(g3621
g51
NtRp3746
(dp3747
g54
(dp3748
sg63
g3672
sg56
(lp3749
g49
(g3614
g51
NtRp3750
(dp3751
g54
(dp3752
g3620
S'/admin/default/errors/xcpadmin'
p3753
ssg63
g3746
sg56
(lp3754
g3538
(S't\x06\x00\x00\x00Errors'
tRp3755
asbasbag49
(g3621
g51
NtRp3756
(dp3757
g54
(dp3758
sg63
g3672
sg56
(lp3759
g49
(g3614
g51
NtRp3760
(dp3761
g54
(dp3762
g3620
S'/admin/default/about/xcpadmin'
p3763
ssg63
g3756
sg56
(lp3764
g3538
(S't\x05\x00\x00\x00About'
tRp3765
asbasbasbasbag49
(g3621
g51
NtRp3766
(dp3767
g54
(dp3768
g3625
g3626
ssg63
g3648
sg56
(lp3769
g49
(g3614
g51
NtRp3770
(dp3771
g54
(dp3772
g3620
S'http://www.web2py.com'
p3773
ssg63
g3766
sg56
(lp3774
S'web2py.com'
p3775
asbag49
(g3627
g51
NtRp3776
(dp3777
g54
(dp3778
g3625
g3635
ssg63
g3766
sg56
(lp3779
g49
(g3621
g51
NtRp3780
(dp3781
g54
(dp3782
sg63
g3776
sg56
(lp3783
g49
(g3614
g51
NtRp3784
(dp3785
g54
(dp3786
g3620
S'http://www.web2py.com/examples/default/download'
p3787
ssg63
g3780
sg56
(lp3788
g3538
(S't\x08\x00\x00\x00Download'
tRp3789
asbasbag49
(g3621
g51
NtRp3790
(dp3791
g54
(dp3792
sg63
g3776
sg56
(lp3793
g49
(g3614
g51
NtRp3794
(dp3795
g54
(dp3796
g3620
S'http://www.web2py.com/examples/default/support'
p3797
ssg63
g3790
sg56
(lp3798
g3538
(S't\x07\x00\x00\x00Support'
tRp3799
asbasbag49
(g3621
g51
NtRp3800
(dp3801
g54
(dp3802
sg63
g3776
sg56
(lp3803
g49
(g3614
g51
NtRp3804
(dp3805
g54
(dp3806
g3620
S'http://web2py.com/demo_admin'
p3807
ssg63
g3800
sg56
(lp3808
g3538
(S't\x04\x00\x00\x00Demo'
tRp3809
asbasbag49
(g3621
g51
NtRp3810
(dp3811
g54
(dp3812
sg63
g3776
sg56
(lp3813
g49
(g3614
g51
NtRp3814
(dp3815
g54
(dp3816
g3620
S'http://web2py.com/examples/default/examples'
p3817
ssg63
g3810
sg56
(lp3818
g3538
(S's\x0e\x00\x00\x00Quick Examples'
tRp3819
asbasbag49
(g3621
g51
NtRp3820
(dp3821
g54
(dp3822
sg63
g3776
sg56
(lp3823
g49
(g3614
g51
NtRp3824
(dp3825
g54
(dp3826
g3620
S'http://web2py.com/AlterEgo'
p3827
ssg63
g3820
sg56
(lp3828
g3538
(S't\x03\x00\x00\x00FAQ'
tRp3829
asbasbag49
(g3621
g51
NtRp3830
(dp3831
g54
(dp3832
sg63
g3776
sg56
(lp3833
g49
(g3614
g51
NtRp3834
(dp3835
g54
(dp3836
g3620
S'http://www.web2py.com/examples/default/videos/'
p3837
ssg63
g3830
sg56
(lp3838
g3538
(S't\x06\x00\x00\x00Videos'
tRp3839
asbasbag49
(g3621
g51
NtRp3840
(dp3841
g54
(dp3842
sg63
g3776
sg56
(lp3843
g49
(g3614
g51
NtRp3844
(dp3845
g54
(dp3846
g3620
S'http://web2py.com/appliances'
p3847
ssg63
g3840
sg56
(lp3848
g3538
(S's\x11\x00\x00\x00Free Applications'
tRp3849
asbasbag49
(g3621
g51
NtRp3850
(dp3851
g54
(dp3852
sg63
g3776
sg56
(lp3853
g49
(g3614
g51
NtRp3854
(dp3855
g54
(dp3856
g3620
S'http://web2py.com/plugins'
p3857
ssg63
g3850
sg56
(lp3858
g3538
(S't\x07\x00\x00\x00Plugins'
tRp3859
asbasbag49
(g3621
g51
NtRp3860
(dp3861
g54
(dp3862
sg63
g3776
sg56
(lp3863
g49
(g3614
g51
NtRp3864
(dp3865
g54
(dp3866
g3620
S'http://web2py.com/layouts'
p3867
ssg63
g3860
sg56
(lp3868
g3538
(S't\x07\x00\x00\x00Layouts'
tRp3869
asbasbag49
(g3621
g51
NtRp3870
(dp3871
g54
(dp3872
sg63
g3776
sg56
(lp3873
g49
(g3614
g51
NtRp3874
(dp3875
g54
(dp3876
g3620
S'http://web2pyslices.com/'
p3877
ssg63
g3870
sg56
(lp3878
g3538
(S't\x07\x00\x00\x00Recipes'
tRp3879
asbasbag49
(g3621
g51
NtRp3880
(dp3881
g54
(dp3882
sg63
g3776
sg56
(lp3883
g49
(g3614
g51
NtRp3884
(dp3885
g54
(dp3886
g3620
S'http://web2py.com/semantic'
p3887
ssg63
g3880
sg56
(lp3888
g3538
(S't\x08\x00\x00\x00Semantic'
tRp3889
asbasbasbasbag49
(g3621
g51
NtRp3890
(dp3891
g54
(dp3892
g3625
g3626
ssg63
g3648
sg56
(lp3893
g49
(g3614
g51
NtRp3894
(dp3895
g54
(dp3896
g3620
S'http://www.web2py.com/book'
p3897
ssg63
g3890
sg56
(lp3898
g3538
(S't\r\x00\x00\x00Documentation'
tRp3899
asbag49
(g3627
g51
NtRp3900
(dp3901
g54
(dp3902
g3625
g3635
ssg63
g3890
sg56
(lp3903
g49
(g3621
g51
NtRp3904
(dp3905
g54
(dp3906
sg63
g3900
sg56
(lp3907
g49
(g3614
g51
NtRp3908
(dp3909
g54
(dp3910
g3620
S'http://www.web2py.com/book/default/chapter/00'
p3911
ssg63
g3904
sg56
(lp3912
g3538
(S't\x07\x00\x00\x00Preface'
tRp3913
asbasbag49
(g3621
g51
NtRp3914
(dp3915
g54
(dp3916
sg63
g3900
sg56
(lp3917
g49
(g3614
g51
NtRp3918
(dp3919
g54
(dp3920
g3620
S'http://www.web2py.com/book/default/chapter/01'
p3921
ssg63
g3914
sg56
(lp3922
g3538
(S't\x0c\x00\x00\x00Introduction'
tRp3923
asbasbag49
(g3621
g51
NtRp3924
(dp3925
g54
(dp3926
sg63
g3900
sg56
(lp3927
g49
(g3614
g51
NtRp3928
(dp3929
g54
(dp3930
g3620
S'http://www.web2py.com/book/default/chapter/02'
p3931
ssg63
g3924
sg56
(lp3932
g3538
(S't\x06\x00\x00\x00Python'
tRp3933
asbasbag49
(g3621
g51
NtRp3934
(dp3935
g54
(dp3936
sg63
g3900
sg56
(lp3937
g49
(g3614
g51
NtRp3938
(dp3939
g54
(dp3940
g3620
S'http://www.web2py.com/book/default/chapter/03'
p3941
ssg63
g3934
sg56
(lp3942
g3538
(S't\x08\x00\x00\x00Overview'
tRp3943
asbasbag49
(g3621
g51
NtRp3944
(dp3945
g54
(dp3946
sg63
g3900
sg56
(lp3947
g49
(g3614
g51
NtRp3948
(dp3949
g54
(dp3950
g3620
S'http://www.web2py.com/book/default/chapter/04'
p3951
ssg63
g3944
sg56
(lp3952
g3538
(S's\x08\x00\x00\x00The Core'
tRp3953
asbasbag49
(g3621
g51
NtRp3954
(dp3955
g54
(dp3956
sg63
g3900
sg56
(lp3957
g49
(g3614
g51
NtRp3958
(dp3959
g54
(dp3960
g3620
S'http://www.web2py.com/book/default/chapter/05'
p3961
ssg63
g3954
sg56
(lp3962
g3538
(S's\t\x00\x00\x00The Views'
tRp3963
asbasbag49
(g3621
g51
NtRp3964
(dp3965
g54
(dp3966
sg63
g3900
sg56
(lp3967
g49
(g3614
g51
NtRp3968
(dp3969
g54
(dp3970
g3620
S'http://www.web2py.com/book/default/chapter/06'
p3971
ssg63
g3964
sg56
(lp3972
g3538
(S's\x0e\x00\x00\x00Banco de dados'
tRp3973
asbasbag49
(g3621
g51
NtRp3974
(dp3975
g54
(dp3976
sg63
g3900
sg56
(lp3977
g49
(g3614
g51
NtRp3978
(dp3979
g54
(dp3980
g3620
S'http://www.web2py.com/book/default/chapter/07'
p3981
ssg63
g3974
sg56
(lp3982
g3538
(S's\x14\x00\x00\x00Forms and Validators'
tRp3983
asbasbag49
(g3621
g51
NtRp3984
(dp3985
g54
(dp3986
sg63
g3900
sg56
(lp3987
g49
(g3614
g51
NtRp3988
(dp3989
g54
(dp3990
g3620
S'http://www.web2py.com/book/default/chapter/08'
p3991
ssg63
g3984
sg56
(lp3992
g3538
(S's\r\x00\x00\x00Email and SMS'
tRp3993
asbasbag49
(g3621
g51
NtRp3994
(dp3995
g54
(dp3996
sg63
g3900
sg56
(lp3997
g49
(g3614
g51
NtRp3998
(dp3999
g54
(dp4000
g3620
S'http://www.web2py.com/book/default/chapter/09'
p4001
ssg63
g3994
sg56
(lp4002
g3538
(S's\x0e\x00\x00\x00Access Control'
tRp4003
asbasbag49
(g3621
g51
NtRp4004
(dp4005
g54
(dp4006
sg63
g3900
sg56
(lp4007
g49
(g3614
g51
NtRp4008
(dp4009
g54
(dp4010
g3620
S'http://www.web2py.com/book/default/chapter/10'
p4011
ssg63
g4004
sg56
(lp4012
g3538
(S't\x08\x00\x00\x00Services'
tRp4013
asbasbag49
(g3621
g51
NtRp4014
(dp4015
g54
(dp4016
sg63
g3900
sg56
(lp4017
g49
(g3614
g51
NtRp4018
(dp4019
g54
(dp4020
g3620
S'http://www.web2py.com/book/default/chapter/11'
p4021
ssg63
g4014
sg56
(lp4022
g3538
(S's\x0c\x00\x00\x00Ajax Recipes'
tRp4023
asbasbag49
(g3621
g51
NtRp4024
(dp4025
g54
(dp4026
sg63
g3900
sg56
(lp4027
g49
(g3614
g51
NtRp4028
(dp4029
g54
(dp4030
g3620
S'http://www.web2py.com/book/default/chapter/12'
p4031
ssg63
g4024
sg56
(lp4032
g3538
(S's\x16\x00\x00\x00Components and Plugins'
tRp4033
asbasbag49
(g3621
g51
NtRp4034
(dp4035
g54
(dp4036
sg63
g3900
sg56
(lp4037
g49
(g3614
g51
NtRp4038
(dp4039
g54
(dp4040
g3620
S'http://www.web2py.com/book/default/chapter/13'
p4041
ssg63
g4034
sg56
(lp4042
g3538
(S's\x12\x00\x00\x00Deployment Recipes'
tRp4043
asbasbag49
(g3621
g51
NtRp4044
(dp4045
g54
(dp4046
sg63
g3900
sg56
(lp4047
g49
(g3614
g51
NtRp4048
(dp4049
g54
(dp4050
g3620
S'http://www.web2py.com/book/default/chapter/14'
p4051
ssg63
g4044
sg56
(lp4052
g3538
(S's\r\x00\x00\x00Other Recipes'
tRp4053
asbasbag49
(g3621
g51
NtRp4054
(dp4055
g54
(dp4056
sg63
g3900
sg56
(lp4057
g49
(g3614
g51
NtRp4058
(dp4059
g54
(dp4060
g3620
S'http://stores.lulu.com/web2py'
p4061
ssg63
g4054
sg56
(lp4062
g3538
(S's\r\x00\x00\x00Buy this book'
tRp4063
asbasbasbasbag49
(g3621
g51
NtRp4064
(dp4065
g54
(dp4066
g3625
g3626
ssg63
g3648
sg56
(lp4067
g49
(g3614
g51
NtRp4068
(dp4069
g54
(dp4070
g3618
g3619
sg3620
S'#'
ssg63
g4064
sg56
(lp4071
g3538
(S't\t\x00\x00\x00Community'
tRp4072
asbag49
(g3627
g51
NtRp4073
(dp4074
g54
(dp4075
g3625
g3635
ssg63
g4064
sg56
(lp4076
g49
(g3621
g51
NtRp4077
(dp4078
g54
(dp4079
sg63
g4073
sg56
(lp4080
g49
(g3614
g51
NtRp4081
(dp4082
g54
(dp4083
g3620
S'http://www.web2py.com/examples/default/usergroups'
p4084
ssg63
g4077
sg56
(lp4085
g3538
(S't\x06\x00\x00\x00Groups'
tRp4086
asbasbag49
(g3621
g51
NtRp4087
(dp4088
g54
(dp4089
sg63
g4073
sg56
(lp4090
g49
(g3614
g51
NtRp4091
(dp4092
g54
(dp4093
g3620
S'http://twitter.com/web2py'
p4094
ssg63
g4087
sg56
(lp4095
g3538
(S't\x07\x00\x00\x00Twitter'
tRp4096
asbasbag49
(g3621
g51
NtRp4097
(dp4098
g54
(dp4099
sg63
g4073
sg56
(lp4100
g49
(g3614
g51
NtRp4101
(dp4102
g54
(dp4103
g3620
S'http://webchat.freenode.net/?channels=web2py'
p4104
ssg63
g4097
sg56
(lp4105
g3538
(S's\t\x00\x00\x00Live Chat'
tRp4106
asbasbasbasbag49
(g3621
g51
NtRp4107
(dp4108
g54
(dp4109
g3625
g3626
ssg63
g3648
sg56
(lp4110
g49
(g3614
g51
NtRp4111
(dp4112
g54
(dp4113
g3618
g3619
sg3620
S'#'
ssg63
g4107
sg56
(lp4114
g3538
(S't\x07\x00\x00\x00Plugins'
tRp4115
asbag49
(g3627
g51
NtRp4116
(dp4117
g54
(dp4118
g3625
g3635
ssg63
g4107
sg56
(lp4119
g49
(g3621
g51
NtRp4120
(dp4121
g54
(dp4122
sg63
g4116
sg56
(lp4123
g49
(g3614
g51
NtRp4124
(dp4125
g54
(dp4126
g3620
S'http://web2py.com/examples/default/download'
p4127
ssg63
g4120
sg56
(lp4128
S'plugin_wiki'
p4129
asbasbag49
(g3621
g51
NtRp4130
(dp4131
g54
(dp4132
sg63
g4116
sg56
(lp4133
g49
(g3614
g51
NtRp4134
(dp4135
g54
(dp4136
g3620
g3857
ssg63
g4130
sg56
(lp4137
g3538
(S's\r\x00\x00\x00Other Plugins'
tRp4138
asbasbag49
(g3621
g51
NtRp4139
(dp4140
g54
(dp4141
sg63
g4116
sg56
(lp4142
g49
(g3614
g51
NtRp4143
(dp4144
g54
(dp4145
g3620
g3867
ssg63
g4139
sg56
(lp4146
g3538
(S's\x0e\x00\x00\x00Layout Plugins'
tRp4147
asbasbasbasbasbasbsg56
(lp4148
g3610
asbsg56
(lp4149
g3484
asbasbasbasbag49
(g65
g51
NtRp4150
(dp4151
g54
(dp4152
sg63
g3593
sg56
(lp4153
g49
(g70
g51
NtRp4154
(dp4155
g54
(dp4156
sg63
g4150
sg56
(lp4157
g49
(g50
g51
NtRp4158
(dp4159
g54
(dp4160
g62
I3
ssg63
g4154
sg56
(lp4161
g92
asbasbasbag49
(g65
g51
NtRp4162
(dp4163
g54
(dp4164
sg63
g3593
sg56
(lp4165
g49
(g70
g51
NtRp4166
(dp4167
g54
(dp4168
sg63
g4162
sg56
(lp4169
g49
(g50
g51
NtRp4170
(dp4171
g54
(dp4172
g62
I3
ssg63
g4166
sg56
(lp4173
S'None'
p4174
asbasbasbag49
(g65
g51
NtRp4175
(dp4176
g54
(dp4177
sg63
g3593
sg56
(lp4178
g49
(g70
g51
NtRp4179
(dp4180
g54
(dp4181
sg63
g4175
sg56
(lp4182
g49
(g50
g51
NtRp4183
(dp4184
g54
(dp4185
g62
I3
ssg63
g4179
sg56
(lp4186
g49
(g58
g51
NtRp4187
(dp4188
g54
(dp4189
g62
I2
ssg63
Nsg56
(lp4190
g49
(g65
g51
NtRp4191
(dp4192
g54
(dp4193
sg63
g4187
sg56
(lp4194
g49
(g70
g51
NtRp4195
(dp4196
g54
(dp4197
sg63
g4191
sg56
(lp4198
g49
(g50
g51
NtRp4199
(dp4200
g54
(dp4201
g62
I2
ssg63
g4195
sg56
(lp4202
g49
(g58
g51
NtRp4203
(dp4204
g54
(dp4205
g62
I1
ssg63
Nsg56
(lp4206
g49
(g65
g51
NtRp4207
(dp4208
g54
(dp4209
sg63
g4203
sg56
(lp4210
g49
(g70
g51
NtRp4211
(dp4212
g54
(dp4213
sg63
g4207
sg56
(lp4214
g49
(g50
g51
NtRp4215
(dp4216
g54
(dp4217
g62
I1
ssg63
g4211
sg56
(lp4218
g3661
asbasbasbag49
(g65
g51
NtRp4219
(dp4220
g54
(dp4221
sg63
g4203
sg56
(lp4222
g49
(g70
g51
NtRp4223
(dp4224
g54
(dp4225
sg63
g4219
sg56
(lp4226
g49
(g50
g51
NtRp4227
(dp4228
g54
(dp4229
g62
I1
ssg63
g4223
sg56
(lp4230
I00
asbasbasbag49
(g65
g51
NtRp4231
(dp4232
g54
(dp4233
sg63
g4203
sg56
(lp4234
g49
(g70
g51
NtRp4235
(dp4236
g54
(dp4237
sg63
g4231
sg56
(lp4238
g49
(g50
g51
NtRp4239
(dp4240
g54
(dp4241
g62
I1
ssg63
g4235
sg56
(lp4242
g3659
asbasbasbasbasbasbasbag49
(g65
g51
NtRp4243
(dp4244
g54
(dp4245
sg63
g4187
sg56
(lp4246
g49
(g70
g51
NtRp4247
(dp4248
g54
(dp4249
sg63
g4243
sg56
(lp4250
g49
(g50
g51
NtRp4251
(dp4252
g54
(dp4253
g62
I2
ssg63
g4247
sg56
(lp4254
g49
(g58
g51
NtRp4255
(dp4256
g54
(dp4257
g62
I1
ssg63
Nsg56
(lp4258
g49
(g65
g51
NtRp4259
(dp4260
g54
(dp4261
sg63
g4255
sg56
(lp4262
g49
(g70
g51
NtRp4263
(dp4264
g54
(dp4265
sg63
g4259
sg56
(lp4266
g49
(g50
g51
NtRp4267
(dp4268
g54
(dp4269
g62
I1
ssg63
g4263
sg56
(lp4270
g3671
asbasbasbag49
(g65
g51
NtRp4271
(dp4272
g54
(dp4273
sg63
g4255
sg56
(lp4274
g49
(g70
g51
NtRp4275
(dp4276
g54
(dp4277
sg63
g4271
sg56
(lp4278
g49
(g50
g51
NtRp4279
(dp4280
g54
(dp4281
g62
I1
ssg63
g4275
sg56
(lp4282
I00
asbasbasbag49
(g65
g51
NtRp4283
(dp4284
g54
(dp4285
sg63
g4255
sg56
(lp4286
g49
(g70
g51
NtRp4287
(dp4288
g54
(dp4289
sg63
g4283
sg56
(lp4290
g49
(g50
g51
NtRp4291
(dp4292
g54
(dp4293
g62
I1
ssg63
g4287
sg56
(lp4294
g3669
asbasbasbag49
(g65
g51
NtRp4295
(dp4296
g54
(dp4297
sg63
g4255
sg56
(lp4298
g49
(g70
g51
NtRp4299
(dp4300
g54
(dp4301
sg63
g4295
sg56
(lp4302
g49
(g50
g51
NtRp4303
(dp4304
g54
(dp4305
g62
I1
ssg63
g4299
sg56
(lp4306
(lp4307
(g3685
I00
g3683
tp4308
a(g3695
I00
g3693
tp4309
a(g3705
I00
g3703
tp4310
a(g3715
I00
g3713
tp4311
a(g3725
I00
g3723
tp4312
a(g3735
I00
g3733
tp4313
a(g3745
I00
g3743
tp4314
a(g3755
I00
g3753
tp4315
a(g3765
I00
g3763
tp4316
aasbasbasbasbasbasbasbag49
(g65
g51
NtRp4317
(dp4318
g54
(dp4319
sg63
g4187
sg56
(lp4320
g49
(g70
g51
NtRp4321
(dp4322
g54
(dp4323
sg63
g4317
sg56
(lp4324
g49
(g50
g51
NtRp4325
(dp4326
g54
(dp4327
g62
I2
ssg63
g4321
sg56
(lp4328
g49
(g58
g51
NtRp4329
(dp4330
g54
(dp4331
g62
I1
ssg63
Nsg56
(lp4332
g49
(g65
g51
NtRp4333
(dp4334
g54
(dp4335
sg63
g4329
sg56
(lp4336
g49
(g70
g51
NtRp4337
(dp4338
g54
(dp4339
sg63
g4333
sg56
(lp4340
g49
(g50
g51
NtRp4341
(dp4342
g54
(dp4343
g62
I1
ssg63
g4337
sg56
(lp4344
g3775
asbasbasbag49
(g65
g51
NtRp4345
(dp4346
g54
(dp4347
sg63
g4329
sg56
(lp4348
g49
(g70
g51
NtRp4349
(dp4350
g54
(dp4351
sg63
g4345
sg56
(lp4352
g49
(g50
g51
NtRp4353
(dp4354
g54
(dp4355
g62
I1
ssg63
g4349
sg56
(lp4356
I00
asbasbasbag49
(g65
g51
NtRp4357
(dp4358
g54
(dp4359
sg63
g4329
sg56
(lp4360
g49
(g70
g51
NtRp4361
(dp4362
g54
(dp4363
sg63
g4357
sg56
(lp4364
g49
(g50
g51
NtRp4365
(dp4366
g54
(dp4367
g62
I1
ssg63
g4361
sg56
(lp4368
g3773
asbasbasbag49
(g65
g51
NtRp4369
(dp4370
g54
(dp4371
sg63
g4329
sg56
(lp4372
g49
(g70
g51
NtRp4373
(dp4374
g54
(dp4375
sg63
g4369
sg56
(lp4376
g49
(g50
g51
NtRp4377
(dp4378
g54
(dp4379
g62
I1
ssg63
g4373
sg56
(lp4380
(lp4381
(g3789
I00
g3787
tp4382
a(g3799
I00
g3797
tp4383
a(g3809
I00
g3807
tp4384
a(g3819
I00
g3817
tp4385
a(g3829
I00
g3827
tp4386
a(g3839
I00
g3837
tp4387
a(g3849
I00
g3847
tp4388
a(g3859
I00
g3857
tp4389
a(g3869
I00
g3867
tp4390
a(g3879
I00
g3877
tp4391
a(g3889
I00
g3887
tp4392
aasbasbasbasbasbasbasbag49
(g65
g51
NtRp4393
(dp4394
g54
(dp4395
sg63
g4187
sg56
(lp4396
g49
(g70
g51
NtRp4397
(dp4398
g54
(dp4399
sg63
g4393
sg56
(lp4400
g49
(g50
g51
NtRp4401
(dp4402
g54
(dp4403
g62
I2
ssg63
g4397
sg56
(lp4404
g49
(g58
g51
NtRp4405
(dp4406
g54
(dp4407
g62
I1
ssg63
Nsg56
(lp4408
g49
(g65
g51
NtRp4409
(dp4410
g54
(dp4411
sg63
g4405
sg56
(lp4412
g49
(g70
g51
NtRp4413
(dp4414
g54
(dp4415
sg63
g4409
sg56
(lp4416
g49
(g50
g51
NtRp4417
(dp4418
g54
(dp4419
g62
I1
ssg63
g4413
sg56
(lp4420
g3899
asbasbasbag49
(g65
g51
NtRp4421
(dp4422
g54
(dp4423
sg63
g4405
sg56
(lp4424
g49
(g70
g51
NtRp4425
(dp4426
g54
(dp4427
sg63
g4421
sg56
(lp4428
g49
(g50
g51
NtRp4429
(dp4430
g54
(dp4431
g62
I1
ssg63
g4425
sg56
(lp4432
I00
asbasbasbag49
(g65
g51
NtRp4433
(dp4434
g54
(dp4435
sg63
g4405
sg56
(lp4436
g49
(g70
g51
NtRp4437
(dp4438
g54
(dp4439
sg63
g4433
sg56
(lp4440
g49
(g50
g51
NtRp4441
(dp4442
g54
(dp4443
g62
I1
ssg63
g4437
sg56
(lp4444
g3897
asbasbasbag49
(g65
g51
NtRp4445
(dp4446
g54
(dp4447
sg63
g4405
sg56
(lp4448
g49
(g70
g51
NtRp4449
(dp4450
g54
(dp4451
sg63
g4445
sg56
(lp4452
g49
(g50
g51
NtRp4453
(dp4454
g54
(dp4455
g62
I1
ssg63
g4449
sg56
(lp4456
(lp4457
(g3913
I00
g3911
tp4458
a(g3923
I00
g3921
tp4459
a(g3933
I00
g3931
tp4460
a(g3943
I00
g3941
tp4461
a(g3953
I00
g3951
tp4462
a(g3963
I00
g3961
tp4463
a(g3973
I00
g3971
tp4464
a(g3983
I00
g3981
tp4465
a(g3993
I00
g3991
tp4466
a(g4003
I00
g4001
tp4467
a(g4013
I00
g4011
tp4468
a(g4023
I00
g4021
tp4469
a(g4033
I00
g4031
tp4470
a(g4043
I00
g4041
tp4471
a(g4053
I00
g4051
tp4472
a(g4063
I00
g4061
tp4473
aasbasbasbasbasbasbasbag49
(g65
g51
NtRp4474
(dp4475
g54
(dp4476
sg63
g4187
sg56
(lp4477
g49
(g70
g51
NtRp4478
(dp4479
g54
(dp4480
sg63
g4474
sg56
(lp4481
g49
(g50
g51
NtRp4482
(dp4483
g54
(dp4484
g62
I2
ssg63
g4478
sg56
(lp4485
g49
(g58
g51
NtRp4486
(dp4487
g54
(dp4488
g62
I1
ssg63
Nsg56
(lp4489
g49
(g65
g51
NtRp4490
(dp4491
g54
(dp4492
sg63
g4486
sg56
(lp4493
g49
(g70
g51
NtRp4494
(dp4495
g54
(dp4496
sg63
g4490
sg56
(lp4497
g49
(g50
g51
NtRp4498
(dp4499
g54
(dp4500
g62
I1
ssg63
g4494
sg56
(lp4501
g4072
asbasbasbag49
(g65
g51
NtRp4502
(dp4503
g54
(dp4504
sg63
g4486
sg56
(lp4505
g49
(g70
g51
NtRp4506
(dp4507
g54
(dp4508
sg63
g4502
sg56
(lp4509
g49
(g50
g51
NtRp4510
(dp4511
g54
(dp4512
g62
I1
ssg63
g4506
sg56
(lp4513
I00
asbasbasbag49
(g65
g51
NtRp4514
(dp4515
g54
(dp4516
sg63
g4486
sg56
(lp4517
g49
(g70
g51
NtRp4518
(dp4519
g54
(dp4520
sg63
g4514
sg56
(lp4521
g49
(g50
g51
NtRp4522
(dp4523
g54
(dp4524
g62
I1
ssg63
g4518
sg56
(lp4525
Nasbasbasbag49
(g65
g51
NtRp4526
(dp4527
g54
(dp4528
sg63
g4486
sg56
(lp4529
g49
(g70
g51
NtRp4530
(dp4531
g54
(dp4532
sg63
g4526
sg56
(lp4533
g49
(g50
g51
NtRp4534
(dp4535
g54
(dp4536
g62
I1
ssg63
g4530
sg56
(lp4537
(lp4538
(g4086
I00
g4084
tp4539
a(g4096
I00
g4094
tp4540
a(g4106
I00
g4104
tp4541
aasbasbasbasbasbasbasbag49
(g65
g51
NtRp4542
(dp4543
g54
(dp4544
sg63
g4187
sg56
(lp4545
g49
(g70
g51
NtRp4546
(dp4547
g54
(dp4548
sg63
g4542
sg56
(lp4549
g49
(g50
g51
NtRp4550
(dp4551
g54
(dp4552
g62
I2
ssg63
g4546
sg56
(lp4553
g49
(g58
g51
NtRp4554
(dp4555
g54
(dp4556
g62
I1
ssg63
Nsg56
(lp4557
g49
(g65
g51
NtRp4558
(dp4559
g54
(dp4560
sg63
g4554
sg56
(lp4561
g49
(g70
g51
NtRp4562
(dp4563
g54
(dp4564
sg63
g4558
sg56
(lp4565
g49
(g50
g51
NtRp4566
(dp4567
g54
(dp4568
g62
I1
ssg63
g4562
sg56
(lp4569
g4115
asbasbasbag49
(g65
g51
NtRp4570
(dp4571
g54
(dp4572
sg63
g4554
sg56
(lp4573
g49
(g70
g51
NtRp4574
(dp4575
g54
(dp4576
sg63
g4570
sg56
(lp4577
g49
(g50
g51
NtRp4578
(dp4579
g54
(dp4580
g62
I1
ssg63
g4574
sg56
(lp4581
I00
asbasbasbag49
(g65
g51
NtRp4582
(dp4583
g54
(dp4584
sg63
g4554
sg56
(lp4585
g49
(g70
g51
NtRp4586
(dp4587
g54
(dp4588
sg63
g4582
sg56
(lp4589
g49
(g50
g51
NtRp4590
(dp4591
g54
(dp4592
g62
I1
ssg63
g4586
sg56
(lp4593
Nasbasbasbag49
(g65
g51
NtRp4594
(dp4595
g54
(dp4596
sg63
g4554
sg56
(lp4597
g49
(g70
g51
NtRp4598
(dp4599
g54
(dp4600
sg63
g4594
sg56
(lp4601
g49
(g50
g51
NtRp4602
(dp4603
g54
(dp4604
g62
I1
ssg63
g4598
sg56
(lp4605
(lp4606
(g4129
I00
g4127
tp4607
a(g4138
I00
g3857
tp4608
a(g4147
I00
g3867
tp4609
aasbasbasbasbasbasbasbasbasbasbasbasbasbasbasbasbasbasbasbag49
(g65
g51
NtRp4610
(dp4611
g54
(dp4612
sg63
g2949
sg56
(lp4613
g49
(g70
g51
NtRp4614
(dp4615
g54
(dp4616
g74
g75
ssg63
g4610
sg56
(lp4617
S'meta'
p4618
asbag49
(g70
g51
NtRp4619
(dp4620
g54
(dp4621
g81
g82
ssg63
g4610
sg56
(lp4622
S':'
asbag49
(g70
g51
NtRp4623
(dp4624
g54
(dp4625
sg63
g4610
sg56
(lp4626
g49
(g50
g51
NtRp4627
(dp4628
g54
(dp4629
g62
I5
ssg63
g4623
sg56
(lp4630
g49
(g58
g51
NtRp4631
(dp4632
g54
(dp4633
g62
I4
ssg63
Nsg56
(lp4634
g49
(g65
g51
NtRp4635
(dp4636
g54
(dp4637
sg63
g4631
sg56
(lp4638
g49
(g70
g51
NtRp4639
(dp4640
g54
(dp4641
g74
g75
ssg63
g4635
sg56
(lp4642
S'author'
p4643
asbag49
(g70
g51
NtRp4644
(dp4645
g54
(dp4646
g81
g82
ssg63
g4635
sg56
(lp4647
S':'
asbag49
(g70
g51
NtRp4648
(dp4649
g54
(dp4650
sg63
g4635
sg56
(lp4651
g49
(g50
g51
NtRp4652
(dp4653
g54
(dp4654
g62
I4
ssg63
g4648
sg56
(lp4655
S'Your Name <you@example.com>'
p4656
asbasbasbag49
(g65
g51
NtRp4657
(dp4658
g54
(dp4659
sg63
g4631
sg56
(lp4660
g49
(g70
g51
NtRp4661
(dp4662
g54
(dp4663
g74
g75
ssg63
g4657
sg56
(lp4664
S'copyright'
p4665
asbag49
(g70
g51
NtRp4666
(dp4667
g54
(dp4668
g81
g82
ssg63
g4657
sg56
(lp4669
S':'
asbag49
(g70
g51
NtRp4670
(dp4671
g54
(dp4672
sg63
g4657
sg56
(lp4673
g49
(g50
g51
NtRp4674
(dp4675
g54
(dp4676
g62
I4
ssg63
g4670
sg56
(lp4677
S'Copyright 2011'
p4678
asbasbasbag49
(g65
g51
NtRp4679
(dp4680
g54
(dp4681
sg63
g4631
sg56
(lp4682
g49
(g70
g51
NtRp4683
(dp4684
g54
(dp4685
g74
g75
ssg63
g4679
sg56
(lp4686
S'description'
p4687
asbag49
(g70
g51
NtRp4688
(dp4689
g54
(dp4690
g81
g82
ssg63
g4679
sg56
(lp4691
S':'
asbag49
(g70
g51
NtRp4692
(dp4693
g54
(dp4694
sg63
g4679
sg56
(lp4695
g49
(g50
g51
NtRp4696
(dp4697
g54
(dp4698
g62
I4
ssg63
g4692
sg56
(lp4699
S'a cool new app'
p4700
asbasbasbag49
(g65
g51
NtRp4701
(dp4702
g54
(dp4703
sg63
g4631
sg56
(lp4704
g49
(g70
g51
NtRp4705
(dp4706
g54
(dp4707
g74
g75
ssg63
g4701
sg56
(lp4708
S'generator'
p4709
asbag49
(g70
g51
NtRp4710
(dp4711
g54
(dp4712
g81
g82
ssg63
g4701
sg56
(lp4713
S':'
asbag49
(g70
g51
NtRp4714
(dp4715
g54
(dp4716
sg63
g4701
sg56
(lp4717
g49
(g50
g51
NtRp4718
(dp4719
g54
(dp4720
g62
I4
ssg63
g4714
sg56
(lp4721
S'Web2py Web Framework'
p4722
asbasbasbag49
(g65
g51
NtRp4723
(dp4724
g54
(dp4725
sg63
g4631
sg56
(lp4726
g49
(g70
g51
NtRp4727
(dp4728
g54
(dp4729
g74
g75
ssg63
g4723
sg56
(lp4730
S'keywords'
p4731
asbag49
(g70
g51
NtRp4732
(dp4733
g54
(dp4734
g81
g82
ssg63
g4723
sg56
(lp4735
S':'
asbag49
(g70
g51
NtRp4736
(dp4737
g54
(dp4738
sg63
g4723
sg56
(lp4739
g49
(g50
g51
NtRp4740
(dp4741
g54
(dp4742
g62
I4
ssg63
g4736
sg56
(lp4743
S'web2py, python, framework'
p4744
asbasbasbasbasbasbasbag49
(g65
g51
NtRp4745
(dp4746
g54
(dp4747
sg63
g2949
sg56
(lp4748
g49
(g70
g51
NtRp4749
(dp4750
g54
(dp4751
g74
g75
ssg63
g4745
sg56
(lp4752
S'postprocessing'
p4753
asbag49
(g70
g51
NtRp4754
(dp4755
g54
(dp4756
g81
g82
ssg63
g4745
sg56
(lp4757
S':'
asbag49
(g70
g51
NtRp4758
(dp4759
g54
(dp4760
sg63
g4745
sg56
(lp4761
g49
(g50
g51
NtRp4762
(dp4763
g54
(dp4764
g62
I5
ssg63
g4758
sg56
(lp4765
g49
(g58
g51
NtRp4766
(dp4767
g54
(dp4768
g62
I4
ssg63
Nsg56
(lp4769
sbasbasbasbag49
(g65
g51
NtRp4770
(dp4771
g54
(dp4772
sg63
g2949
sg56
(lp4773
g49
(g70
g51
NtRp4774
(dp4775
g54
(dp4776
g74
g75
ssg63
g4770
sg56
(lp4777
S'session_file'
p4778
asbag49
(g70
g51
NtRp4779
(dp4780
g54
(dp4781
g81
g82
ssg63
g4770
sg56
(lp4782
S':'
asbag49
(g70
g51
NtRp4783
(dp4784
g54
(dp4785
sg63
g4770
sg56
(lp4786
g49
(g50
g51
NtRp4787
(dp4788
g54
(dp4789
g62
I5
ssg63
g4783
sg56
(lp4790
S"<open file 'C:\\Users\\nilton\\Desktop\\scripts\\curso_de_python\\web2py\\applications\\xcpadmin\\sessions\\127.0.0.1-0cb88dcb-67b2-4748-8846-25f35503a0e7', mode 'rb+' at 0x05E1CF08>"
p4791
asbasbasbag49
(g65
g51
NtRp4792
(dp4793
g54
(dp4794
sg63
g2949
sg56
(lp4795
g49
(g70
g51
NtRp4796
(dp4797
g54
(dp4798
g74
g75
ssg63
g4792
sg56
(lp4799
S'session_filename'
p4800
asbag49
(g70
g51
NtRp4801
(dp4802
g54
(dp4803
g81
g82
ssg63
g4792
sg56
(lp4804
S':'
asbag49
(g70
g51
NtRp4805
(dp4806
g54
(dp4807
sg63
g4792
sg56
(lp4808
g49
(g50
g51
NtRp4809
(dp4810
g54
(dp4811
g62
I5
ssg63
g4805
sg56
(lp4812
S'C:\\Users\\nilton\\Desktop\\scripts\\curso_de_python\\web2py\\applications\\xcpadmin\\sessions\\127.0.0.1-0cb88dcb-67b2-4748-8846-25f35503a0e7'
p4813
asbasbasbag49
(g65
g51
NtRp4814
(dp4815
g54
(dp4816
sg63
g2949
sg56
(lp4817
g49
(g70
g51
NtRp4818
(dp4819
g54
(dp4820
g74
g75
ssg63
g4814
sg56
(lp4821
S'session_id'
p4822
asbag49
(g70
g51
NtRp4823
(dp4824
g54
(dp4825
g81
g82
ssg63
g4814
sg56
(lp4826
S':'
asbag49
(g70
g51
NtRp4827
(dp4828
g54
(dp4829
sg63
g4814
sg56
(lp4830
g49
(g50
g51
NtRp4831
(dp4832
g54
(dp4833
g62
I5
ssg63
g4827
sg56
(lp4834
S'127.0.0.1-0cb88dcb-67b2-4748-8846-25f35503a0e7'
p4835
asbasbasbag49
(g65
g51
NtRp4836
(dp4837
g54
(dp4838
sg63
g2949
sg56
(lp4839
g49
(g70
g51
NtRp4840
(dp4841
g54
(dp4842
g74
g75
ssg63
g4836
sg56
(lp4843
S'session_id_name'
p4844
asbag49
(g70
g51
NtRp4845
(dp4846
g54
(dp4847
g81
g82
ssg63
g4836
sg56
(lp4848
S':'
asbag49
(g70
g51
NtRp4849
(dp4850
g54
(dp4851
sg63
g4836
sg56
(lp4852
g49
(g50
g51
NtRp4853
(dp4854
g54
(dp4855
g62
I5
ssg63
g4849
sg56
(lp4856
g3006
asbasbasbag49
(g65
g51
NtRp4857
(dp4858
g54
(dp4859
sg63
g2949
sg56
(lp4860
g49
(g70
g51
NtRp4861
(dp4862
g54
(dp4863
g74
g75
ssg63
g4857
sg56
(lp4864
S'session_locked'
p4865
asbag49
(g70
g51
NtRp4866
(dp4867
g54
(dp4868
g81
g82
ssg63
g4857
sg56
(lp4869
S':'
asbag49
(g70
g51
NtRp4870
(dp4871
g54
(dp4872
sg63
g4857
sg56
(lp4873
g49
(g50
g51
NtRp4874
(dp4875
g54
(dp4876
g62
I5
ssg63
g4870
sg56
(lp4877
g1587
asbasbasbag49
(g65
g51
NtRp4878
(dp4879
g54
(dp4880
sg63
g2949
sg56
(lp4881
g49
(g70
g51
NtRp4882
(dp4883
g54
(dp4884
g74
g75
ssg63
g4878
sg56
(lp4885
S'session_new'
p4886
asbag49
(g70
g51
NtRp4887
(dp4888
g54
(dp4889
g81
g82
ssg63
g4878
sg56
(lp4890
S':'
asbag49
(g70
g51
NtRp4891
(dp4892
g54
(dp4893
sg63
g4878
sg56
(lp4894
g49
(g50
g51
NtRp4895
(dp4896
g54
(dp4897
g62
I5
ssg63
g4891
sg56
(lp4898
g92
asbasbasbag49
(g65
g51
NtRp4899
(dp4900
g54
(dp4901
sg63
g2949
sg56
(lp4902
g49
(g70
g51
NtRp4903
(dp4904
g54
(dp4905
g74
g75
ssg63
g4899
sg56
(lp4906
S'status'
p4907
asbag49
(g70
g51
NtRp4908
(dp4909
g54
(dp4910
g81
g82
ssg63
g4899
sg56
(lp4911
S':'
asbag49
(g70
g51
NtRp4912
(dp4913
g54
(dp4914
sg63
g4899
sg56
(lp4915
g49
(g50
g51
NtRp4916
(dp4917
g54
(dp4918
g62
I5
ssg63
g4912
sg56
(lp4919
S'200'
p4920
asbasbasbag49
(g65
g51
NtRp4921
(dp4922
g54
(dp4923
sg63
g2949
sg56
(lp4924
g49
(g70
g51
NtRp4925
(dp4926
g54
(dp4927
g74
g75
ssg63
g4921
sg56
(lp4928
S'subtitle'
p4929
asbag49
(g70
g51
NtRp4930
(dp4931
g54
(dp4932
g81
g82
ssg63
g4921
sg56
(lp4933
S':'
asbag49
(g70
g51
NtRp4934
(dp4935
g54
(dp4936
sg63
g4921
sg56
(lp4937
g49
(g50
g51
NtRp4938
(dp4939
g54
(dp4940
g62
I5
ssg63
g4934
sg56
(lp4941
g3538
(S's\x0f\x00\x00\x00Personalize-me!'
tRp4942
asbasbasbag49
(g65
g51
NtRp4943
(dp4944
g54
(dp4945
sg63
g2949
sg56
(lp4946
g49
(g70
g51
NtRp4947
(dp4948
g54
(dp4949
g74
g75
ssg63
g4943
sg56
(lp4950
S'title'
p4951
asbag49
(g70
g51
NtRp4952
(dp4953
g54
(dp4954
g81
g82
ssg63
g4943
sg56
(lp4955
S':'
asbag49
(g70
g51
NtRp4956
(dp4957
g54
(dp4958
sg63
g4943
sg56
(lp4959
g49
(g50
g51
NtRp4960
(dp4961
g54
(dp4962
g62
I5
ssg63
g4956
sg56
(lp4963
S'XCP ADMIN'
p4964
asbasbasbag49
(g65
g51
NtRp4965
(dp4966
g54
(dp4967
sg63
g2949
sg56
(lp4968
g49
(g70
g51
NtRp4969
(dp4970
g54
(dp4971
g74
g75
ssg63
g4965
sg56
(lp4972
g2251
asbag49
(g70
g51
NtRp4973
(dp4974
g54
(dp4975
g81
g82
ssg63
g4965
sg56
(lp4976
S':'
asbag49
(g70
g51
NtRp4977
(dp4978
g54
(dp4979
sg63
g4965
sg56
(lp4980
g49
(g50
g51
NtRp4981
(dp4982
g54
(dp4983
g62
I5
ssg63
g4977
sg56
(lp4984
g2264
asbasbasbag49
(g65
g51
NtRp4985
(dp4986
g54
(dp4987
sg63
g2949
sg56
(lp4988
g49
(g70
g51
NtRp4989
(dp4990
g54
(dp4991
g74
g75
ssg63
g4985
sg56
(lp4992
S'view'
p4993
asbag49
(g70
g51
NtRp4994
(dp4995
g54
(dp4996
g81
g82
ssg63
g4985
sg56
(lp4997
S':'
asbag49
(g70
g51
NtRp4998
(dp4999
g54
(dp5000
sg63
g4985
sg56
(lp5001
g49
(g50
g51
NtRp5002
(dp5003
g54
(dp5004
g62
I5
ssg63
g4998
sg56
(lp5005
S'listvm/index.html'
p5006
asbasbasbasbasbsS'locals'
p5007
(dp5008
S'Service'
p5009
S"<class 'gluon.tools.Service'>"
p5010
sS'OBJECT'
p5011
S"<class 'gluon.html.OBJECT'>"
p5012
sS'SQLDB'
p5013
S"<class 'gluon.dal.DAL'>"
p5014
sg2931
S'<Storage {\'_Session__hash\': "\\xab\'\\xce\\x9e\\x01\\x...wser\': {\'version\': \'9.0.1\', \'name\': \'Firefox\'}}}>'
p5015
sS'LINK'
p5016
S"<class 'gluon.html.LINK'>"
p5017
sS'BR'
p5018
S"<class 'gluon.html.BR'>"
p5019
sS'local_import'
p5020
S'<function <lambda> at 0x05B46470>'
p5021
sS'OPTGROUP'
p5022
S"<class 'gluon.html.OPTGROUP'>"
p5023
sS'row'
p5024
S"'{'"
p5025
sS'PRE'
p5026
S"<class 'gluon.html.PRE'>"
p5027
sS'IS_INT_IN_RANGE'
p5028
S"<class 'gluon.validators.IS_INT_IN_RANGE'>"
p5029
sS'left_sidebar_enabled'
p5030
g92
sS'IS_LOWER'
p5031
S"<class 'gluon.validators.IS_LOWER'>"
p5032
sS'IS_STRONG'
p5033
S"<class 'gluon.validators.IS_STRONG'>"
p5034
sS'cache'
p5035
S'<gluon.cache.Cache object at 0x05E70F10>'
p5036
sS'IS_IN_DB'
p5037
S"<class 'gluon.validators.IS_IN_DB'>"
p5038
sS'TAG'
p5039
S'<gluon.html.__TAG__ object at 0x01EA6910>'
p5040
sS'SQLField'
p5041
S"<class 'gluon.dal.Field'>"
p5042
sS'mail'
p5043
S'<gluon.tools.Mail object at 0x05E707B0>'
p5044
sS'BODY'
p5045
S"<class 'gluon.html.BODY'>"
p5046
sS'IS_DATE_IN_RANGE'
p5047
S"<class 'gluon.validators.IS_DATE_IN_RANGE'>"
p5048
sS'TH'
p5049
S"<class 'gluon.html.TH'>"
p5050
sS'URL'
p5051
S'<function URL at 0x01EEF870>'
p5052
sS'__file__'
p5053
S"r'C:\\Users\\nilton\\Desktop\\scripts\\curso_de_python\\web2py\\applications\\xcpadmin\\views\\listvm/index.html'"
p5054
sS'db'
p5055
S"<DAL {'auth_event': <Table {'origin': <gluon.dal...'_id': <gluon.dal.Field object at 0x05E561D0>}>}>"
p5056
sS'auth'
p5057
S'<gluon.tools.Auth object at 0x05E701D0>'
p5058
sS'P'
S"<class 'gluon.html.P'>"
p5059
sS'TFOOT'
p5060
S"<class 'gluon.html.TFOOT'>"
p5061
sS'XHTML'
p5062
S"<class 'gluon.html.XHTML'>"
p5063
sS'ON'
p5064
g1587
sS'OL'
p5065
S"<class 'gluon.html.OL'>"
p5066
sS'TEXTAREA'
p5067
S"<class 'gluon.html.TEXTAREA'>"
p5068
sS'MENU'
p5069
S"<class 'gluon.html.MENU'>"
p5070
sS'LOAD'
p5071
S'<function LOAD at 0x0206FBB0>'
p5072
sS'CODE'
p5073
S"<class 'gluon.html.CODE'>"
p5074
sS'HTTP'
p5075
S"<class 'gluon.http.HTTP'>"
p5076
sS'HR'
p5077
S"<class 'gluon.html.HR'>"
p5078
sS'IS_DATETIME'
p5079
S"<class 'gluon.validators.IS_DATETIME'>"
p5080
sS'HEAD'
p5081
S"<class 'gluon.html.HEAD'>"
p5082
sS'LABEL'
p5083
S"<class 'gluon.html.LABEL'>"
p5084
sS'CLEANUP'
p5085
S"<class 'gluon.validators.CLEANUP'>"
p5086
sS'plugins'
p5087
S'<gluon.tools.PluginManager object at 0x05B9D1B0>'
p5088
sS'SELECT'
p5089
S"<class 'gluon.html.SELECT'>"
p5090
sS'use_janrain'
p5091
S'<function use_janrain at 0x028848B0>'
p5092
sS'CENTER'
p5093
S"<class 'gluon.html.CENTER'>"
p5094
sS'prettydate'
p5095
S'<function prettydate at 0x028840B0>'
p5096
sS'Crud'
p5097
S"<class 'gluon.tools.Crud'>"
p5098
sS'Auth'
p5099
S"<class 'gluon.tools.Auth'>"
p5100
sS'__builtins__'
p5101
S"{'ArithmeticError': <type 'exceptions.ArithmeticError'>, 'AssertionError': <type 'exceptions.AssertionError'>, 'AttributeError': <type 'exceptions.AttributeError'>, 'BaseException': <type 'exceptions.BaseException'>, 'DeprecationWarning': <type 'exceptions.DeprecationWarning'>, 'EOFError': <type 'exceptions.EOFError'>, 'Ellipsis': Ellipsis, 'EnvironmentError': <type 'exceptions.EnvironmentError'>, 'Exception': <type 'exceptions.Exception'>, 'False': False, ...}"
p5102
sS'HTML'
p5103
S"<class 'gluon.html.HTML'>"
p5104
sS'SQLFORM'
p5105
S"<class 'gluon.sqlhtml.SQLFORM'>"
p5106
sS'EM'
p5107
S"<class 'gluon.html.EM'>"
p5108
sS'redirect'
p5109
S'<function redirect at 0x01B344B0>'
p5110
sS'FIELDSET'
p5111
S"<class 'gluon.html.FIELDSET'>"
p5112
sS'IS_EQUAL_TO'
p5113
S"<class 'gluon.validators.IS_EQUAL_TO'>"
p5114
sS'embed64'
p5115
S'<function embed64 at 0x01EF53B0>'
p5116
sS'IS_LIST_OF'
p5117
S"<class 'gluon.validators.IS_LIST_OF'>"
p5118
sS'INPUT'
p5119
S"<class 'gluon.html.INPUT'>"
p5120
sS'EMBED'
p5121
S"<class 'gluon.html.EMBED'>"
p5122
sS'_'
S'<function _ at 0x05B46FB0>'
p5123
sS'FORM'
p5124
S"<class 'gluon.html.FORM'>"
p5125
sS'H2'
p5126
S"<class 'gluon.html.H2'>"
p5127
sS'H3'
p5128
S"<class 'gluon.html.H3'>"
p5129
sS'BUTTON'
p5130
S"<class 'gluon.html.BUTTON'>"
p5131
sS'H1'
p5132
S"<class 'gluon.html.H1'>"
p5133
sS'H6'
p5134
S"<class 'gluon.html.H6'>"
p5135
sS'H4'
p5136
S"<class 'gluon.html.H4'>"
p5137
sS'H5'
p5138
S"<class 'gluon.html.H5'>"
p5139
sS'UL'
p5140
S"<class 'gluon.html.UL'>"
p5141
sS'IS_UPPER'
p5142
S"<class 'gluon.validators.IS_UPPER'>"
p5143
sS'xmlescape'
p5144
S'<function xmlescape at 0x01EEF830>'
p5145
sS'IS_TIME'
p5146
S"<class 'gluon.validators.IS_TIME'>"
p5147
sS'OPTION'
p5148
S"<class 'gluon.html.OPTION'>"
p5149
sS'TITLE'
p5150
S"<class 'gluon.html.TITLE'>"
p5151
sS'CRYPT'
p5152
S"<class 'gluon.validators.CRYPT'>"
p5153
sS'IS_EMPTY_OR'
p5154
S"<class 'gluon.validators.IS_EMPTY_OR'>"
p5155
sS'MARKMIN'
p5156
S"<class 'gluon.html.MARKMIN'>"
p5157
sS'table'
p5158
S'"{\'OpaqueRef:755e997f-837c-d830-58f1-1b2d1b674057...: {}, \'VBDs\': [], \'memory_overhead\': \'10485760\'}}"'
p5159
sS'COL'
p5160
S"<class 'gluon.html.COL'>"
p5161
sS'service'
p5162
S'<gluon.tools.Service object at 0x05E56ED0>'
p5163
sS'SCRIPT'
p5164
S"<class 'gluon.html.SCRIPT'>"
p5165
sS'is_mobile'
p5166
g92
sS'TABLE'
p5167
S"<class 'gluon.html.TABLE'>"
p5168
sS'IS_IPV4'
p5169
S"<class 'gluon.validators.IS_IPV4'>"
p5170
sS'IS_LENGTH'
p5171
S"<class 'gluon.validators.IS_LENGTH'>"
p5172
sS'XML'
p5173
S"<class 'gluon.html.XML'>"
p5174
sS'B'
S"<class 'gluon.html.B'>"
p5175
sS'IMG'
p5176
S"<class 'gluon.html.IMG'>"
p5177
sS'SQLTABLE'
p5178
S"<class 'gluon.sqlhtml.SQLTABLE'>"
p5179
sS'IS_MATCH'
p5180
S"<class 'gluon.validators.IS_MATCH'>"
p5181
sS'IS_ALPHANUMERIC'
p5182
S"<class 'gluon.validators.IS_ALPHANUMERIC'>"
p5183
sS'SPAN'
p5184
S"<class 'gluon.html.SPAN'>"
p5185
sS'IS_SLUG'
p5186
S"<class 'gluon.validators.IS_SLUG'>"
p5187
sS'BEAUTIFY'
p5188
S"<class 'gluon.html.BEAUTIFY'>"
p5189
sS'META'
p5190
S"<class 'gluon.html.META'>"
p5191
sS'IS_DATE'
p5192
S"<class 'gluon.validators.IS_DATE'>"
p5193
sS'IS_EMAIL'
p5194
S"<class 'gluon.validators.IS_EMAIL'>"
p5195
sS'IS_NOT_EMPTY'
p5196
S"<class 'gluon.validators.IS_NOT_EMPTY'>"
p5197
sS'IS_FLOAT_IN_RANGE'
p5198
S"<class 'gluon.validators.IS_FLOAT_IN_RANGE'>"
p5199
sS'TBODY'
p5200
S"<class 'gluon.html.TBODY'>"
p5201
sS'CAT'
p5202
S"<class 'gluon.html.CAT'>"
p5203
sS'Field'
p5204
S"<class 'gluon.dal.Field'>"
p5205
sS'middle_columns'
p5206
S"'sixteen'"
p5207
sS'DIV'
p5208
S"<class 'gluon.html.DIV'>"
p5209
sS'LEGEND'
p5210
S"<class 'gluon.html.LEGEND'>"
p5211
sS'COLGROUP'
p5212
S"<class 'gluon.html.COLGROUP'>"
p5213
sS'DAL'
p5214
S"<class 'gluon.dal.DAL'>"
p5215
sS'TT'
p5216
S"<class 'gluon.html.TT'>"
p5217
sS'TR'
p5218
S"<class 'gluon.html.TR'>"
p5219
sS'LI'
p5220
S"<class 'gluon.html.LI'>"
p5221
sS'right_sidebar_enabled'
p5222
g92
sS'IFRAME'
p5223
S"<class 'gluon.html.IFRAME'>"
p5224
sS'TD'
p5225
S"<class 'gluon.html.TD'>"
p5226
sS'PluginManager'
p5227
S"<class 'gluon.tools.PluginManager'>"
p5228
sS'IS_URL'
p5229
S"<class 'gluon.validators.IS_URL'>"
p5230
sS'A'
S"<class 'gluon.html.A'>"
p5231
sS'STYLE'
p5232
S"<class 'gluon.html.STYLE'>"
p5233
sS'IS_DATETIME_IN_RANGE'
p5234
S"<class 'gluon.validators.IS_DATETIME_IN_RANGE'>"
p5235
sS'IS_IMAGE'
p5236
S"<class 'gluon.validators.IS_IMAGE'>"
p5237
sS'I'
S"<class 'gluon.html.I'>"
p5238
sS'crud'
p5239
S'<gluon.tools.Crud object at 0x05E56BD0>'
p5240
sS'IS_NOT_IN_DB'
p5241
S"<class 'gluon.validators.IS_NOT_IN_DB'>"
p5242
sg2944
S"<Storage {'body': <cStringIO.StringO object at 0...da> at 0x06190330>, 'view': 'listvm/index.html'}>"
p5243
sS'THEAD'
p5244
S"<class 'gluon.html.THEAD'>"
p5245
sS'IS_NULL_OR'
p5246
S"<class 'gluon.validators.IS_EMPTY_OR'>"
p5247
sg48
S"<Storage {'body': <cStringIO.StringO object at 0..._vars': <Storage {}>, 'post_vars': <Storage {}>}>"
p5248
sS'IS_EXPR'
p5249
S"<class 'gluon.validators.IS_EXPR'>"
p5250
sS'T'
S'<gluon.languages.translator object at 0x05E70910>'
p5251
sS'IS_IN_SET'
p5252
S"<class 'gluon.validators.IS_IN_SET'>"
p5253
sS'IS_UPLOAD_FILENAME'
p5254
S"<class 'gluon.validators.IS_UPLOAD_FILENAME'>"
p5255
sS'IS_DECIMAL_IN_RANGE'
p5256
S"<class 'gluon.validators.IS_DECIMAL_IN_RANGE'>"
p5257
sssS'traceback'
p5258
S'Traceback (most recent call last):\n  File "gluon/restricted.py", line 204, in restricted\n  File "C:\\Users\\nilton\\Desktop\\scripts\\curso_de_python\\web2py\\applications\\xcpadmin\\views\\listvm/index.html", line 78, in <module>\nTypeError: string indices must be integers\n'
p5259
s.