(dp1
S'output'
p2
S"<type 'exceptions.SyntaxError'> keyword can't be an expression (listvm/index.html, line 84)"
p3
sS'layer'
p4
S'C:\\Users\\nilton\\Desktop\\scripts\\curso_de_python\\web2py\\applications\\xcpadmin\\views\\listvm/index.html'
p5
sS'code'
p6
S'response.write(\'<!DOCTYPE html>\\n<!-- paulirish.com/2008/conditional-stylesheets-vs-css-hacks-answer-neither/ -->\\n<!--[if lt IE 7]><html class="ie ie6 ie-lte9 ie-lte8 ie-lte7 no-js" lang="\', escape=False)\nresponse.write(T.accepted_language or \'en\')\nresponse.write(\'"> <![endif]-->\\n<!--[if IE 7]><html class="ie ie7 ie-lte9 ie-lte8 ie-lte7 no-js" lang="\', escape=False)\nresponse.write(T.accepted_language or \'en\')\nresponse.write(\'"> <![endif]-->\\n<!--[if IE 8]><html class="ie ie8 ie-lte9 ie-lte8 no-js" lang="\', escape=False)\nresponse.write(T.accepted_language or \'en\')\nresponse.write(\'"> <![endif]-->\\n<!--[if IE 9]><html class="ie9 ie-lte9 no-js" lang="\', escape=False)\nresponse.write(T.accepted_language or \'en\')\nresponse.write(\'"> <![endif]-->\\n<!--[if (gt IE 9)|!(IE)]><!--> <html class="no-js" lang="\', escape=False)\nresponse.write(T.accepted_language or \'en\')\nresponse.write(\'"> <!--<![endif]-->\\n<head>\\n  <meta charset="utf-8" />\\n  <!-- www.phpied.com/conditional-comments-block-downloads/ -->\\n  <!-- Always force latest IE rendering engine\\n\\t   (even in intranet) & Chrome Frame\\n\\t   Remove this if you use the .htaccess -->\\n  <!--[if IE]>\\n    <meta http-equiv="X-UA-Compatible" content="IE=edge\', escape=False)\nresponse.write(not request.is_local and \',chrome=1\' or \'\')\nresponse.write(\'">\\n  <![endif]-->\\n  \\n  <title>\', escape=False)\nresponse.write(response.title or request.application)\nresponse.write(\'</title>\\n  \\n  <!-- http://dev.w3.org/html5/markup/meta.name.html -->\\n  <meta name="application-name" content="\', escape=False)\nresponse.write(request.application)\nresponse.write(\'" />\\n  \\n  <!-- Speaking of Google, don\\\'t forget to set your site up:\\n\\t   http://google.com/webmasters -->\\n  <meta name="google-site-verification" content="" />\\n\\n  <!--  Mobile Viewport Fix\\n\\t  j.mp/mobileviewport & davidbcalhoun.com/2010/viewport-metatag\\n\\t  device-width: Occupy full width of the screen in its current orientation\\n\\t  initial-scale = 1.0 retains dimensions instead of zooming out if page height > device height\\n\\t  user-scalable = yes allows the user to zoom in -->\\n  <meta name="viewport" content="width=device-width, initial-scale=1.0, user-scalable=yes">\\n  \\n  <!-- Place favicon.ico and apple-touch-icon.png in the root of your domain and delete these references -->\\n  <link rel="shortcut icon" href="\', escape=False)\nresponse.write(URL(\'static\',\'favicon.ico\'))\nresponse.write(\'" type="image/x-icon">\\n  <link rel="apple-touch-icon" href="\', escape=False)\nresponse.write(URL(\'static\',\'favicon.png\'))\nresponse.write(\'">\\n\\n  <!-- All JavaScript at the bottom, except for Modernizr which enables \\n\\t   HTML5 elements & feature detects -->\\n  <script src="\', escape=False)\nresponse.write(URL(\'static\',\'js/modernizr.custom.js\'))\nresponse.write(\'"></script>  \\n\\n  <!-- include stylesheets -->\\n  \', escape=False)\nresponse.files.append(URL(\'static\',\'css/skeleton.css\'))\nresponse.files.append(URL(\'static\',\'css/web2py.css\'))\nresponse.files.append(URL(\'static\',\'css/superfish.css\'))\nresponse.files.append(URL(\'static\',\'js/superfish.js\'))\nresponse.write(\'\\n\\n  \', escape=False)\nresponse.write(\'<script type="text/javascript"><!--\\n    // These variables are used by the web2py_ajax_init function in web2py_ajax.js (which is loaded below).\\n    var w2p_ajax_confirm_message = "\', escape=False)\nresponse.write(T(\'Are you sure you want to delete this object?\'))\nresponse.write(\'";\\n    var w2p_ajax_date_format = "\', escape=False)\nresponse.write(T(\'%Y-%m-%d\'))\nresponse.write(\'";\\n    var w2p_ajax_datetime_format = "\', escape=False)\nresponse.write(T(\'%Y-%m-%d %H:%M:%S\'))\nresponse.write(\'";\\n    //--></script>\\n\', escape=False)\nresponse.files.insert(0,URL(\'static\',\'js/jquery.js\'))\nresponse.files.insert(1,URL(\'static\',\'css/calendar.css\'))\nresponse.files.insert(2,URL(\'static\',\'js/calendar.js\'))\nresponse.files.insert(3,URL(\'static\',\'js/web2py.js\'))\nresponse.include_meta()\nresponse.include_files()\nresponse.write(\'\\n\', escape=False)\nresponse.write(\'\\n\\n  <script type="text/javascript">\\n    jQuery(function(){ jQuery(\\\'ul.sf-menu\\\').supersubs({minWidth:12,maxWidth:30,extraWidth:3}).superfish(); });\\n  </script>\\n\\n  \', escape=False)\n# using sidebars need to know what sidebar you want to use\nleft_sidebar_enabled = globals().get(\'left_sidebar_enabled\',False)\nright_sidebar_enabled = globals().get(\'right_sidebar_enabled\',False)\nmiddle_columns = {0:\'sixteen\',1:\'twelve\',2:\'eight\'}[\n(left_sidebar_enabled and 1 or 0)+(right_sidebar_enabled and 1 or 0)]\nresponse.write(\'\\n\\n  <!-- uncomment here to load jquery-ui\\n  <link rel="stylesheet" href="http://ajax.googleapis.com/ajax/libs/jqueryui/1.8.16/themes/base/jquery-ui.css" type="text/css" media="all" />\\n  <script src="http://ajax.googleapis.com/ajax/libs/jqueryui/1.8.16/jquery-ui.min.js" type="text/javascript"></script>\\n  uncomment to load jquery-ui //-->\\n</head>\\n<body>\\n  <div class="wrapper"><!-- for sticky footer -->\\n  \\n    <div class="topbar">\\n      <div class="container">    \\n        <div class="sixteen columns">\\n          <div id="navbar">\', escape=False)\nresponse.write(\'auth\' in globals() and auth.navbar(separators=(\' \',\' | \',\'\')))\nresponse.write(\'</div>\\n          \', escape=False)\nis_mobile=request.user_agent().is_mobile\nresponse.write(\'\\n          <div id="menu">\', escape=False)\nresponse.write(MENU(response.menu, _class=\'mobile-menu\' if is_mobile else \'sf-menu\',mobile=is_mobile))\nresponse.write(\'\\n          </div>\\n        </div>\\n      </div>\\n    </div><!-- topbar -->\\n    \\n    <div class="flash">\', escape=False)\nresponse.write(response.flash or \'\')\nresponse.write(\'</div>\\n    \\n    <div class="header">\\n      <div class="container">         \\n        <div class="sixteen columns">\\n          <h1 class="remove-bottom" style="margin-top: .5em;">\\n          \', escape=False)\nresponse.write(response.title or request.application)\nresponse.write(\'\\n          </h1>\\n          <h5>\', escape=False)\nresponse.write(response.subtitle or \'\')\nresponse.write(\'</h5>\\n        </div>\\n        <div class="sixteen columns">\\n          <div class="statusbar clearfix">\\n            \', escape=False)\nresponse.write(\'\\n            <div class="breadcrumbs">\', escape=False)\nresponse.write(request.function.replace(\'_\', \' \').title())\nresponse.write(\'</div>\\n            \', escape=False)\nresponse.write(\'\\n            <!-- AddToAny BEGIN -->\\n            <div style="float:right; padding-top: .25em;" class="a2a_kit a2a_default_style">\\n            <a class="a2a_dd" href="http://www.addtoany.com/share_save">Share</a></div>\\n            <script type="text/javascript" src="http://static.addtoany.com/menu/page.js"></script>\\n            <!-- AddToAny END -->\\n          </div>\\n        </div>\\n      </div>\\n    </div>\\n\\n    <div class="main">\\n      <div class="container">                 \\n        \', escape=False)\nif left_sidebar_enabled:\n    response.write(\'\\n        <div class="four columns left-sidebar">\\n          \', escape=False)\n    response.write(\'\\n          <h3>Left Sidebar</h3>\\n          <p></p>\\n          \', escape=False)\n    response.write(\'\\n        </div>\\n        \', escape=False)\n    pass\nresponse.write(\'\\n        \\n        <div class="\', escape=False)\nresponse.write(middle_columns)\nresponse.write(\' columns center">\\n          \', escape=False)\nresponse.write(\'\\n          \', escape=False)\nresponse.write(\'\\r\\n<h3>LIST VMs</h3>\\r\\n\\r\\n\\r\\n<table class="blahblahblah">\\r\\n<th> \', escape=False)\nT("Title")\nresponse.write(\' </th>\\r\\n<th> \', escape=False)\nT("Location")\nresponse.write(\' </th>\\r\\n\', escape=False)\nfor row in table:\n    response.write(\'\\r\\n<tr>\\r\\n\', escape=False)\n    if not(table[row]["is_a_template"]) and not(table[row]["is_control_domain"]):\n        response.write(\'\\r\\n\', escape=False)\n        response.write(table[row]["memory_static_max"] = int(table[row]["memory_static_max"]) / (1024 *1024))\n        response.write(\'\\r\\n<td>NOME: \', escape=False)\n        response.write(table[row]["name_label"])\n        response.write(\' </td>\\r\\n<td>MEMORIA: \', escape=False)\n        response.write(table[row]["memory_static_max"])\n        response.write(\' </td>\\r\\n<td>UUID: \', escape=False)\n        response.write(table[row]["uuid"])\n        response.write(\' </td>\\r\\n<td>STATUS \', escape=False)\n        response.write(table[row]["power_state"])\n        response.write(\' </td>\\r\\n\', escape=False)\n        pass\n    response.write(\'\\r\\n</tr>\\r\\n\', escape=False)\n    pass\nresponse.write(\'\\r\\n</table>\\r\\n\\r\\n<h3>Templates</h3>\\r\\n<table class="blahblahblah">\\r\\n<th> \', escape=False)\nT("Title")\nresponse.write(\' </th>\\r\\n<th> \', escape=False)\nT("Location")\nresponse.write(\' </th>\\r\\n\', escape=False)\nfor row in table:\n    response.write(\'\\r\\n<tr>\\r\\n\', escape=False)\n    if (table[row]["is_a_template"]) and not(table[row]["is_control_domain"]):\n        response.write(\'\\r\\n<td>NOME: \', escape=False)\n        response.write(table[row]["name_label"])\n        response.write(\' </td>\\r\\n<td>MEMORIA: \', escape=False)\n        response.write(table[row]["memory_static_max"])\n        response.write(\' </td>\\r\\n<td>UUID: \', escape=False)\n        response.write(table[row]["uuid"])\n        response.write(\' </td>\\r\\n\', escape=False)\n        pass\n    response.write(\'\\r\\n</tr>\\r\\n\', escape=False)\n    pass\nresponse.write(\'\\r\\n</table>\\r\\n\', escape=False)\nresponse.write(\'\\n          \', escape=False)\nresponse.write(\'\\n        </div>\\n        \\n        \', escape=False)\nif right_sidebar_enabled:\n    response.write(\'\\n        <div class="four columns">\\n          \', escape=False)\n    response.write(\'\\n          <h3>Right Sidebar</h3>\\n          <p></p>\\n          \', escape=False)\n    response.write(\'\\n        </div>    \\n        \', escape=False)\n    pass\nresponse.write(\'\\n        \\n      </div><!-- container -->\\n    </div><!-- main -->\\n    \\n    <div class="push"></div>\\n  </div><!-- wrapper -->\\n\\n  <div class="footer">\\n    <div class="container">    \\n      <div class="sixteen columns">\\n        \', escape=False)\nresponse.write(\' <!-- this is default footer -->\\n        <div class="footer-content clearfix">\\n          <div class="copyright">\', escape=False)\nresponse.write(T(\'Copyright\'))\nresponse.write(\' &#169; 2011</div>\\n          <div style="float: right;">\\n            <a href="http://www.web2py.com/">\\n            <img style="padding-bottom: 0;" src="\', escape=False)\nresponse.write(URL(\'static\',\'images/poweredby.png\'))\nresponse.write(\'"/>\\n            </a>\\n          </div>\\n        </div>\\n        \', escape=False)\nresponse.write(\'\\t\\n      </div>\\n    </div><!-- container -->\\n  </div><!-- footer -->\\n  \\n  <!--[if lt IE 7 ]>\\n\\t<script src="\', escape=False)\nresponse.write(URL(\'static\',\'js/dd_belatedpng.js\'))\nresponse.write(\'"></script>\\n\\t<script> DD_belatedPNG.fix(\\\'img, .png_bg\\\'); //fix any <img> or .png_bg background-images </script>\\n\\t<![endif]-->\\n  \', escape=False)\nif response.google_analytics_id:\n    response.write(\'<script type="text/javascript"> var _gaq = _gaq || []; _gaq.push([\\\'_setAccount\\\', \\\'\', escape=False)\n    response.write(response.google_analytics_id)\n    response.write("\']); _gaq.push([\'_trackPageview\']); (function() { var ga = document.createElement(\'script\'); ga.type = \'text/javascript\'; ga.async = true; ga.src = (\'https:\' == document.location.protocol ? \'https://ssl\' : \'http://www\') + \'.google-analytics.com/ga.js\'; var s = document.getElementsByTagName(\'script\')[0]; s.parentNode.insertBefore(ga, s); })(); </script> ", escape=False)\n    pass\nresponse.write(\'\\n</body>\\n</html>\\n\', escape=False)'
p7
sS'snapshot'
p8
(dp9
S'exception'
p10
(dp11
S'__getslice__'
p12
S"<method-wrapper '__getslice__' of exceptions.SyntaxError object at 0x05F28EB0>"
p13
sS'text'
p14
S"''"
p15
sS'__str__'
p16
S"<method-wrapper '__str__' of exceptions.SyntaxError object at 0x05F28EB0>"
p17
sS'__reduce__'
p18
S'<built-in method __reduce__ of exceptions.SyntaxError object at 0x05F28EB0>'
p19
sS'__dict__'
p20
S'{}'
p21
sS'__init__'
p22
S"<method-wrapper '__init__' of exceptions.SyntaxError object at 0x05F28EB0>"
p23
sS'__setattr__'
p24
S"<method-wrapper '__setattr__' of exceptions.SyntaxError object at 0x05F28EB0>"
p25
sS'__reduce_ex__'
p26
S'<built-in method __reduce_ex__ of exceptions.SyntaxError object at 0x05F28EB0>'
p27
sS'__new__'
p28
S'<built-in method __new__ of type object at 0x1E1CDBD0>'
p29
sS'__class__'
p30
S"<type 'exceptions.SyntaxError'>"
p31
sS'filename'
p32
S"r'C:\\Users\\nilton\\Desktop\\scripts\\curso_de_python\\web2py\\applications\\xcpadmin\\views\\listvm/index.html'"
p33
sS'lineno'
p34
S'84'
p35
sS'msg'
p36
S'"keyword can\'t be an expression"'
p37
sS'__doc__'
p38
S"'Invalid syntax.'"
p39
sS'__getitem__'
p40
S"<method-wrapper '__getitem__' of exceptions.SyntaxError object at 0x05F28EB0>"
p41
sS'__setstate__'
p42
S'<built-in method __setstate__ of exceptions.SyntaxError object at 0x05F28EB0>'
p43
sS'__getattribute__'
p44
S"<method-wrapper '__getattribute__' of exceptions.SyntaxError object at 0x05F28EB0>"
p45
sS'print_file_and_line'
p46
S'None'
p47
sS'args'
p48
S'("keyword can\'t be an expression", (r\'C:\\Users\\nilton\\Desktop\\scripts\\curso_de_python\\web2py\\applications\\xcpadmin\\views\\listvm/index.html\', 84, None, \'\'))'
p49
sS'offset'
p50
S'None'
p51
sS'__delattr__'
p52
S"<method-wrapper '__delattr__' of exceptions.SyntaxError object at 0x05F28EB0>"
p53
sS'__repr__'
p54
S"<method-wrapper '__repr__' of exceptions.SyntaxError object at 0x05F28EB0>"
p55
sS'__hash__'
p56
S"<method-wrapper '__hash__' of exceptions.SyntaxError object at 0x05F28EB0>"
p57
ssS'evalue'
p58
S"keyword can't be an expression (listvm/index.html, line 84)"
p59
sS'request'
p60
ccopy_reg
_reconstructor
p61
(cgluon.html
BEAUTIFY
p62
c__builtin__
object
p63
NtRp64
(dp65
S'attributes'
p66
(dp67
sS'components'
p68
(lp69
g61
(cgluon.html
TABLE
p70
g63
NtRp71
(dp72
g66
(dp73
S'level'
p74
I5
ssS'parent'
p75
Nsg68
(lp76
g61
(cgluon.html
TR
p77
g63
NtRp78
(dp79
g66
(dp80
sg75
g71
sg68
(lp81
g61
(cgluon.html
TD
p82
g63
NtRp83
(dp84
g66
(dp85
S'_style'
p86
S'font-weight:bold;vertical-align:top'
p87
ssg75
g78
sg68
(lp88
S'ajax'
p89
asbag61
(g82
g63
NtRp90
(dp91
g66
(dp92
S'_valign'
p93
S'top'
p94
ssg75
g78
sg68
(lp95
S':'
asbag61
(g82
g63
NtRp96
(dp97
g66
(dp98
sg75
g78
sg68
(lp99
g61
(g62
g63
NtRp100
(dp101
g66
(dp102
g74
I5
ssg75
g96
sg68
(lp103
S'False'
p104
asbasbasbag61
(g77
g63
NtRp105
(dp106
g66
(dp107
sg75
g71
sg68
(lp108
g61
(g82
g63
NtRp109
(dp110
g66
(dp111
g86
g87
ssg75
g105
sg68
(lp112
S'application'
p113
asbag61
(g82
g63
NtRp114
(dp115
g66
(dp116
g93
g94
ssg75
g105
sg68
(lp117
S':'
asbag61
(g82
g63
NtRp118
(dp119
g66
(dp120
sg75
g105
sg68
(lp121
g61
(g62
g63
NtRp122
(dp123
g66
(dp124
g74
I5
ssg75
g118
sg68
(lp125
S'xcpadmin'
p126
asbasbasbag61
(g77
g63
NtRp127
(dp128
g66
(dp129
sg75
g71
sg68
(lp130
g61
(g82
g63
NtRp131
(dp132
g66
(dp133
g86
g87
ssg75
g127
sg68
(lp134
g48
asbag61
(g82
g63
NtRp135
(dp136
g66
(dp137
g93
g94
ssg75
g127
sg68
(lp138
S':'
asbag61
(g82
g63
NtRp139
(dp140
g66
(dp141
sg75
g127
sg68
(lp142
g61
(g62
g63
NtRp143
(dp144
g66
(dp145
g74
I5
ssg75
g139
sg68
(lp146
g61
(g70
g63
NtRp147
(dp148
g66
(dp149
g74
I4
ssg75
Nsg68
(lp150
sbasbasbasbag61
(g77
g63
NtRp151
(dp152
g66
(dp153
sg75
g71
sg68
(lp154
g61
(g82
g63
NtRp155
(dp156
g66
(dp157
g86
g87
ssg75
g151
sg68
(lp158
S'body'
p159
asbag61
(g82
g63
NtRp160
(dp161
g66
(dp162
g93
g94
ssg75
g151
sg68
(lp163
S':'
asbag61
(g82
g63
NtRp164
(dp165
g66
(dp166
sg75
g151
sg68
(lp167
g61
(g62
g63
NtRp168
(dp169
g66
(dp170
g74
I5
ssg75
g164
sg68
(lp171
S'<cStringIO.StringO object at 0x0629E360>'
p172
asbasbasbag61
(g77
g63
NtRp173
(dp174
g66
(dp175
sg75
g71
sg68
(lp176
g61
(g82
g63
NtRp177
(dp178
g66
(dp179
g86
g87
ssg75
g173
sg68
(lp180
S'client'
p181
asbag61
(g82
g63
NtRp182
(dp183
g66
(dp184
g93
g94
ssg75
g173
sg68
(lp185
S':'
asbag61
(g82
g63
NtRp186
(dp187
g66
(dp188
sg75
g173
sg68
(lp189
g61
(g62
g63
NtRp190
(dp191
g66
(dp192
g74
I5
ssg75
g186
sg68
(lp193
S'127.0.0.1'
p194
asbasbasbag61
(g77
g63
NtRp195
(dp196
g66
(dp197
sg75
g71
sg68
(lp198
g61
(g82
g63
NtRp199
(dp200
g66
(dp201
g86
g87
ssg75
g195
sg68
(lp202
S'controller'
p203
asbag61
(g82
g63
NtRp204
(dp205
g66
(dp206
g93
g94
ssg75
g195
sg68
(lp207
S':'
asbag61
(g82
g63
NtRp208
(dp209
g66
(dp210
sg75
g195
sg68
(lp211
g61
(g62
g63
NtRp212
(dp213
g66
(dp214
g74
I5
ssg75
g208
sg68
(lp215
S'listvm'
p216
asbasbasbag61
(g77
g63
NtRp217
(dp218
g66
(dp219
sg75
g71
sg68
(lp220
g61
(g82
g63
NtRp221
(dp222
g66
(dp223
g86
g87
ssg75
g217
sg68
(lp224
S'cookies'
p225
asbag61
(g82
g63
NtRp226
(dp227
g66
(dp228
g93
g94
ssg75
g217
sg68
(lp229
S':'
asbag61
(g82
g63
NtRp230
(dp231
g66
(dp232
sg75
g217
sg68
(lp233
g61
(g62
g63
NtRp234
(dp235
g66
(dp236
g74
I5
ssg75
g230
sg68
(lp237
g61
(g70
g63
NtRp238
(dp239
g66
(dp240
g74
I4
ssg75
Nsg68
(lp241
g61
(g77
g63
NtRp242
(dp243
g66
(dp244
sg75
g238
sg68
(lp245
g61
(g82
g63
NtRp246
(dp247
g66
(dp248
g86
g87
ssg75
g242
sg68
(lp249
S'session_id_admin'
p250
asbag61
(g82
g63
NtRp251
(dp252
g66
(dp253
g93
g94
ssg75
g242
sg68
(lp254
S':'
asbag61
(g82
g63
NtRp255
(dp256
g66
(dp257
sg75
g242
sg68
(lp258
g61
(g62
g63
NtRp259
(dp260
g66
(dp261
g74
I4
ssg75
g255
sg68
(lp262
g61
(g70
g63
NtRp263
(dp264
g66
(dp265
g74
I3
ssg75
Nsg68
(lp266
g61
(g77
g63
NtRp267
(dp268
g66
(dp269
sg75
g263
sg68
(lp270
g61
(g82
g63
NtRp271
(dp272
g66
(dp273
g86
g87
ssg75
g267
sg68
(lp274
S'comment'
p275
asbag61
(g82
g63
NtRp276
(dp277
g66
(dp278
g93
g94
ssg75
g267
sg68
(lp279
S':'
asbag61
(g82
g63
NtRp280
(dp281
g66
(dp282
sg75
g267
sg68
(lp283
g61
(g62
g63
NtRp284
(dp285
g66
(dp286
g74
I3
ssg75
g280
sg68
(lp287
S''
asbasbasbag61
(g77
g63
NtRp288
(dp289
g66
(dp290
sg75
g263
sg68
(lp291
g61
(g82
g63
NtRp292
(dp293
g66
(dp294
g86
g87
ssg75
g288
sg68
(lp295
S'domain'
p296
asbag61
(g82
g63
NtRp297
(dp298
g66
(dp299
g93
g94
ssg75
g288
sg68
(lp300
S':'
asbag61
(g82
g63
NtRp301
(dp302
g66
(dp303
sg75
g288
sg68
(lp304
g61
(g62
g63
NtRp305
(dp306
g66
(dp307
g74
I3
ssg75
g301
sg68
(lp308
S''
asbasbasbag61
(g77
g63
NtRp309
(dp310
g66
(dp311
sg75
g263
sg68
(lp312
g61
(g82
g63
NtRp313
(dp314
g66
(dp315
g86
g87
ssg75
g309
sg68
(lp316
S'expires'
p317
asbag61
(g82
g63
NtRp318
(dp319
g66
(dp320
g93
g94
ssg75
g309
sg68
(lp321
S':'
asbag61
(g82
g63
NtRp322
(dp323
g66
(dp324
sg75
g309
sg68
(lp325
g61
(g62
g63
NtRp326
(dp327
g66
(dp328
g74
I3
ssg75
g322
sg68
(lp329
S''
asbasbasbag61
(g77
g63
NtRp330
(dp331
g66
(dp332
sg75
g263
sg68
(lp333
g61
(g82
g63
NtRp334
(dp335
g66
(dp336
g86
g87
ssg75
g330
sg68
(lp337
S'max-age'
p338
asbag61
(g82
g63
NtRp339
(dp340
g66
(dp341
g93
g94
ssg75
g330
sg68
(lp342
S':'
asbag61
(g82
g63
NtRp343
(dp344
g66
(dp345
sg75
g330
sg68
(lp346
g61
(g62
g63
NtRp347
(dp348
g66
(dp349
g74
I3
ssg75
g343
sg68
(lp350
S''
asbasbasbag61
(g77
g63
NtRp351
(dp352
g66
(dp353
sg75
g263
sg68
(lp354
g61
(g82
g63
NtRp355
(dp356
g66
(dp357
g86
g87
ssg75
g351
sg68
(lp358
S'path'
p359
asbag61
(g82
g63
NtRp360
(dp361
g66
(dp362
g93
g94
ssg75
g351
sg68
(lp363
S':'
asbag61
(g82
g63
NtRp364
(dp365
g66
(dp366
sg75
g351
sg68
(lp367
g61
(g62
g63
NtRp368
(dp369
g66
(dp370
g74
I3
ssg75
g364
sg68
(lp371
S''
asbasbasbag61
(g77
g63
NtRp372
(dp373
g66
(dp374
sg75
g263
sg68
(lp375
g61
(g82
g63
NtRp376
(dp377
g66
(dp378
g86
g87
ssg75
g372
sg68
(lp379
S'secure'
p380
asbag61
(g82
g63
NtRp381
(dp382
g66
(dp383
g93
g94
ssg75
g372
sg68
(lp384
S':'
asbag61
(g82
g63
NtRp385
(dp386
g66
(dp387
sg75
g372
sg68
(lp388
g61
(g62
g63
NtRp389
(dp390
g66
(dp391
g74
I3
ssg75
g385
sg68
(lp392
S''
asbasbasbag61
(g77
g63
NtRp393
(dp394
g66
(dp395
sg75
g263
sg68
(lp396
g61
(g82
g63
NtRp397
(dp398
g66
(dp399
g86
g87
ssg75
g393
sg68
(lp400
S'version'
p401
asbag61
(g82
g63
NtRp402
(dp403
g66
(dp404
g93
g94
ssg75
g393
sg68
(lp405
S':'
asbag61
(g82
g63
NtRp406
(dp407
g66
(dp408
sg75
g393
sg68
(lp409
g61
(g62
g63
NtRp410
(dp411
g66
(dp412
g74
I3
ssg75
g406
sg68
(lp413
S''
asbasbasbasbasbasbasbag61
(g77
g63
NtRp414
(dp415
g66
(dp416
sg75
g238
sg68
(lp417
g61
(g82
g63
NtRp418
(dp419
g66
(dp420
g86
g87
ssg75
g414
sg68
(lp421
S'session_id_welcome'
p422
asbag61
(g82
g63
NtRp423
(dp424
g66
(dp425
g93
g94
ssg75
g414
sg68
(lp426
S':'
asbag61
(g82
g63
NtRp427
(dp428
g66
(dp429
sg75
g414
sg68
(lp430
g61
(g62
g63
NtRp431
(dp432
g66
(dp433
g74
I4
ssg75
g427
sg68
(lp434
g61
(g70
g63
NtRp435
(dp436
g66
(dp437
g74
I3
ssg75
Nsg68
(lp438
g61
(g77
g63
NtRp439
(dp440
g66
(dp441
sg75
g435
sg68
(lp442
g61
(g82
g63
NtRp443
(dp444
g66
(dp445
g86
g87
ssg75
g439
sg68
(lp446
g275
asbag61
(g82
g63
NtRp447
(dp448
g66
(dp449
g93
g94
ssg75
g439
sg68
(lp450
S':'
asbag61
(g82
g63
NtRp451
(dp452
g66
(dp453
sg75
g439
sg68
(lp454
g61
(g62
g63
NtRp455
(dp456
g66
(dp457
g74
I3
ssg75
g451
sg68
(lp458
S''
asbasbasbag61
(g77
g63
NtRp459
(dp460
g66
(dp461
sg75
g435
sg68
(lp462
g61
(g82
g63
NtRp463
(dp464
g66
(dp465
g86
g87
ssg75
g459
sg68
(lp466
g296
asbag61
(g82
g63
NtRp467
(dp468
g66
(dp469
g93
g94
ssg75
g459
sg68
(lp470
S':'
asbag61
(g82
g63
NtRp471
(dp472
g66
(dp473
sg75
g459
sg68
(lp474
g61
(g62
g63
NtRp475
(dp476
g66
(dp477
g74
I3
ssg75
g471
sg68
(lp478
S''
asbasbasbag61
(g77
g63
NtRp479
(dp480
g66
(dp481
sg75
g435
sg68
(lp482
g61
(g82
g63
NtRp483
(dp484
g66
(dp485
g86
g87
ssg75
g479
sg68
(lp486
g317
asbag61
(g82
g63
NtRp487
(dp488
g66
(dp489
g93
g94
ssg75
g479
sg68
(lp490
S':'
asbag61
(g82
g63
NtRp491
(dp492
g66
(dp493
sg75
g479
sg68
(lp494
g61
(g62
g63
NtRp495
(dp496
g66
(dp497
g74
I3
ssg75
g491
sg68
(lp498
S''
asbasbasbag61
(g77
g63
NtRp499
(dp500
g66
(dp501
sg75
g435
sg68
(lp502
g61
(g82
g63
NtRp503
(dp504
g66
(dp505
g86
g87
ssg75
g499
sg68
(lp506
g338
asbag61
(g82
g63
NtRp507
(dp508
g66
(dp509
g93
g94
ssg75
g499
sg68
(lp510
S':'
asbag61
(g82
g63
NtRp511
(dp512
g66
(dp513
sg75
g499
sg68
(lp514
g61
(g62
g63
NtRp515
(dp516
g66
(dp517
g74
I3
ssg75
g511
sg68
(lp518
S''
asbasbasbag61
(g77
g63
NtRp519
(dp520
g66
(dp521
sg75
g435
sg68
(lp522
g61
(g82
g63
NtRp523
(dp524
g66
(dp525
g86
g87
ssg75
g519
sg68
(lp526
g359
asbag61
(g82
g63
NtRp527
(dp528
g66
(dp529
g93
g94
ssg75
g519
sg68
(lp530
S':'
asbag61
(g82
g63
NtRp531
(dp532
g66
(dp533
sg75
g519
sg68
(lp534
g61
(g62
g63
NtRp535
(dp536
g66
(dp537
g74
I3
ssg75
g531
sg68
(lp538
S''
asbasbasbag61
(g77
g63
NtRp539
(dp540
g66
(dp541
sg75
g435
sg68
(lp542
g61
(g82
g63
NtRp543
(dp544
g66
(dp545
g86
g87
ssg75
g539
sg68
(lp546
g380
asbag61
(g82
g63
NtRp547
(dp548
g66
(dp549
g93
g94
ssg75
g539
sg68
(lp550
S':'
asbag61
(g82
g63
NtRp551
(dp552
g66
(dp553
sg75
g539
sg68
(lp554
g61
(g62
g63
NtRp555
(dp556
g66
(dp557
g74
I3
ssg75
g551
sg68
(lp558
S''
asbasbasbag61
(g77
g63
NtRp559
(dp560
g66
(dp561
sg75
g435
sg68
(lp562
g61
(g82
g63
NtRp563
(dp564
g66
(dp565
g86
g87
ssg75
g559
sg68
(lp566
g401
asbag61
(g82
g63
NtRp567
(dp568
g66
(dp569
g93
g94
ssg75
g559
sg68
(lp570
S':'
asbag61
(g82
g63
NtRp571
(dp572
g66
(dp573
sg75
g559
sg68
(lp574
g61
(g62
g63
NtRp575
(dp576
g66
(dp577
g74
I3
ssg75
g571
sg68
(lp578
S''
asbasbasbasbasbasbasbag61
(g77
g63
NtRp579
(dp580
g66
(dp581
sg75
g238
sg68
(lp582
g61
(g82
g63
NtRp583
(dp584
g66
(dp585
g86
g87
ssg75
g579
sg68
(lp586
S'session_id_xcpadmin'
p587
asbag61
(g82
g63
NtRp588
(dp589
g66
(dp590
g93
g94
ssg75
g579
sg68
(lp591
S':'
asbag61
(g82
g63
NtRp592
(dp593
g66
(dp594
sg75
g579
sg68
(lp595
g61
(g62
g63
NtRp596
(dp597
g66
(dp598
g74
I4
ssg75
g592
sg68
(lp599
g61
(g70
g63
NtRp600
(dp601
g66
(dp602
g74
I3
ssg75
Nsg68
(lp603
g61
(g77
g63
NtRp604
(dp605
g66
(dp606
sg75
g600
sg68
(lp607
g61
(g82
g63
NtRp608
(dp609
g66
(dp610
g86
g87
ssg75
g604
sg68
(lp611
g275
asbag61
(g82
g63
NtRp612
(dp613
g66
(dp614
g93
g94
ssg75
g604
sg68
(lp615
S':'
asbag61
(g82
g63
NtRp616
(dp617
g66
(dp618
sg75
g604
sg68
(lp619
g61
(g62
g63
NtRp620
(dp621
g66
(dp622
g74
I3
ssg75
g616
sg68
(lp623
S''
asbasbasbag61
(g77
g63
NtRp624
(dp625
g66
(dp626
sg75
g600
sg68
(lp627
g61
(g82
g63
NtRp628
(dp629
g66
(dp630
g86
g87
ssg75
g624
sg68
(lp631
g296
asbag61
(g82
g63
NtRp632
(dp633
g66
(dp634
g93
g94
ssg75
g624
sg68
(lp635
S':'
asbag61
(g82
g63
NtRp636
(dp637
g66
(dp638
sg75
g624
sg68
(lp639
g61
(g62
g63
NtRp640
(dp641
g66
(dp642
g74
I3
ssg75
g636
sg68
(lp643
S''
asbasbasbag61
(g77
g63
NtRp644
(dp645
g66
(dp646
sg75
g600
sg68
(lp647
g61
(g82
g63
NtRp648
(dp649
g66
(dp650
g86
g87
ssg75
g644
sg68
(lp651
g317
asbag61
(g82
g63
NtRp652
(dp653
g66
(dp654
g93
g94
ssg75
g644
sg68
(lp655
S':'
asbag61
(g82
g63
NtRp656
(dp657
g66
(dp658
sg75
g644
sg68
(lp659
g61
(g62
g63
NtRp660
(dp661
g66
(dp662
g74
I3
ssg75
g656
sg68
(lp663
S''
asbasbasbag61
(g77
g63
NtRp664
(dp665
g66
(dp666
sg75
g600
sg68
(lp667
g61
(g82
g63
NtRp668
(dp669
g66
(dp670
g86
g87
ssg75
g664
sg68
(lp671
g338
asbag61
(g82
g63
NtRp672
(dp673
g66
(dp674
g93
g94
ssg75
g664
sg68
(lp675
S':'
asbag61
(g82
g63
NtRp676
(dp677
g66
(dp678
sg75
g664
sg68
(lp679
g61
(g62
g63
NtRp680
(dp681
g66
(dp682
g74
I3
ssg75
g676
sg68
(lp683
S''
asbasbasbag61
(g77
g63
NtRp684
(dp685
g66
(dp686
sg75
g600
sg68
(lp687
g61
(g82
g63
NtRp688
(dp689
g66
(dp690
g86
g87
ssg75
g684
sg68
(lp691
g359
asbag61
(g82
g63
NtRp692
(dp693
g66
(dp694
g93
g94
ssg75
g684
sg68
(lp695
S':'
asbag61
(g82
g63
NtRp696
(dp697
g66
(dp698
sg75
g684
sg68
(lp699
g61
(g62
g63
NtRp700
(dp701
g66
(dp702
g74
I3
ssg75
g696
sg68
(lp703
S''
asbasbasbag61
(g77
g63
NtRp704
(dp705
g66
(dp706
sg75
g600
sg68
(lp707
g61
(g82
g63
NtRp708
(dp709
g66
(dp710
g86
g87
ssg75
g704
sg68
(lp711
g380
asbag61
(g82
g63
NtRp712
(dp713
g66
(dp714
g93
g94
ssg75
g704
sg68
(lp715
S':'
asbag61
(g82
g63
NtRp716
(dp717
g66
(dp718
sg75
g704
sg68
(lp719
g61
(g62
g63
NtRp720
(dp721
g66
(dp722
g74
I3
ssg75
g716
sg68
(lp723
S''
asbasbasbag61
(g77
g63
NtRp724
(dp725
g66
(dp726
sg75
g600
sg68
(lp727
g61
(g82
g63
NtRp728
(dp729
g66
(dp730
g86
g87
ssg75
g724
sg68
(lp731
g401
asbag61
(g82
g63
NtRp732
(dp733
g66
(dp734
g93
g94
ssg75
g724
sg68
(lp735
S':'
asbag61
(g82
g63
NtRp736
(dp737
g66
(dp738
sg75
g724
sg68
(lp739
g61
(g62
g63
NtRp740
(dp741
g66
(dp742
g74
I3
ssg75
g736
sg68
(lp743
S''
asbasbasbasbasbasbasbasbasbasbasbag61
(g77
g63
NtRp744
(dp745
g66
(dp746
sg75
g71
sg68
(lp747
g61
(g82
g63
NtRp748
(dp749
g66
(dp750
g86
g87
ssg75
g744
sg68
(lp751
S'env'
p752
asbag61
(g82
g63
NtRp753
(dp754
g66
(dp755
g93
g94
ssg75
g744
sg68
(lp756
S':'
asbag61
(g82
g63
NtRp757
(dp758
g66
(dp759
sg75
g744
sg68
(lp760
g61
(g62
g63
NtRp761
(dp762
g66
(dp763
g74
I5
ssg75
g757
sg68
(lp764
g61
(g70
g63
NtRp765
(dp766
g66
(dp767
g74
I4
ssg75
Nsg68
(lp768
g61
(g77
g63
NtRp769
(dp770
g66
(dp771
sg75
g765
sg68
(lp772
g61
(g82
g63
NtRp773
(dp774
g66
(dp775
g86
g87
ssg75
g769
sg68
(lp776
S'app_folders'
p777
asbag61
(g82
g63
NtRp778
(dp779
g66
(dp780
g93
g94
ssg75
g769
sg68
(lp781
S':'
asbag61
(g82
g63
NtRp782
(dp783
g66
(dp784
sg75
g769
sg68
(lp785
g61
(g62
g63
NtRp786
(dp787
g66
(dp788
g74
I4
ssg75
g782
sg68
(lp789
S"set(['C:\\\\Users\\\\nilton\\\\Desktop\\\\scripts\\\\curso_de_python\\\\web2py\\\\applications\\\\admin\\\\', 'C:\\\\Users\\\\nilton\\\\Desktop\\\\scripts\\\\curso_de_python\\\\web2py\\\\applications\\\\xcpadmin\\\\', 'C:\\\\Users\\\\nilton\\\\Desktop\\\\scripts\\\\curso_de_python\\\\web2py\\\\applications\\\\welcome\\\\'])"
p790
asbasbasbag61
(g77
g63
NtRp791
(dp792
g66
(dp793
sg75
g765
sg68
(lp794
g61
(g82
g63
NtRp795
(dp796
g66
(dp797
g86
g87
ssg75
g791
sg68
(lp798
S'applications_parent'
p799
asbag61
(g82
g63
NtRp800
(dp801
g66
(dp802
g93
g94
ssg75
g791
sg68
(lp803
S':'
asbag61
(g82
g63
NtRp804
(dp805
g66
(dp806
sg75
g791
sg68
(lp807
g61
(g62
g63
NtRp808
(dp809
g66
(dp810
g74
I4
ssg75
g804
sg68
(lp811
S'C:\\Users\\nilton\\Desktop\\scripts\\curso_de_python\\web2py'
p812
asbasbasbag61
(g77
g63
NtRp813
(dp814
g66
(dp815
sg75
g765
sg68
(lp816
g61
(g82
g63
NtRp817
(dp818
g66
(dp819
g86
g87
ssg75
g813
sg68
(lp820
S'cmd_args'
p821
asbag61
(g82
g63
NtRp822
(dp823
g66
(dp824
g93
g94
ssg75
g813
sg68
(lp825
S':'
asbag61
(g82
g63
NtRp826
(dp827
g66
(dp828
sg75
g813
sg68
(lp829
g61
(g62
g63
NtRp830
(dp831
g66
(dp832
g74
I4
ssg75
g826
sg68
(lp833
g61
(g70
g63
NtRp834
(dp835
g66
(dp836
g74
I3
ssg75
Nsg68
(lp837
sbasbasbasbag61
(g77
g63
NtRp838
(dp839
g66
(dp840
sg75
g765
sg68
(lp841
g61
(g82
g63
NtRp842
(dp843
g66
(dp844
g86
g87
ssg75
g838
sg68
(lp845
S'cmd_options'
p846
asbag61
(g82
g63
NtRp847
(dp848
g66
(dp849
g93
g94
ssg75
g838
sg68
(lp850
S':'
asbag61
(g82
g63
NtRp851
(dp852
g66
(dp853
sg75
g838
sg68
(lp854
g61
(g62
g63
NtRp855
(dp856
g66
(dp857
g74
I4
ssg75
g851
sg68
(lp858
S"<Values at 0x27674b8: {'verbose': False, 'ip': '127.0.0.1', 'shutdown_timeout': 5, 'taskbar': False, 'nocron': False, 'pid_filename': 'httpserver.pid', 'maxthreads': None, 'softcron': False, 'server_name': 'nilton-NOT', 'bpython': False, 'nogui': False, 'port': 8000, 'extcron': False, 'debuglevel': 30, 'test': None, 'folder': 'C:\\\\Users\\\\nilton\\\\Desktop\\\\scripts\\\\curso_de_python\\\\web2py', 'config': '', 'import_models': False, 'winservice': '', 'shell': None, 'run': '', 'log_filename': 'httpserver.log', 'args': [''], 'socket_timeout': 1, 'ssl_ca_certificate': None, 'scheduler': None, 'profiler_filename': None, 'ssl_private_key': '', 'password': '<ask>', 'request_queue_size': 5, 'ssl_certificate': '', 'cronjob': False, 'numthreads': None, 'quiet': False, 'interfaces': None, 'minthreads': None, 'timeout': 10, 'plain': False, 'nobanner': False}>"
p859
asbasbasbag61
(g77
g63
NtRp860
(dp861
g66
(dp862
sg75
g765
sg68
(lp863
g61
(g82
g63
NtRp864
(dp865
g66
(dp866
g86
g87
ssg75
g860
sg68
(lp867
S'db_sessions'
p868
asbag61
(g82
g63
NtRp869
(dp870
g66
(dp871
g93
g94
ssg75
g860
sg68
(lp872
S':'
asbag61
(g82
g63
NtRp873
(dp874
g66
(dp875
sg75
g860
sg68
(lp876
g61
(g62
g63
NtRp877
(dp878
g66
(dp879
g74
I4
ssg75
g873
sg68
(lp880
S'set([])'
p881
asbasbasbag61
(g77
g63
NtRp882
(dp883
g66
(dp884
sg75
g765
sg68
(lp885
g61
(g82
g63
NtRp886
(dp887
g66
(dp888
g86
g87
ssg75
g882
sg68
(lp889
S'debugging'
p890
asbag61
(g82
g63
NtRp891
(dp892
g66
(dp893
g93
g94
ssg75
g882
sg68
(lp894
S':'
asbag61
(g82
g63
NtRp895
(dp896
g66
(dp897
sg75
g882
sg68
(lp898
g61
(g62
g63
NtRp899
(dp900
g66
(dp901
g74
I4
ssg75
g895
sg68
(lp902
g104
asbasbasbag61
(g77
g63
NtRp903
(dp904
g66
(dp905
sg75
g765
sg68
(lp906
g61
(g82
g63
NtRp907
(dp908
g66
(dp909
g86
g87
ssg75
g903
sg68
(lp910
S'gluon_parent'
p911
asbag61
(g82
g63
NtRp912
(dp913
g66
(dp914
g93
g94
ssg75
g903
sg68
(lp915
S':'
asbag61
(g82
g63
NtRp916
(dp917
g66
(dp918
sg75
g903
sg68
(lp919
g61
(g62
g63
NtRp920
(dp921
g66
(dp922
g74
I4
ssg75
g916
sg68
(lp923
S'C:\\Users\\nilton\\Desktop\\scripts\\curso_de_python\\web2py'
p924
asbasbasbag61
(g77
g63
NtRp925
(dp926
g66
(dp927
sg75
g765
sg68
(lp928
g61
(g82
g63
NtRp929
(dp930
g66
(dp931
g86
g87
ssg75
g925
sg68
(lp932
S'http_accept'
p933
asbag61
(g82
g63
NtRp934
(dp935
g66
(dp936
g93
g94
ssg75
g925
sg68
(lp937
S':'
asbag61
(g82
g63
NtRp938
(dp939
g66
(dp940
sg75
g925
sg68
(lp941
g61
(g62
g63
NtRp942
(dp943
g66
(dp944
g74
I4
ssg75
g938
sg68
(lp945
S'text/html,application/xhtml+xml,application/xml;q=0.9,*/*;q=0.8'
p946
asbasbasbag61
(g77
g63
NtRp947
(dp948
g66
(dp949
sg75
g765
sg68
(lp950
g61
(g82
g63
NtRp951
(dp952
g66
(dp953
g86
g87
ssg75
g947
sg68
(lp954
S'http_accept_charset'
p955
asbag61
(g82
g63
NtRp956
(dp957
g66
(dp958
g93
g94
ssg75
g947
sg68
(lp959
S':'
asbag61
(g82
g63
NtRp960
(dp961
g66
(dp962
sg75
g947
sg68
(lp963
g61
(g62
g63
NtRp964
(dp965
g66
(dp966
g74
I4
ssg75
g960
sg68
(lp967
S'ISO-8859-1,utf-8;q=0.7,*;q=0.7'
p968
asbasbasbag61
(g77
g63
NtRp969
(dp970
g66
(dp971
sg75
g765
sg68
(lp972
g61
(g82
g63
NtRp973
(dp974
g66
(dp975
g86
g87
ssg75
g969
sg68
(lp976
S'http_accept_encoding'
p977
asbag61
(g82
g63
NtRp978
(dp979
g66
(dp980
g93
g94
ssg75
g969
sg68
(lp981
S':'
asbag61
(g82
g63
NtRp982
(dp983
g66
(dp984
sg75
g969
sg68
(lp985
g61
(g62
g63
NtRp986
(dp987
g66
(dp988
g74
I4
ssg75
g982
sg68
(lp989
S'gzip, deflate'
p990
asbasbasbag61
(g77
g63
NtRp991
(dp992
g66
(dp993
sg75
g765
sg68
(lp994
g61
(g82
g63
NtRp995
(dp996
g66
(dp997
g86
g87
ssg75
g991
sg68
(lp998
S'http_accept_language'
p999
asbag61
(g82
g63
NtRp1000
(dp1001
g66
(dp1002
g93
g94
ssg75
g991
sg68
(lp1003
S':'
asbag61
(g82
g63
NtRp1004
(dp1005
g66
(dp1006
sg75
g991
sg68
(lp1007
g61
(g62
g63
NtRp1008
(dp1009
g66
(dp1010
g74
I4
ssg75
g1004
sg68
(lp1011
S'pt-br,pt;q=0.8,en-us;q=0.5,en;q=0.3'
p1012
asbasbasbag61
(g77
g63
NtRp1013
(dp1014
g66
(dp1015
sg75
g765
sg68
(lp1016
g61
(g82
g63
NtRp1017
(dp1018
g66
(dp1019
g86
g87
ssg75
g1013
sg68
(lp1020
S'http_cache_control'
p1021
asbag61
(g82
g63
NtRp1022
(dp1023
g66
(dp1024
g93
g94
ssg75
g1013
sg68
(lp1025
S':'
asbag61
(g82
g63
NtRp1026
(dp1027
g66
(dp1028
sg75
g1013
sg68
(lp1029
g61
(g62
g63
NtRp1030
(dp1031
g66
(dp1032
g74
I4
ssg75
g1026
sg68
(lp1033
S'max-age=0'
p1034
asbasbasbag61
(g77
g63
NtRp1035
(dp1036
g66
(dp1037
sg75
g765
sg68
(lp1038
g61
(g82
g63
NtRp1039
(dp1040
g66
(dp1041
g86
g87
ssg75
g1035
sg68
(lp1042
S'http_connection'
p1043
asbag61
(g82
g63
NtRp1044
(dp1045
g66
(dp1046
g93
g94
ssg75
g1035
sg68
(lp1047
S':'
asbag61
(g82
g63
NtRp1048
(dp1049
g66
(dp1050
sg75
g1035
sg68
(lp1051
g61
(g62
g63
NtRp1052
(dp1053
g66
(dp1054
g74
I4
ssg75
g1048
sg68
(lp1055
S'keep-alive'
p1056
asbasbasbag61
(g77
g63
NtRp1057
(dp1058
g66
(dp1059
sg75
g765
sg68
(lp1060
g61
(g82
g63
NtRp1061
(dp1062
g66
(dp1063
g86
g87
ssg75
g1057
sg68
(lp1064
S'http_cookie'
p1065
asbag61
(g82
g63
NtRp1066
(dp1067
g66
(dp1068
g93
g94
ssg75
g1057
sg68
(lp1069
S':'
asbag61
(g82
g63
NtRp1070
(dp1071
g66
(dp1072
sg75
g1057
sg68
(lp1073
g61
(g62
g63
NtRp1074
(dp1075
g66
(dp1076
g74
I4
ssg75
g1070
sg68
(lp1077
S'session_id_welcome=127.0.0.1-e2ee4819-196b-48ee-b9a6-c158d9c6823f; session_id_xcpadmin=127.0.0.1-0cb88dcb-67b2-4748-8846-25f35503a0e7; session_id_admin=127.0.0.1-4133fdb4-b4c5-4fa8-b713-fdd8b0e34bbb'
p1078
asbasbasbag61
(g77
g63
NtRp1079
(dp1080
g66
(dp1081
sg75
g765
sg68
(lp1082
g61
(g82
g63
NtRp1083
(dp1084
g66
(dp1085
g86
g87
ssg75
g1079
sg68
(lp1086
S'http_host'
p1087
asbag61
(g82
g63
NtRp1088
(dp1089
g66
(dp1090
g93
g94
ssg75
g1079
sg68
(lp1091
S':'
asbag61
(g82
g63
NtRp1092
(dp1093
g66
(dp1094
sg75
g1079
sg68
(lp1095
g61
(g62
g63
NtRp1096
(dp1097
g66
(dp1098
g74
I4
ssg75
g1092
sg68
(lp1099
S'127.0.0.1:8000'
p1100
asbasbasbag61
(g77
g63
NtRp1101
(dp1102
g66
(dp1103
sg75
g765
sg68
(lp1104
g61
(g82
g63
NtRp1105
(dp1106
g66
(dp1107
g86
g87
ssg75
g1101
sg68
(lp1108
S'http_user_agent'
p1109
asbag61
(g82
g63
NtRp1110
(dp1111
g66
(dp1112
g93
g94
ssg75
g1101
sg68
(lp1113
S':'
asbag61
(g82
g63
NtRp1114
(dp1115
g66
(dp1116
sg75
g1101
sg68
(lp1117
g61
(g62
g63
NtRp1118
(dp1119
g66
(dp1120
g74
I4
ssg75
g1114
sg68
(lp1121
S'Mozilla/5.0 (Windows NT 6.1; rv:9.0.1) Gecko/20100101 Firefox/9.0.1'
p1122
asbasbasbag61
(g77
g63
NtRp1123
(dp1124
g66
(dp1125
sg75
g765
sg68
(lp1126
g61
(g82
g63
NtRp1127
(dp1128
g66
(dp1129
g86
g87
ssg75
g1123
sg68
(lp1130
S'is_jython'
p1131
asbag61
(g82
g63
NtRp1132
(dp1133
g66
(dp1134
g93
g94
ssg75
g1123
sg68
(lp1135
S':'
asbag61
(g82
g63
NtRp1136
(dp1137
g66
(dp1138
sg75
g1123
sg68
(lp1139
g61
(g62
g63
NtRp1140
(dp1141
g66
(dp1142
g74
I4
ssg75
g1136
sg68
(lp1143
g104
asbasbasbag61
(g77
g63
NtRp1144
(dp1145
g66
(dp1146
sg75
g765
sg68
(lp1147
g61
(g82
g63
NtRp1148
(dp1149
g66
(dp1150
g86
g87
ssg75
g1144
sg68
(lp1151
S'is_pypy'
p1152
asbag61
(g82
g63
NtRp1153
(dp1154
g66
(dp1155
g93
g94
ssg75
g1144
sg68
(lp1156
S':'
asbag61
(g82
g63
NtRp1157
(dp1158
g66
(dp1159
sg75
g1144
sg68
(lp1160
g61
(g62
g63
NtRp1161
(dp1162
g66
(dp1163
g74
I4
ssg75
g1157
sg68
(lp1164
g104
asbasbasbag61
(g77
g63
NtRp1165
(dp1166
g66
(dp1167
sg75
g765
sg68
(lp1168
g61
(g82
g63
NtRp1169
(dp1170
g66
(dp1171
g86
g87
ssg75
g1165
sg68
(lp1172
S'path_info'
p1173
asbag61
(g82
g63
NtRp1174
(dp1175
g66
(dp1176
g93
g94
ssg75
g1165
sg68
(lp1177
S':'
asbag61
(g82
g63
NtRp1178
(dp1179
g66
(dp1180
sg75
g1165
sg68
(lp1181
g61
(g62
g63
NtRp1182
(dp1183
g66
(dp1184
g74
I4
ssg75
g1178
sg68
(lp1185
S'/xcpadmin/listvm'
p1186
asbasbasbag61
(g77
g63
NtRp1187
(dp1188
g66
(dp1189
sg75
g765
sg68
(lp1190
g61
(g82
g63
NtRp1191
(dp1192
g66
(dp1193
g86
g87
ssg75
g1187
sg68
(lp1194
S'query_string'
p1195
asbag61
(g82
g63
NtRp1196
(dp1197
g66
(dp1198
g93
g94
ssg75
g1187
sg68
(lp1199
S':'
asbag61
(g82
g63
NtRp1200
(dp1201
g66
(dp1202
sg75
g1187
sg68
(lp1203
g61
(g62
g63
NtRp1204
(dp1205
g66
(dp1206
g74
I4
ssg75
g1200
sg68
(lp1207
S''
asbasbasbag61
(g77
g63
NtRp1208
(dp1209
g66
(dp1210
sg75
g765
sg68
(lp1211
g61
(g82
g63
NtRp1212
(dp1213
g66
(dp1214
g86
g87
ssg75
g1208
sg68
(lp1215
S'remote_addr'
p1216
asbag61
(g82
g63
NtRp1217
(dp1218
g66
(dp1219
g93
g94
ssg75
g1208
sg68
(lp1220
S':'
asbag61
(g82
g63
NtRp1221
(dp1222
g66
(dp1223
sg75
g1208
sg68
(lp1224
g61
(g62
g63
NtRp1225
(dp1226
g66
(dp1227
g74
I4
ssg75
g1221
sg68
(lp1228
g194
asbasbasbag61
(g77
g63
NtRp1229
(dp1230
g66
(dp1231
sg75
g765
sg68
(lp1232
g61
(g82
g63
NtRp1233
(dp1234
g66
(dp1235
g86
g87
ssg75
g1229
sg68
(lp1236
S'remote_port'
p1237
asbag61
(g82
g63
NtRp1238
(dp1239
g66
(dp1240
g93
g94
ssg75
g1229
sg68
(lp1241
S':'
asbag61
(g82
g63
NtRp1242
(dp1243
g66
(dp1244
sg75
g1229
sg68
(lp1245
g61
(g62
g63
NtRp1246
(dp1247
g66
(dp1248
g74
I4
ssg75
g1242
sg68
(lp1249
S'53955'
p1250
asbasbasbag61
(g77
g63
NtRp1251
(dp1252
g66
(dp1253
sg75
g765
sg68
(lp1254
g61
(g82
g63
NtRp1255
(dp1256
g66
(dp1257
g86
g87
ssg75
g1251
sg68
(lp1258
S'request_method'
p1259
asbag61
(g82
g63
NtRp1260
(dp1261
g66
(dp1262
g93
g94
ssg75
g1251
sg68
(lp1263
S':'
asbag61
(g82
g63
NtRp1264
(dp1265
g66
(dp1266
sg75
g1251
sg68
(lp1267
g61
(g62
g63
NtRp1268
(dp1269
g66
(dp1270
g74
I4
ssg75
g1264
sg68
(lp1271
S'GET'
p1272
asbasbasbag61
(g77
g63
NtRp1273
(dp1274
g66
(dp1275
sg75
g765
sg68
(lp1276
g61
(g82
g63
NtRp1277
(dp1278
g66
(dp1279
g86
g87
ssg75
g1273
sg68
(lp1280
S'script_name'
p1281
asbag61
(g82
g63
NtRp1282
(dp1283
g66
(dp1284
g93
g94
ssg75
g1273
sg68
(lp1285
S':'
asbag61
(g82
g63
NtRp1286
(dp1287
g66
(dp1288
sg75
g1273
sg68
(lp1289
g61
(g62
g63
NtRp1290
(dp1291
g66
(dp1292
g74
I4
ssg75
g1286
sg68
(lp1293
S''
asbasbasbag61
(g77
g63
NtRp1294
(dp1295
g66
(dp1296
sg75
g765
sg68
(lp1297
g61
(g82
g63
NtRp1298
(dp1299
g66
(dp1300
g86
g87
ssg75
g1294
sg68
(lp1301
S'server_name'
p1302
asbag61
(g82
g63
NtRp1303
(dp1304
g66
(dp1305
g93
g94
ssg75
g1294
sg68
(lp1306
S':'
asbag61
(g82
g63
NtRp1307
(dp1308
g66
(dp1309
sg75
g1294
sg68
(lp1310
g61
(g62
g63
NtRp1311
(dp1312
g66
(dp1313
g74
I4
ssg75
g1307
sg68
(lp1314
S'nilton-NOT'
p1315
asbasbasbag61
(g77
g63
NtRp1316
(dp1317
g66
(dp1318
sg75
g765
sg68
(lp1319
g61
(g82
g63
NtRp1320
(dp1321
g66
(dp1322
g86
g87
ssg75
g1316
sg68
(lp1323
S'server_port'
p1324
asbag61
(g82
g63
NtRp1325
(dp1326
g66
(dp1327
g93
g94
ssg75
g1316
sg68
(lp1328
S':'
asbag61
(g82
g63
NtRp1329
(dp1330
g66
(dp1331
sg75
g1316
sg68
(lp1332
g61
(g62
g63
NtRp1333
(dp1334
g66
(dp1335
g74
I4
ssg75
g1329
sg68
(lp1336
S'8000'
p1337
asbasbasbag61
(g77
g63
NtRp1338
(dp1339
g66
(dp1340
sg75
g765
sg68
(lp1341
g61
(g82
g63
NtRp1342
(dp1343
g66
(dp1344
g86
g87
ssg75
g1338
sg68
(lp1345
S'server_protocol'
p1346
asbag61
(g82
g63
NtRp1347
(dp1348
g66
(dp1349
g93
g94
ssg75
g1338
sg68
(lp1350
S':'
asbag61
(g82
g63
NtRp1351
(dp1352
g66
(dp1353
sg75
g1338
sg68
(lp1354
g61
(g62
g63
NtRp1355
(dp1356
g66
(dp1357
g74
I4
ssg75
g1351
sg68
(lp1358
S'HTTP/1.1'
p1359
asbasbasbag61
(g77
g63
NtRp1360
(dp1361
g66
(dp1362
sg75
g765
sg68
(lp1363
g61
(g82
g63
NtRp1364
(dp1365
g66
(dp1366
g86
g87
ssg75
g1360
sg68
(lp1367
S'server_software'
p1368
asbag61
(g82
g63
NtRp1369
(dp1370
g66
(dp1371
g93
g94
ssg75
g1360
sg68
(lp1372
S':'
asbag61
(g82
g63
NtRp1373
(dp1374
g66
(dp1375
sg75
g1360
sg68
(lp1376
g61
(g62
g63
NtRp1377
(dp1378
g66
(dp1379
g74
I4
ssg75
g1373
sg68
(lp1380
S'Rocket 1.2.4'
p1381
asbasbasbag61
(g77
g63
NtRp1382
(dp1383
g66
(dp1384
sg75
g765
sg68
(lp1385
g61
(g82
g63
NtRp1386
(dp1387
g66
(dp1388
g86
g87
ssg75
g1382
sg68
(lp1389
S'web2py_crontype'
p1390
asbag61
(g82
g63
NtRp1391
(dp1392
g66
(dp1393
g93
g94
ssg75
g1382
sg68
(lp1394
S':'
asbag61
(g82
g63
NtRp1395
(dp1396
g66
(dp1397
sg75
g1382
sg68
(lp1398
g61
(g62
g63
NtRp1399
(dp1400
g66
(dp1401
g74
I4
ssg75
g1395
sg68
(lp1402
S'hard'
p1403
asbasbasbag61
(g77
g63
NtRp1404
(dp1405
g66
(dp1406
sg75
g765
sg68
(lp1407
g61
(g82
g63
NtRp1408
(dp1409
g66
(dp1410
g86
g87
ssg75
g1404
sg68
(lp1411
S'web2py_path'
p1412
asbag61
(g82
g63
NtRp1413
(dp1414
g66
(dp1415
g93
g94
ssg75
g1404
sg68
(lp1416
S':'
asbag61
(g82
g63
NtRp1417
(dp1418
g66
(dp1419
sg75
g1404
sg68
(lp1420
g61
(g62
g63
NtRp1421
(dp1422
g66
(dp1423
g74
I4
ssg75
g1417
sg68
(lp1424
g812
asbasbasbag61
(g77
g63
NtRp1425
(dp1426
g66
(dp1427
sg75
g765
sg68
(lp1428
g61
(g82
g63
NtRp1429
(dp1430
g66
(dp1431
g86
g87
ssg75
g1425
sg68
(lp1432
S'web2py_version'
p1433
asbag61
(g82
g63
NtRp1434
(dp1435
g66
(dp1436
g93
g94
ssg75
g1425
sg68
(lp1437
S':'
asbag61
(g82
g63
NtRp1438
(dp1439
g66
(dp1440
sg75
g1425
sg68
(lp1441
g61
(g62
g63
NtRp1442
(dp1443
g66
(dp1444
g74
I4
ssg75
g1438
sg68
(lp1445
g61
(g70
g63
NtRp1446
(dp1447
g66
(dp1448
g74
I3
ssg75
Nsg68
(lp1449
g61
(g77
g63
NtRp1450
(dp1451
g66
(dp1452
sg75
g1446
sg68
(lp1453
g61
(g82
g63
NtRp1454
(dp1455
g66
(dp1456
sg75
g1450
sg68
(lp1457
g61
(g62
g63
NtRp1458
(dp1459
g66
(dp1460
g74
I3
ssg75
g1454
sg68
(lp1461
S'1'
asbasbasbag61
(g77
g63
NtRp1462
(dp1463
g66
(dp1464
sg75
g1446
sg68
(lp1465
g61
(g82
g63
NtRp1466
(dp1467
g66
(dp1468
sg75
g1462
sg68
(lp1469
g61
(g62
g63
NtRp1470
(dp1471
g66
(dp1472
g74
I3
ssg75
g1466
sg68
(lp1473
S'99'
p1474
asbasbasbag61
(g77
g63
NtRp1475
(dp1476
g66
(dp1477
sg75
g1446
sg68
(lp1478
g61
(g82
g63
NtRp1479
(dp1480
g66
(dp1481
sg75
g1475
sg68
(lp1482
g61
(g62
g63
NtRp1483
(dp1484
g66
(dp1485
g74
I3
ssg75
g1479
sg68
(lp1486
S'4'
asbasbasbag61
(g77
g63
NtRp1487
(dp1488
g66
(dp1489
sg75
g1446
sg68
(lp1490
g61
(g82
g63
NtRp1491
(dp1492
g66
(dp1493
sg75
g1487
sg68
(lp1494
g61
(g62
g63
NtRp1495
(dp1496
g66
(dp1497
g74
I3
ssg75
g1491
sg68
(lp1498
S'datetime.datetime(2011, 12, 14, 14, 46, 14)'
p1499
asbasbasbag61
(g77
g63
NtRp1500
(dp1501
g66
(dp1502
sg75
g1446
sg68
(lp1503
g61
(g82
g63
NtRp1504
(dp1505
g66
(dp1506
sg75
g1500
sg68
(lp1507
g61
(g62
g63
NtRp1508
(dp1509
g66
(dp1510
g74
I3
ssg75
g1504
sg68
(lp1511
S'stable'
p1512
asbasbasbasbasbasbasbag61
(g77
g63
NtRp1513
(dp1514
g66
(dp1515
sg75
g765
sg68
(lp1516
g61
(g82
g63
NtRp1517
(dp1518
g66
(dp1519
g86
g87
ssg75
g1513
sg68
(lp1520
S'wsgi_errors'
p1521
asbag61
(g82
g63
NtRp1522
(dp1523
g66
(dp1524
g93
g94
ssg75
g1513
sg68
(lp1525
S':'
asbag61
(g82
g63
NtRp1526
(dp1527
g66
(dp1528
sg75
g1513
sg68
(lp1529
g61
(g62
g63
NtRp1530
(dp1531
g66
(dp1532
g74
I4
ssg75
g1526
sg68
(lp1533
S'<__main__.Stderr object at 0x0124A670>'
p1534
asbasbasbag61
(g77
g63
NtRp1535
(dp1536
g66
(dp1537
sg75
g765
sg68
(lp1538
g61
(g82
g63
NtRp1539
(dp1540
g66
(dp1541
g86
g87
ssg75
g1535
sg68
(lp1542
S'wsgi_file_wrapper'
p1543
asbag61
(g82
g63
NtRp1544
(dp1545
g66
(dp1546
g93
g94
ssg75
g1535
sg68
(lp1547
S':'
asbag61
(g82
g63
NtRp1548
(dp1549
g66
(dp1550
sg75
g1535
sg68
(lp1551
g61
(g62
g63
NtRp1552
(dp1553
g66
(dp1554
g74
I4
ssg75
g1548
sg68
(lp1555
S'<class wsgiref.util.FileWrapper at 0x01BDBBA0>'
p1556
asbasbasbag61
(g77
g63
NtRp1557
(dp1558
g66
(dp1559
sg75
g765
sg68
(lp1560
g61
(g82
g63
NtRp1561
(dp1562
g66
(dp1563
g86
g87
ssg75
g1557
sg68
(lp1564
S'wsgi_input'
p1565
asbag61
(g82
g63
NtRp1566
(dp1567
g66
(dp1568
g93
g94
ssg75
g1557
sg68
(lp1569
S':'
asbag61
(g82
g63
NtRp1570
(dp1571
g66
(dp1572
sg75
g1557
sg68
(lp1573
g61
(g62
g63
NtRp1574
(dp1575
g66
(dp1576
g74
I4
ssg75
g1570
sg68
(lp1577
S'<socket._fileobject object at 0x062BA2B0>'
p1578
asbasbasbag61
(g77
g63
NtRp1579
(dp1580
g66
(dp1581
sg75
g765
sg68
(lp1582
g61
(g82
g63
NtRp1583
(dp1584
g66
(dp1585
g86
g87
ssg75
g1579
sg68
(lp1586
S'wsgi_multiprocess'
p1587
asbag61
(g82
g63
NtRp1588
(dp1589
g66
(dp1590
g93
g94
ssg75
g1579
sg68
(lp1591
S':'
asbag61
(g82
g63
NtRp1592
(dp1593
g66
(dp1594
sg75
g1579
sg68
(lp1595
g61
(g62
g63
NtRp1596
(dp1597
g66
(dp1598
g74
I4
ssg75
g1592
sg68
(lp1599
g104
asbasbasbag61
(g77
g63
NtRp1600
(dp1601
g66
(dp1602
sg75
g765
sg68
(lp1603
g61
(g82
g63
NtRp1604
(dp1605
g66
(dp1606
g86
g87
ssg75
g1600
sg68
(lp1607
S'wsgi_multithread'
p1608
asbag61
(g82
g63
NtRp1609
(dp1610
g66
(dp1611
g93
g94
ssg75
g1600
sg68
(lp1612
S':'
asbag61
(g82
g63
NtRp1613
(dp1614
g66
(dp1615
sg75
g1600
sg68
(lp1616
g61
(g62
g63
NtRp1617
(dp1618
g66
(dp1619
g74
I4
ssg75
g1613
sg68
(lp1620
S'True'
p1621
asbasbasbag61
(g77
g63
NtRp1622
(dp1623
g66
(dp1624
sg75
g765
sg68
(lp1625
g61
(g82
g63
NtRp1626
(dp1627
g66
(dp1628
g86
g87
ssg75
g1622
sg68
(lp1629
S'wsgi_run_once'
p1630
asbag61
(g82
g63
NtRp1631
(dp1632
g66
(dp1633
g93
g94
ssg75
g1622
sg68
(lp1634
S':'
asbag61
(g82
g63
NtRp1635
(dp1636
g66
(dp1637
sg75
g1622
sg68
(lp1638
g61
(g62
g63
NtRp1639
(dp1640
g66
(dp1641
g74
I4
ssg75
g1635
sg68
(lp1642
g104
asbasbasbag61
(g77
g63
NtRp1643
(dp1644
g66
(dp1645
sg75
g765
sg68
(lp1646
g61
(g82
g63
NtRp1647
(dp1648
g66
(dp1649
g86
g87
ssg75
g1643
sg68
(lp1650
S'wsgi_url_scheme'
p1651
asbag61
(g82
g63
NtRp1652
(dp1653
g66
(dp1654
g93
g94
ssg75
g1643
sg68
(lp1655
S':'
asbag61
(g82
g63
NtRp1656
(dp1657
g66
(dp1658
sg75
g1643
sg68
(lp1659
g61
(g62
g63
NtRp1660
(dp1661
g66
(dp1662
g74
I4
ssg75
g1656
sg68
(lp1663
S'http'
p1664
asbasbasbag61
(g77
g63
NtRp1665
(dp1666
g66
(dp1667
sg75
g765
sg68
(lp1668
g61
(g82
g63
NtRp1669
(dp1670
g66
(dp1671
g86
g87
ssg75
g1665
sg68
(lp1672
S'wsgi_version'
p1673
asbag61
(g82
g63
NtRp1674
(dp1675
g66
(dp1676
g93
g94
ssg75
g1665
sg68
(lp1677
S':'
asbag61
(g82
g63
NtRp1678
(dp1679
g66
(dp1680
sg75
g1665
sg68
(lp1681
g61
(g62
g63
NtRp1682
(dp1683
g66
(dp1684
g74
I4
ssg75
g1678
sg68
(lp1685
g61
(g70
g63
NtRp1686
(dp1687
g66
(dp1688
g74
I3
ssg75
Nsg68
(lp1689
g61
(g77
g63
NtRp1690
(dp1691
g66
(dp1692
sg75
g1686
sg68
(lp1693
g61
(g82
g63
NtRp1694
(dp1695
g66
(dp1696
sg75
g1690
sg68
(lp1697
g61
(g62
g63
NtRp1698
(dp1699
g66
(dp1700
g74
I3
ssg75
g1694
sg68
(lp1701
S'1'
asbasbasbag61
(g77
g63
NtRp1702
(dp1703
g66
(dp1704
sg75
g1686
sg68
(lp1705
g61
(g82
g63
NtRp1706
(dp1707
g66
(dp1708
sg75
g1702
sg68
(lp1709
g61
(g62
g63
NtRp1710
(dp1711
g66
(dp1712
g74
I3
ssg75
g1706
sg68
(lp1713
S'0'
asbasbasbasbasbasbasbasbasbasbasbag61
(g77
g63
NtRp1714
(dp1715
g66
(dp1716
sg75
g71
sg68
(lp1717
g61
(g82
g63
NtRp1718
(dp1719
g66
(dp1720
g86
g87
ssg75
g1714
sg68
(lp1721
S'extension'
p1722
asbag61
(g82
g63
NtRp1723
(dp1724
g66
(dp1725
g93
g94
ssg75
g1714
sg68
(lp1726
S':'
asbag61
(g82
g63
NtRp1727
(dp1728
g66
(dp1729
sg75
g1714
sg68
(lp1730
g61
(g62
g63
NtRp1731
(dp1732
g66
(dp1733
g74
I5
ssg75
g1727
sg68
(lp1734
S'html'
p1735
asbasbasbag61
(g77
g63
NtRp1736
(dp1737
g66
(dp1738
sg75
g71
sg68
(lp1739
g61
(g82
g63
NtRp1740
(dp1741
g66
(dp1742
g86
g87
ssg75
g1736
sg68
(lp1743
S'folder'
p1744
asbag61
(g82
g63
NtRp1745
(dp1746
g66
(dp1747
g93
g94
ssg75
g1736
sg68
(lp1748
S':'
asbag61
(g82
g63
NtRp1749
(dp1750
g66
(dp1751
sg75
g1736
sg68
(lp1752
g61
(g62
g63
NtRp1753
(dp1754
g66
(dp1755
g74
I5
ssg75
g1749
sg68
(lp1756
S'C:\\Users\\nilton\\Desktop\\scripts\\curso_de_python\\web2py\\applications\\xcpadmin\\'
p1757
asbasbasbag61
(g77
g63
NtRp1758
(dp1759
g66
(dp1760
sg75
g71
sg68
(lp1761
g61
(g82
g63
NtRp1762
(dp1763
g66
(dp1764
g86
g87
ssg75
g1758
sg68
(lp1765
S'function'
p1766
asbag61
(g82
g63
NtRp1767
(dp1768
g66
(dp1769
g93
g94
ssg75
g1758
sg68
(lp1770
S':'
asbag61
(g82
g63
NtRp1771
(dp1772
g66
(dp1773
sg75
g1758
sg68
(lp1774
g61
(g62
g63
NtRp1775
(dp1776
g66
(dp1777
g74
I5
ssg75
g1771
sg68
(lp1778
S'index'
p1779
asbasbasbag61
(g77
g63
NtRp1780
(dp1781
g66
(dp1782
sg75
g71
sg68
(lp1783
g61
(g82
g63
NtRp1784
(dp1785
g66
(dp1786
g86
g87
ssg75
g1780
sg68
(lp1787
S'get_vars'
p1788
asbag61
(g82
g63
NtRp1789
(dp1790
g66
(dp1791
g93
g94
ssg75
g1780
sg68
(lp1792
S':'
asbag61
(g82
g63
NtRp1793
(dp1794
g66
(dp1795
sg75
g1780
sg68
(lp1796
g61
(g62
g63
NtRp1797
(dp1798
g66
(dp1799
g74
I5
ssg75
g1793
sg68
(lp1800
g61
(g70
g63
NtRp1801
(dp1802
g66
(dp1803
g74
I4
ssg75
Nsg68
(lp1804
sbasbasbasbag61
(g77
g63
NtRp1805
(dp1806
g66
(dp1807
sg75
g71
sg68
(lp1808
g61
(g82
g63
NtRp1809
(dp1810
g66
(dp1811
g86
g87
ssg75
g1805
sg68
(lp1812
S'global_settings'
p1813
asbag61
(g82
g63
NtRp1814
(dp1815
g66
(dp1816
g93
g94
ssg75
g1805
sg68
(lp1817
S':'
asbag61
(g82
g63
NtRp1818
(dp1819
g66
(dp1820
sg75
g1805
sg68
(lp1821
g61
(g62
g63
NtRp1822
(dp1823
g66
(dp1824
g74
I5
ssg75
g1818
sg68
(lp1825
g61
(g70
g63
NtRp1826
(dp1827
g66
(dp1828
g74
I4
ssg75
Nsg68
(lp1829
g61
(g77
g63
NtRp1830
(dp1831
g66
(dp1832
sg75
g1826
sg68
(lp1833
g61
(g82
g63
NtRp1834
(dp1835
g66
(dp1836
g86
g87
ssg75
g1830
sg68
(lp1837
g777
asbag61
(g82
g63
NtRp1838
(dp1839
g66
(dp1840
g93
g94
ssg75
g1830
sg68
(lp1841
S':'
asbag61
(g82
g63
NtRp1842
(dp1843
g66
(dp1844
sg75
g1830
sg68
(lp1845
g61
(g62
g63
NtRp1846
(dp1847
g66
(dp1848
g74
I4
ssg75
g1842
sg68
(lp1849
S"set(['C:\\\\Users\\\\nilton\\\\Desktop\\\\scripts\\\\curso_de_python\\\\web2py\\\\applications\\\\admin\\\\', 'C:\\\\Users\\\\nilton\\\\Desktop\\\\scripts\\\\curso_de_python\\\\web2py\\\\applications\\\\xcpadmin\\\\', 'C:\\\\Users\\\\nilton\\\\Desktop\\\\scripts\\\\curso_de_python\\\\web2py\\\\applications\\\\welcome\\\\'])"
p1850
asbasbasbag61
(g77
g63
NtRp1851
(dp1852
g66
(dp1853
sg75
g1826
sg68
(lp1854
g61
(g82
g63
NtRp1855
(dp1856
g66
(dp1857
g86
g87
ssg75
g1851
sg68
(lp1858
g799
asbag61
(g82
g63
NtRp1859
(dp1860
g66
(dp1861
g93
g94
ssg75
g1851
sg68
(lp1862
S':'
asbag61
(g82
g63
NtRp1863
(dp1864
g66
(dp1865
sg75
g1851
sg68
(lp1866
g61
(g62
g63
NtRp1867
(dp1868
g66
(dp1869
g74
I4
ssg75
g1863
sg68
(lp1870
g812
asbasbasbag61
(g77
g63
NtRp1871
(dp1872
g66
(dp1873
sg75
g1826
sg68
(lp1874
g61
(g82
g63
NtRp1875
(dp1876
g66
(dp1877
g86
g87
ssg75
g1871
sg68
(lp1878
g821
asbag61
(g82
g63
NtRp1879
(dp1880
g66
(dp1881
g93
g94
ssg75
g1871
sg68
(lp1882
S':'
asbag61
(g82
g63
NtRp1883
(dp1884
g66
(dp1885
sg75
g1871
sg68
(lp1886
g61
(g62
g63
NtRp1887
(dp1888
g66
(dp1889
g74
I4
ssg75
g1883
sg68
(lp1890
g61
(g70
g63
NtRp1891
(dp1892
g66
(dp1893
g74
I3
ssg75
Nsg68
(lp1894
sbasbasbasbag61
(g77
g63
NtRp1895
(dp1896
g66
(dp1897
sg75
g1826
sg68
(lp1898
g61
(g82
g63
NtRp1899
(dp1900
g66
(dp1901
g86
g87
ssg75
g1895
sg68
(lp1902
g846
asbag61
(g82
g63
NtRp1903
(dp1904
g66
(dp1905
g93
g94
ssg75
g1895
sg68
(lp1906
S':'
asbag61
(g82
g63
NtRp1907
(dp1908
g66
(dp1909
sg75
g1895
sg68
(lp1910
g61
(g62
g63
NtRp1911
(dp1912
g66
(dp1913
g74
I4
ssg75
g1907
sg68
(lp1914
S"<Values at 0x27674b8: {'verbose': False, 'ip': '127.0.0.1', 'shutdown_timeout': 5, 'taskbar': False, 'nocron': False, 'pid_filename': 'httpserver.pid', 'maxthreads': None, 'softcron': False, 'server_name': 'nilton-NOT', 'bpython': False, 'nogui': False, 'port': 8000, 'extcron': False, 'debuglevel': 30, 'test': None, 'folder': 'C:\\\\Users\\\\nilton\\\\Desktop\\\\scripts\\\\curso_de_python\\\\web2py', 'config': '', 'import_models': False, 'winservice': '', 'shell': None, 'run': '', 'log_filename': 'httpserver.log', 'args': [''], 'socket_timeout': 1, 'ssl_ca_certificate': None, 'scheduler': None, 'profiler_filename': None, 'ssl_private_key': '', 'password': '<ask>', 'request_queue_size': 5, 'ssl_certificate': '', 'cronjob': False, 'numthreads': None, 'quiet': False, 'interfaces': None, 'minthreads': None, 'timeout': 10, 'plain': False, 'nobanner': False}>"
p1915
asbasbasbag61
(g77
g63
NtRp1916
(dp1917
g66
(dp1918
sg75
g1826
sg68
(lp1919
g61
(g82
g63
NtRp1920
(dp1921
g66
(dp1922
g86
g87
ssg75
g1916
sg68
(lp1923
g868
asbag61
(g82
g63
NtRp1924
(dp1925
g66
(dp1926
g93
g94
ssg75
g1916
sg68
(lp1927
S':'
asbag61
(g82
g63
NtRp1928
(dp1929
g66
(dp1930
sg75
g1916
sg68
(lp1931
g61
(g62
g63
NtRp1932
(dp1933
g66
(dp1934
g74
I4
ssg75
g1928
sg68
(lp1935
S'set([])'
p1936
asbasbasbag61
(g77
g63
NtRp1937
(dp1938
g66
(dp1939
sg75
g1826
sg68
(lp1940
g61
(g82
g63
NtRp1941
(dp1942
g66
(dp1943
g86
g87
ssg75
g1937
sg68
(lp1944
g890
asbag61
(g82
g63
NtRp1945
(dp1946
g66
(dp1947
g93
g94
ssg75
g1937
sg68
(lp1948
S':'
asbag61
(g82
g63
NtRp1949
(dp1950
g66
(dp1951
sg75
g1937
sg68
(lp1952
g61
(g62
g63
NtRp1953
(dp1954
g66
(dp1955
g74
I4
ssg75
g1949
sg68
(lp1956
g104
asbasbasbag61
(g77
g63
NtRp1957
(dp1958
g66
(dp1959
sg75
g1826
sg68
(lp1960
g61
(g82
g63
NtRp1961
(dp1962
g66
(dp1963
g86
g87
ssg75
g1957
sg68
(lp1964
g911
asbag61
(g82
g63
NtRp1965
(dp1966
g66
(dp1967
g93
g94
ssg75
g1957
sg68
(lp1968
S':'
asbag61
(g82
g63
NtRp1969
(dp1970
g66
(dp1971
sg75
g1957
sg68
(lp1972
g61
(g62
g63
NtRp1973
(dp1974
g66
(dp1975
g74
I4
ssg75
g1969
sg68
(lp1976
g924
asbasbasbag61
(g77
g63
NtRp1977
(dp1978
g66
(dp1979
sg75
g1826
sg68
(lp1980
g61
(g82
g63
NtRp1981
(dp1982
g66
(dp1983
g86
g87
ssg75
g1977
sg68
(lp1984
g1131
asbag61
(g82
g63
NtRp1985
(dp1986
g66
(dp1987
g93
g94
ssg75
g1977
sg68
(lp1988
S':'
asbag61
(g82
g63
NtRp1989
(dp1990
g66
(dp1991
sg75
g1977
sg68
(lp1992
g61
(g62
g63
NtRp1993
(dp1994
g66
(dp1995
g74
I4
ssg75
g1989
sg68
(lp1996
g104
asbasbasbag61
(g77
g63
NtRp1997
(dp1998
g66
(dp1999
sg75
g1826
sg68
(lp2000
g61
(g82
g63
NtRp2001
(dp2002
g66
(dp2003
g86
g87
ssg75
g1997
sg68
(lp2004
g1152
asbag61
(g82
g63
NtRp2005
(dp2006
g66
(dp2007
g93
g94
ssg75
g1997
sg68
(lp2008
S':'
asbag61
(g82
g63
NtRp2009
(dp2010
g66
(dp2011
sg75
g1997
sg68
(lp2012
g61
(g62
g63
NtRp2013
(dp2014
g66
(dp2015
g74
I4
ssg75
g2009
sg68
(lp2016
g104
asbasbasbag61
(g77
g63
NtRp2017
(dp2018
g66
(dp2019
sg75
g1826
sg68
(lp2020
g61
(g82
g63
NtRp2021
(dp2022
g66
(dp2023
g86
g87
ssg75
g2017
sg68
(lp2024
g1390
asbag61
(g82
g63
NtRp2025
(dp2026
g66
(dp2027
g93
g94
ssg75
g2017
sg68
(lp2028
S':'
asbag61
(g82
g63
NtRp2029
(dp2030
g66
(dp2031
sg75
g2017
sg68
(lp2032
g61
(g62
g63
NtRp2033
(dp2034
g66
(dp2035
g74
I4
ssg75
g2029
sg68
(lp2036
g1403
asbasbasbag61
(g77
g63
NtRp2037
(dp2038
g66
(dp2039
sg75
g1826
sg68
(lp2040
g61
(g82
g63
NtRp2041
(dp2042
g66
(dp2043
g86
g87
ssg75
g2037
sg68
(lp2044
g1433
asbag61
(g82
g63
NtRp2045
(dp2046
g66
(dp2047
g93
g94
ssg75
g2037
sg68
(lp2048
S':'
asbag61
(g82
g63
NtRp2049
(dp2050
g66
(dp2051
sg75
g2037
sg68
(lp2052
g61
(g62
g63
NtRp2053
(dp2054
g66
(dp2055
g74
I4
ssg75
g2049
sg68
(lp2056
g61
(g70
g63
NtRp2057
(dp2058
g66
(dp2059
g74
I3
ssg75
Nsg68
(lp2060
g61
(g77
g63
NtRp2061
(dp2062
g66
(dp2063
sg75
g2057
sg68
(lp2064
g61
(g82
g63
NtRp2065
(dp2066
g66
(dp2067
sg75
g2061
sg68
(lp2068
g61
(g62
g63
NtRp2069
(dp2070
g66
(dp2071
g74
I3
ssg75
g2065
sg68
(lp2072
S'1'
asbasbasbag61
(g77
g63
NtRp2073
(dp2074
g66
(dp2075
sg75
g2057
sg68
(lp2076
g61
(g82
g63
NtRp2077
(dp2078
g66
(dp2079
sg75
g2073
sg68
(lp2080
g61
(g62
g63
NtRp2081
(dp2082
g66
(dp2083
g74
I3
ssg75
g2077
sg68
(lp2084
S'99'
p2085
asbasbasbag61
(g77
g63
NtRp2086
(dp2087
g66
(dp2088
sg75
g2057
sg68
(lp2089
g61
(g82
g63
NtRp2090
(dp2091
g66
(dp2092
sg75
g2086
sg68
(lp2093
g61
(g62
g63
NtRp2094
(dp2095
g66
(dp2096
g74
I3
ssg75
g2090
sg68
(lp2097
S'4'
asbasbasbag61
(g77
g63
NtRp2098
(dp2099
g66
(dp2100
sg75
g2057
sg68
(lp2101
g61
(g82
g63
NtRp2102
(dp2103
g66
(dp2104
sg75
g2098
sg68
(lp2105
g61
(g62
g63
NtRp2106
(dp2107
g66
(dp2108
g74
I3
ssg75
g2102
sg68
(lp2109
S'datetime.datetime(2011, 12, 14, 14, 46, 14)'
p2110
asbasbasbag61
(g77
g63
NtRp2111
(dp2112
g66
(dp2113
sg75
g2057
sg68
(lp2114
g61
(g82
g63
NtRp2115
(dp2116
g66
(dp2117
sg75
g2111
sg68
(lp2118
g61
(g62
g63
NtRp2119
(dp2120
g66
(dp2121
g74
I3
ssg75
g2115
sg68
(lp2122
g1512
asbasbasbasbasbasbasbasbasbasbasbag61
(g77
g63
NtRp2123
(dp2124
g66
(dp2125
sg75
g71
sg68
(lp2126
g61
(g82
g63
NtRp2127
(dp2128
g66
(dp2129
g86
g87
ssg75
g2123
sg68
(lp2130
S'is_https'
p2131
asbag61
(g82
g63
NtRp2132
(dp2133
g66
(dp2134
g93
g94
ssg75
g2123
sg68
(lp2135
S':'
asbag61
(g82
g63
NtRp2136
(dp2137
g66
(dp2138
sg75
g2123
sg68
(lp2139
g61
(g62
g63
NtRp2140
(dp2141
g66
(dp2142
g74
I5
ssg75
g2136
sg68
(lp2143
g104
asbasbasbag61
(g77
g63
NtRp2144
(dp2145
g66
(dp2146
sg75
g71
sg68
(lp2147
g61
(g82
g63
NtRp2148
(dp2149
g66
(dp2150
g86
g87
ssg75
g2144
sg68
(lp2151
S'is_local'
p2152
asbag61
(g82
g63
NtRp2153
(dp2154
g66
(dp2155
g93
g94
ssg75
g2144
sg68
(lp2156
S':'
asbag61
(g82
g63
NtRp2157
(dp2158
g66
(dp2159
sg75
g2144
sg68
(lp2160
g61
(g62
g63
NtRp2161
(dp2162
g66
(dp2163
g74
I5
ssg75
g2157
sg68
(lp2164
g1621
asbasbasbag61
(g77
g63
NtRp2165
(dp2166
g66
(dp2167
sg75
g71
sg68
(lp2168
g61
(g82
g63
NtRp2169
(dp2170
g66
(dp2171
g86
g87
ssg75
g2165
sg68
(lp2172
S'is_restful'
p2173
asbag61
(g82
g63
NtRp2174
(dp2175
g66
(dp2176
g93
g94
ssg75
g2165
sg68
(lp2177
S':'
asbag61
(g82
g63
NtRp2178
(dp2179
g66
(dp2180
sg75
g2165
sg68
(lp2181
g61
(g62
g63
NtRp2182
(dp2183
g66
(dp2184
g74
I5
ssg75
g2178
sg68
(lp2185
g104
asbasbasbag61
(g77
g63
NtRp2186
(dp2187
g66
(dp2188
sg75
g71
sg68
(lp2189
g61
(g82
g63
NtRp2190
(dp2191
g66
(dp2192
g86
g87
ssg75
g2186
sg68
(lp2193
S'now'
p2194
asbag61
(g82
g63
NtRp2195
(dp2196
g66
(dp2197
g93
g94
ssg75
g2186
sg68
(lp2198
S':'
asbag61
(g82
g63
NtRp2199
(dp2200
g66
(dp2201
sg75
g2186
sg68
(lp2202
g61
(g62
g63
NtRp2203
(dp2204
g66
(dp2205
g74
I5
ssg75
g2199
sg68
(lp2206
S'datetime.datetime(2012, 1, 24, 12, 45, 23, 313000)'
p2207
asbasbasbag61
(g77
g63
NtRp2208
(dp2209
g66
(dp2210
sg75
g71
sg68
(lp2211
g61
(g82
g63
NtRp2212
(dp2213
g66
(dp2214
g86
g87
ssg75
g2208
sg68
(lp2215
S'post_vars'
p2216
asbag61
(g82
g63
NtRp2217
(dp2218
g66
(dp2219
g93
g94
ssg75
g2208
sg68
(lp2220
S':'
asbag61
(g82
g63
NtRp2221
(dp2222
g66
(dp2223
sg75
g2208
sg68
(lp2224
g61
(g62
g63
NtRp2225
(dp2226
g66
(dp2227
g74
I5
ssg75
g2221
sg68
(lp2228
g61
(g70
g63
NtRp2229
(dp2230
g66
(dp2231
g74
I4
ssg75
Nsg68
(lp2232
sbasbasbasbag61
(g77
g63
NtRp2233
(dp2234
g66
(dp2235
sg75
g71
sg68
(lp2236
g61
(g82
g63
NtRp2237
(dp2238
g66
(dp2239
g86
g87
ssg75
g2233
sg68
(lp2240
S'url'
p2241
asbag61
(g82
g63
NtRp2242
(dp2243
g66
(dp2244
g93
g94
ssg75
g2233
sg68
(lp2245
S':'
asbag61
(g82
g63
NtRp2246
(dp2247
g66
(dp2248
sg75
g2233
sg68
(lp2249
g61
(g62
g63
NtRp2250
(dp2251
g66
(dp2252
g74
I5
ssg75
g2246
sg68
(lp2253
S'/xcpadmin/listvm/index'
p2254
asbasbasbag61
(g77
g63
NtRp2255
(dp2256
g66
(dp2257
sg75
g71
sg68
(lp2258
g61
(g82
g63
NtRp2259
(dp2260
g66
(dp2261
g86
g87
ssg75
g2255
sg68
(lp2262
S'utcnow'
p2263
asbag61
(g82
g63
NtRp2264
(dp2265
g66
(dp2266
g93
g94
ssg75
g2255
sg68
(lp2267
S':'
asbag61
(g82
g63
NtRp2268
(dp2269
g66
(dp2270
sg75
g2255
sg68
(lp2271
g61
(g62
g63
NtRp2272
(dp2273
g66
(dp2274
g74
I5
ssg75
g2268
sg68
(lp2275
S'datetime.datetime(2012, 1, 24, 14, 45, 23, 313000)'
p2276
asbasbasbag61
(g77
g63
NtRp2277
(dp2278
g66
(dp2279
sg75
g71
sg68
(lp2280
g61
(g82
g63
NtRp2281
(dp2282
g66
(dp2283
g86
g87
ssg75
g2277
sg68
(lp2284
S'uuid'
p2285
asbag61
(g82
g63
NtRp2286
(dp2287
g66
(dp2288
g93
g94
ssg75
g2277
sg68
(lp2289
S':'
asbag61
(g82
g63
NtRp2290
(dp2291
g66
(dp2292
sg75
g2277
sg68
(lp2293
g61
(g62
g63
NtRp2294
(dp2295
g66
(dp2296
g74
I5
ssg75
g2290
sg68
(lp2297
S'xcpadmin/127.0.0.1.2012-01-24.12-45-23.34336aa9-3c0a-4166-ad8a-fe77609f5ecf'
p2298
asbasbasbag61
(g77
g63
NtRp2299
(dp2300
g66
(dp2301
sg75
g71
sg68
(lp2302
g61
(g82
g63
NtRp2303
(dp2304
g66
(dp2305
g86
g87
ssg75
g2299
sg68
(lp2306
S'vars'
p2307
asbag61
(g82
g63
NtRp2308
(dp2309
g66
(dp2310
g93
g94
ssg75
g2299
sg68
(lp2311
S':'
asbag61
(g82
g63
NtRp2312
(dp2313
g66
(dp2314
sg75
g2299
sg68
(lp2315
g61
(g62
g63
NtRp2316
(dp2317
g66
(dp2318
g74
I5
ssg75
g2312
sg68
(lp2319
g61
(g70
g63
NtRp2320
(dp2321
g66
(dp2322
g74
I4
ssg75
Nsg68
(lp2323
sbasbasbasbag61
(g77
g63
NtRp2324
(dp2325
g66
(dp2326
sg75
g71
sg68
(lp2327
g61
(g82
g63
NtRp2328
(dp2329
g66
(dp2330
g86
g87
ssg75
g2324
sg68
(lp2331
S'wsgi'
p2332
asbag61
(g82
g63
NtRp2333
(dp2334
g66
(dp2335
g93
g94
ssg75
g2324
sg68
(lp2336
S':'
asbag61
(g82
g63
NtRp2337
(dp2338
g66
(dp2339
sg75
g2324
sg68
(lp2340
g61
(g62
g63
NtRp2341
(dp2342
g66
(dp2343
g74
I5
ssg75
g2337
sg68
(lp2344
g61
(g70
g63
NtRp2345
(dp2346
g66
(dp2347
g74
I4
ssg75
Nsg68
(lp2348
g61
(g77
g63
NtRp2349
(dp2350
g66
(dp2351
sg75
g2345
sg68
(lp2352
g61
(g82
g63
NtRp2353
(dp2354
g66
(dp2355
g86
g87
ssg75
g2349
sg68
(lp2356
S'environ'
p2357
asbag61
(g82
g63
NtRp2358
(dp2359
g66
(dp2360
g93
g94
ssg75
g2349
sg68
(lp2361
S':'
asbag61
(g82
g63
NtRp2362
(dp2363
g66
(dp2364
sg75
g2349
sg68
(lp2365
g61
(g62
g63
NtRp2366
(dp2367
g66
(dp2368
g74
I4
ssg75
g2362
sg68
(lp2369
g61
(g70
g63
NtRp2370
(dp2371
g66
(dp2372
g74
I3
ssg75
Nsg68
(lp2373
g61
(g77
g63
NtRp2374
(dp2375
g66
(dp2376
sg75
g2370
sg68
(lp2377
g61
(g82
g63
NtRp2378
(dp2379
g66
(dp2380
g86
g87
ssg75
g2374
sg68
(lp2381
S'HTTP_ACCEPT'
p2382
asbag61
(g82
g63
NtRp2383
(dp2384
g66
(dp2385
g93
g94
ssg75
g2374
sg68
(lp2386
S':'
asbag61
(g82
g63
NtRp2387
(dp2388
g66
(dp2389
sg75
g2374
sg68
(lp2390
g61
(g62
g63
NtRp2391
(dp2392
g66
(dp2393
g74
I3
ssg75
g2387
sg68
(lp2394
g946
asbasbasbag61
(g77
g63
NtRp2395
(dp2396
g66
(dp2397
sg75
g2370
sg68
(lp2398
g61
(g82
g63
NtRp2399
(dp2400
g66
(dp2401
g86
g87
ssg75
g2395
sg68
(lp2402
S'HTTP_ACCEPT_CHARSET'
p2403
asbag61
(g82
g63
NtRp2404
(dp2405
g66
(dp2406
g93
g94
ssg75
g2395
sg68
(lp2407
S':'
asbag61
(g82
g63
NtRp2408
(dp2409
g66
(dp2410
sg75
g2395
sg68
(lp2411
g61
(g62
g63
NtRp2412
(dp2413
g66
(dp2414
g74
I3
ssg75
g2408
sg68
(lp2415
g968
asbasbasbag61
(g77
g63
NtRp2416
(dp2417
g66
(dp2418
sg75
g2370
sg68
(lp2419
g61
(g82
g63
NtRp2420
(dp2421
g66
(dp2422
g86
g87
ssg75
g2416
sg68
(lp2423
S'HTTP_ACCEPT_ENCODING'
p2424
asbag61
(g82
g63
NtRp2425
(dp2426
g66
(dp2427
g93
g94
ssg75
g2416
sg68
(lp2428
S':'
asbag61
(g82
g63
NtRp2429
(dp2430
g66
(dp2431
sg75
g2416
sg68
(lp2432
g61
(g62
g63
NtRp2433
(dp2434
g66
(dp2435
g74
I3
ssg75
g2429
sg68
(lp2436
g990
asbasbasbag61
(g77
g63
NtRp2437
(dp2438
g66
(dp2439
sg75
g2370
sg68
(lp2440
g61
(g82
g63
NtRp2441
(dp2442
g66
(dp2443
g86
g87
ssg75
g2437
sg68
(lp2444
S'HTTP_ACCEPT_LANGUAGE'
p2445
asbag61
(g82
g63
NtRp2446
(dp2447
g66
(dp2448
g93
g94
ssg75
g2437
sg68
(lp2449
S':'
asbag61
(g82
g63
NtRp2450
(dp2451
g66
(dp2452
sg75
g2437
sg68
(lp2453
g61
(g62
g63
NtRp2454
(dp2455
g66
(dp2456
g74
I3
ssg75
g2450
sg68
(lp2457
g1012
asbasbasbag61
(g77
g63
NtRp2458
(dp2459
g66
(dp2460
sg75
g2370
sg68
(lp2461
g61
(g82
g63
NtRp2462
(dp2463
g66
(dp2464
g86
g87
ssg75
g2458
sg68
(lp2465
S'HTTP_CACHE_CONTROL'
p2466
asbag61
(g82
g63
NtRp2467
(dp2468
g66
(dp2469
g93
g94
ssg75
g2458
sg68
(lp2470
S':'
asbag61
(g82
g63
NtRp2471
(dp2472
g66
(dp2473
sg75
g2458
sg68
(lp2474
g61
(g62
g63
NtRp2475
(dp2476
g66
(dp2477
g74
I3
ssg75
g2471
sg68
(lp2478
g1034
asbasbasbag61
(g77
g63
NtRp2479
(dp2480
g66
(dp2481
sg75
g2370
sg68
(lp2482
g61
(g82
g63
NtRp2483
(dp2484
g66
(dp2485
g86
g87
ssg75
g2479
sg68
(lp2486
S'HTTP_CONNECTION'
p2487
asbag61
(g82
g63
NtRp2488
(dp2489
g66
(dp2490
g93
g94
ssg75
g2479
sg68
(lp2491
S':'
asbag61
(g82
g63
NtRp2492
(dp2493
g66
(dp2494
sg75
g2479
sg68
(lp2495
g61
(g62
g63
NtRp2496
(dp2497
g66
(dp2498
g74
I3
ssg75
g2492
sg68
(lp2499
g1056
asbasbasbag61
(g77
g63
NtRp2500
(dp2501
g66
(dp2502
sg75
g2370
sg68
(lp2503
g61
(g82
g63
NtRp2504
(dp2505
g66
(dp2506
g86
g87
ssg75
g2500
sg68
(lp2507
S'HTTP_COOKIE'
p2508
asbag61
(g82
g63
NtRp2509
(dp2510
g66
(dp2511
g93
g94
ssg75
g2500
sg68
(lp2512
S':'
asbag61
(g82
g63
NtRp2513
(dp2514
g66
(dp2515
sg75
g2500
sg68
(lp2516
g61
(g62
g63
NtRp2517
(dp2518
g66
(dp2519
g74
I3
ssg75
g2513
sg68
(lp2520
g1078
asbasbasbag61
(g77
g63
NtRp2521
(dp2522
g66
(dp2523
sg75
g2370
sg68
(lp2524
g61
(g82
g63
NtRp2525
(dp2526
g66
(dp2527
g86
g87
ssg75
g2521
sg68
(lp2528
S'HTTP_HOST'
p2529
asbag61
(g82
g63
NtRp2530
(dp2531
g66
(dp2532
g93
g94
ssg75
g2521
sg68
(lp2533
S':'
asbag61
(g82
g63
NtRp2534
(dp2535
g66
(dp2536
sg75
g2521
sg68
(lp2537
g61
(g62
g63
NtRp2538
(dp2539
g66
(dp2540
g74
I3
ssg75
g2534
sg68
(lp2541
g1100
asbasbasbag61
(g77
g63
NtRp2542
(dp2543
g66
(dp2544
sg75
g2370
sg68
(lp2545
g61
(g82
g63
NtRp2546
(dp2547
g66
(dp2548
g86
g87
ssg75
g2542
sg68
(lp2549
S'HTTP_USER_AGENT'
p2550
asbag61
(g82
g63
NtRp2551
(dp2552
g66
(dp2553
g93
g94
ssg75
g2542
sg68
(lp2554
S':'
asbag61
(g82
g63
NtRp2555
(dp2556
g66
(dp2557
sg75
g2542
sg68
(lp2558
g61
(g62
g63
NtRp2559
(dp2560
g66
(dp2561
g74
I3
ssg75
g2555
sg68
(lp2562
g1122
asbasbasbag61
(g77
g63
NtRp2563
(dp2564
g66
(dp2565
sg75
g2370
sg68
(lp2566
g61
(g82
g63
NtRp2567
(dp2568
g66
(dp2569
g86
g87
ssg75
g2563
sg68
(lp2570
S'PATH_INFO'
p2571
asbag61
(g82
g63
NtRp2572
(dp2573
g66
(dp2574
g93
g94
ssg75
g2563
sg68
(lp2575
S':'
asbag61
(g82
g63
NtRp2576
(dp2577
g66
(dp2578
sg75
g2563
sg68
(lp2579
g61
(g62
g63
NtRp2580
(dp2581
g66
(dp2582
g74
I3
ssg75
g2576
sg68
(lp2583
g1186
asbasbasbag61
(g77
g63
NtRp2584
(dp2585
g66
(dp2586
sg75
g2370
sg68
(lp2587
g61
(g82
g63
NtRp2588
(dp2589
g66
(dp2590
g86
g87
ssg75
g2584
sg68
(lp2591
S'QUERY_STRING'
p2592
asbag61
(g82
g63
NtRp2593
(dp2594
g66
(dp2595
g93
g94
ssg75
g2584
sg68
(lp2596
S':'
asbag61
(g82
g63
NtRp2597
(dp2598
g66
(dp2599
sg75
g2584
sg68
(lp2600
g61
(g62
g63
NtRp2601
(dp2602
g66
(dp2603
g74
I3
ssg75
g2597
sg68
(lp2604
S''
asbasbasbag61
(g77
g63
NtRp2605
(dp2606
g66
(dp2607
sg75
g2370
sg68
(lp2608
g61
(g82
g63
NtRp2609
(dp2610
g66
(dp2611
g86
g87
ssg75
g2605
sg68
(lp2612
S'REMOTE_ADDR'
p2613
asbag61
(g82
g63
NtRp2614
(dp2615
g66
(dp2616
g93
g94
ssg75
g2605
sg68
(lp2617
S':'
asbag61
(g82
g63
NtRp2618
(dp2619
g66
(dp2620
sg75
g2605
sg68
(lp2621
g61
(g62
g63
NtRp2622
(dp2623
g66
(dp2624
g74
I3
ssg75
g2618
sg68
(lp2625
g194
asbasbasbag61
(g77
g63
NtRp2626
(dp2627
g66
(dp2628
sg75
g2370
sg68
(lp2629
g61
(g82
g63
NtRp2630
(dp2631
g66
(dp2632
g86
g87
ssg75
g2626
sg68
(lp2633
S'REMOTE_PORT'
p2634
asbag61
(g82
g63
NtRp2635
(dp2636
g66
(dp2637
g93
g94
ssg75
g2626
sg68
(lp2638
S':'
asbag61
(g82
g63
NtRp2639
(dp2640
g66
(dp2641
sg75
g2626
sg68
(lp2642
g61
(g62
g63
NtRp2643
(dp2644
g66
(dp2645
g74
I3
ssg75
g2639
sg68
(lp2646
g1250
asbasbasbag61
(g77
g63
NtRp2647
(dp2648
g66
(dp2649
sg75
g2370
sg68
(lp2650
g61
(g82
g63
NtRp2651
(dp2652
g66
(dp2653
g86
g87
ssg75
g2647
sg68
(lp2654
S'REQUEST_METHOD'
p2655
asbag61
(g82
g63
NtRp2656
(dp2657
g66
(dp2658
g93
g94
ssg75
g2647
sg68
(lp2659
S':'
asbag61
(g82
g63
NtRp2660
(dp2661
g66
(dp2662
sg75
g2647
sg68
(lp2663
g61
(g62
g63
NtRp2664
(dp2665
g66
(dp2666
g74
I3
ssg75
g2660
sg68
(lp2667
g1272
asbasbasbag61
(g77
g63
NtRp2668
(dp2669
g66
(dp2670
sg75
g2370
sg68
(lp2671
g61
(g82
g63
NtRp2672
(dp2673
g66
(dp2674
g86
g87
ssg75
g2668
sg68
(lp2675
S'SCRIPT_NAME'
p2676
asbag61
(g82
g63
NtRp2677
(dp2678
g66
(dp2679
g93
g94
ssg75
g2668
sg68
(lp2680
S':'
asbag61
(g82
g63
NtRp2681
(dp2682
g66
(dp2683
sg75
g2668
sg68
(lp2684
g61
(g62
g63
NtRp2685
(dp2686
g66
(dp2687
g74
I3
ssg75
g2681
sg68
(lp2688
S''
asbasbasbag61
(g77
g63
NtRp2689
(dp2690
g66
(dp2691
sg75
g2370
sg68
(lp2692
g61
(g82
g63
NtRp2693
(dp2694
g66
(dp2695
g86
g87
ssg75
g2689
sg68
(lp2696
S'SERVER_NAME'
p2697
asbag61
(g82
g63
NtRp2698
(dp2699
g66
(dp2700
g93
g94
ssg75
g2689
sg68
(lp2701
S':'
asbag61
(g82
g63
NtRp2702
(dp2703
g66
(dp2704
sg75
g2689
sg68
(lp2705
g61
(g62
g63
NtRp2706
(dp2707
g66
(dp2708
g74
I3
ssg75
g2702
sg68
(lp2709
g1315
asbasbasbag61
(g77
g63
NtRp2710
(dp2711
g66
(dp2712
sg75
g2370
sg68
(lp2713
g61
(g82
g63
NtRp2714
(dp2715
g66
(dp2716
g86
g87
ssg75
g2710
sg68
(lp2717
S'SERVER_PORT'
p2718
asbag61
(g82
g63
NtRp2719
(dp2720
g66
(dp2721
g93
g94
ssg75
g2710
sg68
(lp2722
S':'
asbag61
(g82
g63
NtRp2723
(dp2724
g66
(dp2725
sg75
g2710
sg68
(lp2726
g61
(g62
g63
NtRp2727
(dp2728
g66
(dp2729
g74
I3
ssg75
g2723
sg68
(lp2730
g1337
asbasbasbag61
(g77
g63
NtRp2731
(dp2732
g66
(dp2733
sg75
g2370
sg68
(lp2734
g61
(g82
g63
NtRp2735
(dp2736
g66
(dp2737
g86
g87
ssg75
g2731
sg68
(lp2738
S'SERVER_PROTOCOL'
p2739
asbag61
(g82
g63
NtRp2740
(dp2741
g66
(dp2742
g93
g94
ssg75
g2731
sg68
(lp2743
S':'
asbag61
(g82
g63
NtRp2744
(dp2745
g66
(dp2746
sg75
g2731
sg68
(lp2747
g61
(g62
g63
NtRp2748
(dp2749
g66
(dp2750
g74
I3
ssg75
g2744
sg68
(lp2751
g1359
asbasbasbag61
(g77
g63
NtRp2752
(dp2753
g66
(dp2754
sg75
g2370
sg68
(lp2755
g61
(g82
g63
NtRp2756
(dp2757
g66
(dp2758
g86
g87
ssg75
g2752
sg68
(lp2759
S'SERVER_SOFTWARE'
p2760
asbag61
(g82
g63
NtRp2761
(dp2762
g66
(dp2763
g93
g94
ssg75
g2752
sg68
(lp2764
S':'
asbag61
(g82
g63
NtRp2765
(dp2766
g66
(dp2767
sg75
g2752
sg68
(lp2768
g61
(g62
g63
NtRp2769
(dp2770
g66
(dp2771
g74
I3
ssg75
g2765
sg68
(lp2772
g1381
asbasbasbag61
(g77
g63
NtRp2773
(dp2774
g66
(dp2775
sg75
g2370
sg68
(lp2776
g61
(g82
g63
NtRp2777
(dp2778
g66
(dp2779
g86
g87
ssg75
g2773
sg68
(lp2780
S'wsgi.errors'
p2781
asbag61
(g82
g63
NtRp2782
(dp2783
g66
(dp2784
g93
g94
ssg75
g2773
sg68
(lp2785
S':'
asbag61
(g82
g63
NtRp2786
(dp2787
g66
(dp2788
sg75
g2773
sg68
(lp2789
g61
(g62
g63
NtRp2790
(dp2791
g66
(dp2792
g74
I3
ssg75
g2786
sg68
(lp2793
S'<__main__.Stderr object at 0x0124A670>'
p2794
asbasbasbag61
(g77
g63
NtRp2795
(dp2796
g66
(dp2797
sg75
g2370
sg68
(lp2798
g61
(g82
g63
NtRp2799
(dp2800
g66
(dp2801
g86
g87
ssg75
g2795
sg68
(lp2802
S'wsgi.file_wrapper'
p2803
asbag61
(g82
g63
NtRp2804
(dp2805
g66
(dp2806
g93
g94
ssg75
g2795
sg68
(lp2807
S':'
asbag61
(g82
g63
NtRp2808
(dp2809
g66
(dp2810
sg75
g2795
sg68
(lp2811
g61
(g62
g63
NtRp2812
(dp2813
g66
(dp2814
g74
I3
ssg75
g2808
sg68
(lp2815
S'<class wsgiref.util.FileWrapper at 0x01BDBBA0>'
p2816
asbasbasbag61
(g77
g63
NtRp2817
(dp2818
g66
(dp2819
sg75
g2370
sg68
(lp2820
g61
(g82
g63
NtRp2821
(dp2822
g66
(dp2823
g86
g87
ssg75
g2817
sg68
(lp2824
S'wsgi.input'
p2825
asbag61
(g82
g63
NtRp2826
(dp2827
g66
(dp2828
g93
g94
ssg75
g2817
sg68
(lp2829
S':'
asbag61
(g82
g63
NtRp2830
(dp2831
g66
(dp2832
sg75
g2817
sg68
(lp2833
g61
(g62
g63
NtRp2834
(dp2835
g66
(dp2836
g74
I3
ssg75
g2830
sg68
(lp2837
S'<cStringIO.StringO object at 0x0629E360>'
p2838
asbasbasbag61
(g77
g63
NtRp2839
(dp2840
g66
(dp2841
sg75
g2370
sg68
(lp2842
g61
(g82
g63
NtRp2843
(dp2844
g66
(dp2845
g86
g87
ssg75
g2839
sg68
(lp2846
S'wsgi.multiprocess'
p2847
asbag61
(g82
g63
NtRp2848
(dp2849
g66
(dp2850
g93
g94
ssg75
g2839
sg68
(lp2851
S':'
asbag61
(g82
g63
NtRp2852
(dp2853
g66
(dp2854
sg75
g2839
sg68
(lp2855
g61
(g62
g63
NtRp2856
(dp2857
g66
(dp2858
g74
I3
ssg75
g2852
sg68
(lp2859
g104
asbasbasbag61
(g77
g63
NtRp2860
(dp2861
g66
(dp2862
sg75
g2370
sg68
(lp2863
g61
(g82
g63
NtRp2864
(dp2865
g66
(dp2866
g86
g87
ssg75
g2860
sg68
(lp2867
S'wsgi.multithread'
p2868
asbag61
(g82
g63
NtRp2869
(dp2870
g66
(dp2871
g93
g94
ssg75
g2860
sg68
(lp2872
S':'
asbag61
(g82
g63
NtRp2873
(dp2874
g66
(dp2875
sg75
g2860
sg68
(lp2876
g61
(g62
g63
NtRp2877
(dp2878
g66
(dp2879
g74
I3
ssg75
g2873
sg68
(lp2880
g1621
asbasbasbag61
(g77
g63
NtRp2881
(dp2882
g66
(dp2883
sg75
g2370
sg68
(lp2884
g61
(g82
g63
NtRp2885
(dp2886
g66
(dp2887
g86
g87
ssg75
g2881
sg68
(lp2888
S'wsgi.run_once'
p2889
asbag61
(g82
g63
NtRp2890
(dp2891
g66
(dp2892
g93
g94
ssg75
g2881
sg68
(lp2893
S':'
asbag61
(g82
g63
NtRp2894
(dp2895
g66
(dp2896
sg75
g2881
sg68
(lp2897
g61
(g62
g63
NtRp2898
(dp2899
g66
(dp2900
g74
I3
ssg75
g2894
sg68
(lp2901
g104
asbasbasbag61
(g77
g63
NtRp2902
(dp2903
g66
(dp2904
sg75
g2370
sg68
(lp2905
g61
(g82
g63
NtRp2906
(dp2907
g66
(dp2908
g86
g87
ssg75
g2902
sg68
(lp2909
S'wsgi.url_scheme'
p2910
asbag61
(g82
g63
NtRp2911
(dp2912
g66
(dp2913
g93
g94
ssg75
g2902
sg68
(lp2914
S':'
asbag61
(g82
g63
NtRp2915
(dp2916
g66
(dp2917
sg75
g2902
sg68
(lp2918
g61
(g62
g63
NtRp2919
(dp2920
g66
(dp2921
g74
I3
ssg75
g2915
sg68
(lp2922
g1664
asbasbasbag61
(g77
g63
NtRp2923
(dp2924
g66
(dp2925
sg75
g2370
sg68
(lp2926
g61
(g82
g63
NtRp2927
(dp2928
g66
(dp2929
g86
g87
ssg75
g2923
sg68
(lp2930
S'wsgi.version'
p2931
asbag61
(g82
g63
NtRp2932
(dp2933
g66
(dp2934
g93
g94
ssg75
g2923
sg68
(lp2935
S':'
asbag61
(g82
g63
NtRp2936
(dp2937
g66
(dp2938
sg75
g2923
sg68
(lp2939
g61
(g62
g63
NtRp2940
(dp2941
g66
(dp2942
g74
I3
ssg75
g2936
sg68
(lp2943
S'1'
asbasbasbasbasbasbasbasbasbasbasbasbasbsS'frames'
p2944
(lp2945
(dp2946
S'file'
p2947
S'C:\\Users\\nilton\\Desktop\\scripts\\curso_de_python\\web2py\\gluon\\restricted.py'
p2948
sS'dump'
p2949
(dp2950
sS'lnum'
p2951
I203
sS'lines'
p2952
(dp2953
sS'call'
p2954
S'(code=r"response.write(\'<!DOCTYPE html>\\n<!-- paulirish....ponse.write(\'\\n</body>\\n</html>\\n\', escape=False)", environment={\'A\': <class \'gluon.html.A\'>, \'Auth\': <class \'gluon.tools.Auth\'>, \'B\': <class \'gluon.html.B\'>, \'BEAUTIFY\': <class \'gluon.html.BEAUTIFY\'>, \'BODY\': <class \'gluon.html.BODY\'>, \'BR\': <class \'gluon.html.BR\'>, \'BUTTON\': <class \'gluon.html.BUTTON\'>, \'CAT\': <class \'gluon.html.CAT\'>, \'CENTER\': <class \'gluon.html.CENTER\'>, \'CLEANUP\': <class \'gluon.validators.CLEANUP\'>, ...}, layer=r\'C:\\Users\\nilton\\Desktop\\scripts\\curso_de_python\\web2py\\applications\\xcpadmin\\views\\listvm/index.html\')'
p2955
sS'func'
p2956
S'restricted'
p2957
sa(dp2958
g2947
S'C:\\Users\\nilton\\Desktop\\scripts\\curso_de_python\\web2py\\gluon\\restricted.py'
p2959
sg2949
(dp2960
sg2951
I189
sg2952
(dp2961
sg2954
S'(code=r"response.write(\'<!DOCTYPE html>\\n<!-- paulirish....ponse.write(\'\\n</body>\\n</html>\\n\', escape=False)", layer=r\'C:\\Users\\nilton\\Desktop\\scripts\\curso_de_python\\web2py\\applications\\xcpadmin\\views\\listvm/index.html\')'
p2962
sg2956
S'compile2'
p2963
sasS'pyver'
p2964
S'Python 2.5.4: C:\\Users\\nilton\\Desktop\\scripts\\curso_de_python\\web2py\\web2py_no_console.exe'
p2965
sS'session'
p2966
g61
(g62
g63
NtRp2967
(dp2968
g66
(dp2969
sg68
(lp2970
g61
(g70
g63
NtRp2971
(dp2972
g66
(dp2973
g74
I5
ssg75
Nsg68
(lp2974
sbasbsS'etype'
p2975
S"<type 'exceptions.SyntaxError'>"
p2976
sS'date'
p2977
S'Tue Jan 24 12:45:25 2012'
p2978
sS'response'
p2979
g61
(g62
g63
NtRp2980
(dp2981
g66
(dp2982
sg68
(lp2983
g61
(g70
g63
NtRp2984
(dp2985
g66
(dp2986
g74
I5
ssg75
Nsg68
(lp2987
g61
(g77
g63
NtRp2988
(dp2989
g66
(dp2990
sg75
g2984
sg68
(lp2991
g61
(g82
g63
NtRp2992
(dp2993
g66
(dp2994
g86
g87
ssg75
g2988
sg68
(lp2995
g159
asbag61
(g82
g63
NtRp2996
(dp2997
g66
(dp2998
g93
g94
ssg75
g2988
sg68
(lp2999
S':'
asbag61
(g82
g63
NtRp3000
(dp3001
g66
(dp3002
sg75
g2988
sg68
(lp3003
g61
(g62
g63
NtRp3004
(dp3005
g66
(dp3006
g74
I5
ssg75
g3000
sg68
(lp3007
S'<cStringIO.StringO object at 0x0629E840>'
p3008
asbasbasbag61
(g77
g63
NtRp3009
(dp3010
g66
(dp3011
sg75
g2984
sg68
(lp3012
g61
(g82
g63
NtRp3013
(dp3014
g66
(dp3015
g86
g87
ssg75
g3009
sg68
(lp3016
g225
asbag61
(g82
g63
NtRp3017
(dp3018
g66
(dp3019
g93
g94
ssg75
g3009
sg68
(lp3020
S':'
asbag61
(g82
g63
NtRp3021
(dp3022
g66
(dp3023
sg75
g3009
sg68
(lp3024
g61
(g62
g63
NtRp3025
(dp3026
g66
(dp3027
g74
I5
ssg75
g3021
sg68
(lp3028
g61
(g70
g63
NtRp3029
(dp3030
g66
(dp3031
g74
I4
ssg75
Nsg68
(lp3032
g61
(g77
g63
NtRp3033
(dp3034
g66
(dp3035
sg75
g3029
sg68
(lp3036
g61
(g82
g63
NtRp3037
(dp3038
g66
(dp3039
g86
g87
ssg75
g3033
sg68
(lp3040
S'session_id_xcpadmin'
p3041
asbag61
(g82
g63
NtRp3042
(dp3043
g66
(dp3044
g93
g94
ssg75
g3033
sg68
(lp3045
S':'
asbag61
(g82
g63
NtRp3046
(dp3047
g66
(dp3048
sg75
g3033
sg68
(lp3049
g61
(g62
g63
NtRp3050
(dp3051
g66
(dp3052
g74
I4
ssg75
g3046
sg68
(lp3053
g61
(g70
g63
NtRp3054
(dp3055
g66
(dp3056
g74
I3
ssg75
Nsg68
(lp3057
g61
(g77
g63
NtRp3058
(dp3059
g66
(dp3060
sg75
g3054
sg68
(lp3061
g61
(g82
g63
NtRp3062
(dp3063
g66
(dp3064
g86
g87
ssg75
g3058
sg68
(lp3065
g275
asbag61
(g82
g63
NtRp3066
(dp3067
g66
(dp3068
g93
g94
ssg75
g3058
sg68
(lp3069
S':'
asbag61
(g82
g63
NtRp3070
(dp3071
g66
(dp3072
sg75
g3058
sg68
(lp3073
g61
(g62
g63
NtRp3074
(dp3075
g66
(dp3076
g74
I3
ssg75
g3070
sg68
(lp3077
S''
asbasbasbag61
(g77
g63
NtRp3078
(dp3079
g66
(dp3080
sg75
g3054
sg68
(lp3081
g61
(g82
g63
NtRp3082
(dp3083
g66
(dp3084
g86
g87
ssg75
g3078
sg68
(lp3085
g296
asbag61
(g82
g63
NtRp3086
(dp3087
g66
(dp3088
g93
g94
ssg75
g3078
sg68
(lp3089
S':'
asbag61
(g82
g63
NtRp3090
(dp3091
g66
(dp3092
sg75
g3078
sg68
(lp3093
g61
(g62
g63
NtRp3094
(dp3095
g66
(dp3096
g74
I3
ssg75
g3090
sg68
(lp3097
S''
asbasbasbag61
(g77
g63
NtRp3098
(dp3099
g66
(dp3100
sg75
g3054
sg68
(lp3101
g61
(g82
g63
NtRp3102
(dp3103
g66
(dp3104
g86
g87
ssg75
g3098
sg68
(lp3105
g317
asbag61
(g82
g63
NtRp3106
(dp3107
g66
(dp3108
g93
g94
ssg75
g3098
sg68
(lp3109
S':'
asbag61
(g82
g63
NtRp3110
(dp3111
g66
(dp3112
sg75
g3098
sg68
(lp3113
g61
(g62
g63
NtRp3114
(dp3115
g66
(dp3116
g74
I3
ssg75
g3110
sg68
(lp3117
S''
asbasbasbag61
(g77
g63
NtRp3118
(dp3119
g66
(dp3120
sg75
g3054
sg68
(lp3121
g61
(g82
g63
NtRp3122
(dp3123
g66
(dp3124
g86
g87
ssg75
g3118
sg68
(lp3125
g338
asbag61
(g82
g63
NtRp3126
(dp3127
g66
(dp3128
g93
g94
ssg75
g3118
sg68
(lp3129
S':'
asbag61
(g82
g63
NtRp3130
(dp3131
g66
(dp3132
sg75
g3118
sg68
(lp3133
g61
(g62
g63
NtRp3134
(dp3135
g66
(dp3136
g74
I3
ssg75
g3130
sg68
(lp3137
S''
asbasbasbag61
(g77
g63
NtRp3138
(dp3139
g66
(dp3140
sg75
g3054
sg68
(lp3141
g61
(g82
g63
NtRp3142
(dp3143
g66
(dp3144
g86
g87
ssg75
g3138
sg68
(lp3145
g359
asbag61
(g82
g63
NtRp3146
(dp3147
g66
(dp3148
g93
g94
ssg75
g3138
sg68
(lp3149
S':'
asbag61
(g82
g63
NtRp3150
(dp3151
g66
(dp3152
sg75
g3138
sg68
(lp3153
g61
(g62
g63
NtRp3154
(dp3155
g66
(dp3156
g74
I3
ssg75
g3150
sg68
(lp3157
S'/'
asbasbasbag61
(g77
g63
NtRp3158
(dp3159
g66
(dp3160
sg75
g3054
sg68
(lp3161
g61
(g82
g63
NtRp3162
(dp3163
g66
(dp3164
g86
g87
ssg75
g3158
sg68
(lp3165
g380
asbag61
(g82
g63
NtRp3166
(dp3167
g66
(dp3168
g93
g94
ssg75
g3158
sg68
(lp3169
S':'
asbag61
(g82
g63
NtRp3170
(dp3171
g66
(dp3172
sg75
g3158
sg68
(lp3173
g61
(g62
g63
NtRp3174
(dp3175
g66
(dp3176
g74
I3
ssg75
g3170
sg68
(lp3177
S''
asbasbasbag61
(g77
g63
NtRp3178
(dp3179
g66
(dp3180
sg75
g3054
sg68
(lp3181
g61
(g82
g63
NtRp3182
(dp3183
g66
(dp3184
g86
g87
ssg75
g3178
sg68
(lp3185
g401
asbag61
(g82
g63
NtRp3186
(dp3187
g66
(dp3188
g93
g94
ssg75
g3178
sg68
(lp3189
S':'
asbag61
(g82
g63
NtRp3190
(dp3191
g66
(dp3192
sg75
g3178
sg68
(lp3193
g61
(g62
g63
NtRp3194
(dp3195
g66
(dp3196
g74
I3
ssg75
g3190
sg68
(lp3197
S''
asbasbasbasbasbasbasbasbasbasbasbag61
(g77
g63
NtRp3198
(dp3199
g66
(dp3200
sg75
g2984
sg68
(lp3201
g61
(g82
g63
NtRp3202
(dp3203
g66
(dp3204
g86
g87
ssg75
g3198
sg68
(lp3205
S'files'
p3206
asbag61
(g82
g63
NtRp3207
(dp3208
g66
(dp3209
g93
g94
ssg75
g3198
sg68
(lp3210
S':'
asbag61
(g82
g63
NtRp3211
(dp3212
g66
(dp3213
sg75
g3198
sg68
(lp3214
g61
(g62
g63
NtRp3215
(dp3216
g66
(dp3217
g74
I5
ssg75
g3211
sg68
(lp3218
g61
(g70
g63
NtRp3219
(dp3220
g66
(dp3221
g74
I4
ssg75
Nsg68
(lp3222
sbasbasbasbag61
(g77
g63
NtRp3223
(dp3224
g66
(dp3225
sg75
g2984
sg68
(lp3226
g61
(g82
g63
NtRp3227
(dp3228
g66
(dp3229
g86
g87
ssg75
g3223
sg68
(lp3230
S'flash'
p3231
asbag61
(g82
g63
NtRp3232
(dp3233
g66
(dp3234
g93
g94
ssg75
g3223
sg68
(lp3235
S':'
asbag61
(g82
g63
NtRp3236
(dp3237
g66
(dp3238
sg75
g3223
sg68
(lp3239
g61
(g62
g63
NtRp3240
(dp3241
g66
(dp3242
g74
I5
ssg75
g3236
sg68
(lp3243
S''
asbasbasbag61
(g77
g63
NtRp3244
(dp3245
g66
(dp3246
sg75
g2984
sg68
(lp3247
g61
(g82
g63
NtRp3248
(dp3249
g66
(dp3250
g86
g87
ssg75
g3244
sg68
(lp3251
S'generic_patterns'
p3252
asbag61
(g82
g63
NtRp3253
(dp3254
g66
(dp3255
g93
g94
ssg75
g3244
sg68
(lp3256
S':'
asbag61
(g82
g63
NtRp3257
(dp3258
g66
(dp3259
sg75
g3244
sg68
(lp3260
g61
(g62
g63
NtRp3261
(dp3262
g66
(dp3263
g74
I5
ssg75
g3257
sg68
(lp3264
g61
(g70
g63
NtRp3265
(dp3266
g66
(dp3267
g74
I4
ssg75
Nsg68
(lp3268
g61
(g77
g63
NtRp3269
(dp3270
g66
(dp3271
sg75
g3265
sg68
(lp3272
g61
(g82
g63
NtRp3273
(dp3274
g66
(dp3275
sg75
g3269
sg68
(lp3276
g61
(g62
g63
NtRp3277
(dp3278
g66
(dp3279
g74
I4
ssg75
g3273
sg68
(lp3280
S'*'
asbasbasbasbasbasbasbag61
(g77
g63
NtRp3281
(dp3282
g66
(dp3283
sg75
g2984
sg68
(lp3284
g61
(g82
g63
NtRp3285
(dp3286
g66
(dp3287
g86
g87
ssg75
g3281
sg68
(lp3288
S'headers'
p3289
asbag61
(g82
g63
NtRp3290
(dp3291
g66
(dp3292
g93
g94
ssg75
g3281
sg68
(lp3293
S':'
asbag61
(g82
g63
NtRp3294
(dp3295
g66
(dp3296
sg75
g3281
sg68
(lp3297
g61
(g62
g63
NtRp3298
(dp3299
g66
(dp3300
g74
I5
ssg75
g3294
sg68
(lp3301
g61
(g70
g63
NtRp3302
(dp3303
g66
(dp3304
g74
I4
ssg75
Nsg68
(lp3305
g61
(g77
g63
NtRp3306
(dp3307
g66
(dp3308
sg75
g3302
sg68
(lp3309
g61
(g82
g63
NtRp3310
(dp3311
g66
(dp3312
g86
g87
ssg75
g3306
sg68
(lp3313
S'Cache-Control'
p3314
asbag61
(g82
g63
NtRp3315
(dp3316
g66
(dp3317
g93
g94
ssg75
g3306
sg68
(lp3318
S':'
asbag61
(g82
g63
NtRp3319
(dp3320
g66
(dp3321
sg75
g3306
sg68
(lp3322
g61
(g62
g63
NtRp3323
(dp3324
g66
(dp3325
g74
I4
ssg75
g3319
sg68
(lp3326
S'no-store, no-cache, must-revalidate, post-check=0, pre-check=0'
p3327
asbasbasbag61
(g77
g63
NtRp3328
(dp3329
g66
(dp3330
sg75
g3302
sg68
(lp3331
g61
(g82
g63
NtRp3332
(dp3333
g66
(dp3334
g86
g87
ssg75
g3328
sg68
(lp3335
S'Content-Type'
p3336
asbag61
(g82
g63
NtRp3337
(dp3338
g66
(dp3339
g93
g94
ssg75
g3328
sg68
(lp3340
S':'
asbag61
(g82
g63
NtRp3341
(dp3342
g66
(dp3343
sg75
g3328
sg68
(lp3344
g61
(g62
g63
NtRp3345
(dp3346
g66
(dp3347
g74
I4
ssg75
g3341
sg68
(lp3348
S'text/html; charset=utf-8'
p3349
asbasbasbag61
(g77
g63
NtRp3350
(dp3351
g66
(dp3352
sg75
g3302
sg68
(lp3353
g61
(g82
g63
NtRp3354
(dp3355
g66
(dp3356
g86
g87
ssg75
g3350
sg68
(lp3357
S'Expires'
p3358
asbag61
(g82
g63
NtRp3359
(dp3360
g66
(dp3361
g93
g94
ssg75
g3350
sg68
(lp3362
S':'
asbag61
(g82
g63
NtRp3363
(dp3364
g66
(dp3365
sg75
g3350
sg68
(lp3366
g61
(g62
g63
NtRp3367
(dp3368
g66
(dp3369
g74
I4
ssg75
g3363
sg68
(lp3370
S'Tue, 24 Jan 2012 14:45:23 GMT'
p3371
asbasbasbag61
(g77
g63
NtRp3372
(dp3373
g66
(dp3374
sg75
g3302
sg68
(lp3375
g61
(g82
g63
NtRp3376
(dp3377
g66
(dp3378
g86
g87
ssg75
g3372
sg68
(lp3379
S'Pragma'
p3380
asbag61
(g82
g63
NtRp3381
(dp3382
g66
(dp3383
g93
g94
ssg75
g3372
sg68
(lp3384
S':'
asbag61
(g82
g63
NtRp3385
(dp3386
g66
(dp3387
sg75
g3372
sg68
(lp3388
g61
(g62
g63
NtRp3389
(dp3390
g66
(dp3391
g74
I4
ssg75
g3385
sg68
(lp3392
S'no-cache'
p3393
asbasbasbag61
(g77
g63
NtRp3394
(dp3395
g66
(dp3396
sg75
g3302
sg68
(lp3397
g61
(g82
g63
NtRp3398
(dp3399
g66
(dp3400
g86
g87
ssg75
g3394
sg68
(lp3401
S'X-Powered-By'
p3402
asbag61
(g82
g63
NtRp3403
(dp3404
g66
(dp3405
g93
g94
ssg75
g3394
sg68
(lp3406
S':'
asbag61
(g82
g63
NtRp3407
(dp3408
g66
(dp3409
sg75
g3394
sg68
(lp3410
g61
(g62
g63
NtRp3411
(dp3412
g66
(dp3413
g74
I4
ssg75
g3407
sg68
(lp3414
S'web2py'
p3415
asbasbasbasbasbasbasbag61
(g77
g63
NtRp3416
(dp3417
g66
(dp3418
sg75
g2984
sg68
(lp3419
g61
(g82
g63
NtRp3420
(dp3421
g66
(dp3422
g86
g87
ssg75
g3416
sg68
(lp3423
S'menu'
p3424
asbag61
(g82
g63
NtRp3425
(dp3426
g66
(dp3427
g93
g94
ssg75
g3416
sg68
(lp3428
S':'
asbag61
(g82
g63
NtRp3429
(dp3430
g66
(dp3431
sg75
g3416
sg68
(lp3432
g61
(g62
g63
NtRp3433
(dp3434
g66
(dp3435
g74
I5
ssg75
g3429
sg68
(lp3436
g61
(g70
g63
NtRp3437
(dp3438
g66
(dp3439
g74
I4
ssg75
Nsg68
(lp3440
g61
(g77
g63
NtRp3441
(dp3442
g66
(dp3443
sg75
g3437
sg68
(lp3444
g61
(g82
g63
NtRp3445
(dp3446
g66
(dp3447
sg75
g3441
sg68
(lp3448
g61
(g62
g63
NtRp3449
(dp3450
g66
(dp3451
g74
I4
ssg75
g3445
sg68
(lp3452
g61
(g70
g63
NtRp3453
(dp3454
g66
(dp3455
g74
I3
ssg75
Nsg68
(lp3456
g61
(g77
g63
NtRp3457
(dp3458
g66
(dp3459
sg75
g3453
sg68
(lp3460
g61
(g82
g63
NtRp3461
(dp3462
g66
(dp3463
sg75
g3457
sg68
(lp3464
g61
(g62
g63
NtRp3465
(dp3466
g66
(dp3467
g74
I3
ssg75
g3461
sg68
(lp3468
cgluon.languages
lazyT_unpickle
p3469
(S't\x04\x00\x00\x00Home'
tRp3470
asbasbasbag61
(g77
g63
NtRp3471
(dp3472
g66
(dp3473
sg75
g3453
sg68
(lp3474
g61
(g82
g63
NtRp3475
(dp3476
g66
(dp3477
sg75
g3471
sg68
(lp3478
g61
(g62
g63
NtRp3479
(dp3480
g66
(dp3481
g74
I3
ssg75
g3475
sg68
(lp3482
g104
asbasbasbag61
(g77
g63
NtRp3483
(dp3484
g66
(dp3485
sg75
g3453
sg68
(lp3486
g61
(g82
g63
NtRp3487
(dp3488
g66
(dp3489
sg75
g3483
sg68
(lp3490
g61
(g62
g63
NtRp3491
(dp3492
g66
(dp3493
g74
I3
ssg75
g3487
sg68
(lp3494
S'/xcpadmin/default/index'
p3495
asbasbasbag61
(g77
g63
NtRp3496
(dp3497
g66
(dp3498
sg75
g3453
sg68
(lp3499
g61
(g82
g63
NtRp3500
(dp3501
g66
(dp3502
sg75
g3496
sg68
(lp3503
g61
(g62
g63
NtRp3504
(dp3505
g66
(dp3506
g74
I3
ssg75
g3500
sg68
(lp3507
g61
(g70
g63
NtRp3508
(dp3509
g66
(dp3510
g74
I2
ssg75
Nsg68
(lp3511
sbasbasbasbasbasbasbasbag61
(g77
g63
NtRp3512
(dp3513
g66
(dp3514
sg75
g3437
sg68
(lp3515
g61
(g82
g63
NtRp3516
(dp3517
g66
(dp3518
sg75
g3512
sg68
(lp3519
g61
(g62
g63
NtRp3520
(dp3521
g66
(dp3522
g74
I4
ssg75
g3516
sg68
(lp3523
g61
(g70
g63
NtRp3524
(dp3525
g66
(dp3526
g74
I3
ssg75
Nsg68
(lp3527
g61
(g77
g63
NtRp3528
(dp3529
g66
(dp3530
sg75
g3524
sg68
(lp3531
g61
(g82
g63
NtRp3532
(dp3533
g66
(dp3534
sg75
g3528
sg68
(lp3535
g61
(g62
g63
NtRp3536
(dp3537
g66
(dp3538
g74
I3
ssg75
g3532
sg68
(lp3539
g61
(cgluon.html
SPAN
p3540
g63
NtRp3541
(dp3542
g66
(dp3543
g86
S'color:yellow'
p3544
ssg75
Nsg68
(lp3545
g3415
asbasbasbasbag61
(g77
g63
NtRp3546
(dp3547
g66
(dp3548
sg75
g3524
sg68
(lp3549
g61
(g82
g63
NtRp3550
(dp3551
g66
(dp3552
sg75
g3546
sg68
(lp3553
g61
(g62
g63
NtRp3554
(dp3555
g66
(dp3556
g74
I3
ssg75
g3550
sg68
(lp3557
g104
asbasbasbag61
(g77
g63
NtRp3558
(dp3559
g66
(dp3560
sg75
g3524
sg68
(lp3561
g61
(g82
g63
NtRp3562
(dp3563
g66
(dp3564
sg75
g3558
sg68
(lp3565
g61
(g62
g63
NtRp3566
(dp3567
g66
(dp3568
g74
I3
ssg75
g3562
sg68
(lp3569
S'None'
p3570
asbasbasbag61
(g77
g63
NtRp3571
(dp3572
g66
(dp3573
sg75
g3524
sg68
(lp3574
g61
(g82
g63
NtRp3575
(dp3576
g66
(dp3577
sg75
g3571
sg68
(lp3578
g61
(g62
g63
NtRp3579
(dp3580
g66
(dp3581
g74
I3
ssg75
g3575
sg68
(lp3582
g61
(g70
g63
NtRp3583
(dp3584
g66
(dp3585
g74
I2
ssg75
Nsg68
(lp3586
g61
(g77
g63
NtRp3587
(dp3588
g66
(dp3589
sg75
g3583
sg68
(lp3590
g61
(g82
g63
NtRp3591
(dp3592
g66
(dp3593
sg75
g3587
sg68
(lp3594
g61
(g62
g63
NtRp3595
(dp3596
g66
(dp3597
g74
I2
ssg75
g3591
sg68
(lp3598
g61
(g70
g63
NtRp3599
(dp3600
g66
(dp3601
g74
I1
ssg75
Nsg68
(lp3602
g61
(g77
g63
NtRp3603
(dp3604
g66
(dp3605
sg75
g3599
sg68
(lp3606
g61
(g82
g63
NtRp3607
(dp3608
g66
(dp3609
sg75
g3603
sg68
(lp3610
g61
(g62
g63
NtRp3611
(dp3612
g66
(dp3613
g74
I1
ssg75
g3607
sg68
(lp3614
g3469
(S's\x08\x00\x00\x00My Sites'
tRp3615
asbasbasbag61
(g77
g63
NtRp3616
(dp3617
g66
(dp3618
sg75
g3599
sg68
(lp3619
g61
(g82
g63
NtRp3620
(dp3621
g66
(dp3622
sg75
g3616
sg68
(lp3623
g61
(g62
g63
NtRp3624
(dp3625
g66
(dp3626
g74
I1
ssg75
g3620
sg68
(lp3627
I00
asbasbasbag61
(g77
g63
NtRp3628
(dp3629
g66
(dp3630
sg75
g3599
sg68
(lp3631
g61
(g82
g63
NtRp3632
(dp3633
g66
(dp3634
sg75
g3628
sg68
(lp3635
g61
(g62
g63
NtRp3636
(dp3637
g66
(dp3638
g74
I1
ssg75
g3632
sg68
(lp3639
S'/admin/default/site'
p3640
asbasbasbasbasbasbasbag61
(g77
g63
NtRp3641
(dp3642
g66
(dp3643
sg75
g3583
sg68
(lp3644
g61
(g82
g63
NtRp3645
(dp3646
g66
(dp3647
sg75
g3641
sg68
(lp3648
g61
(g62
g63
NtRp3649
(dp3650
g66
(dp3651
g74
I2
ssg75
g3645
sg68
(lp3652
g61
(g70
g63
NtRp3653
(dp3654
g66
(dp3655
g74
I1
ssg75
Nsg68
(lp3656
g61
(g77
g63
NtRp3657
(dp3658
g66
(dp3659
sg75
g3653
sg68
(lp3660
g61
(g82
g63
NtRp3661
(dp3662
g66
(dp3663
sg75
g3657
sg68
(lp3664
g61
(g62
g63
NtRp3665
(dp3666
g66
(dp3667
g74
I1
ssg75
g3661
sg68
(lp3668
g3469
(S's\x08\x00\x00\x00This App'
tRp3669
asbasbasbag61
(g77
g63
NtRp3670
(dp3671
g66
(dp3672
sg75
g3653
sg68
(lp3673
g61
(g82
g63
NtRp3674
(dp3675
g66
(dp3676
sg75
g3670
sg68
(lp3677
g61
(g62
g63
NtRp3678
(dp3679
g66
(dp3680
g74
I1
ssg75
g3674
sg68
(lp3681
I00
asbasbasbag61
(g77
g63
NtRp3682
(dp3683
g66
(dp3684
sg75
g3653
sg68
(lp3685
g61
(g82
g63
NtRp3686
(dp3687
g66
(dp3688
sg75
g3682
sg68
(lp3689
g61
(g62
g63
NtRp3690
(dp3691
g66
(dp3692
g74
I1
ssg75
g3686
sg68
(lp3693
S'/admin/default/design/xcpadmin'
p3694
asbasbasbag61
(g77
g63
NtRp3695
(dp3696
g66
(dp3697
sg75
g3653
sg68
(lp3698
g61
(g82
g63
NtRp3699
(dp3700
g66
(dp3701
sg75
g3695
sg68
(lp3702
g61
(g62
g63
NtRp3703
(dp3704
g66
(dp3705
g74
I1
ssg75
g3699
sg68
(lp3706
(lp3707
(g3469
(S't\x0b\x00\x00\x00Controlador'
tRp3708
I00
S'/admin/default/edit/xcpadmin/controllers/listvm.py'
tp3709
a(g3469
(S's\x0e\x00\x00\x00Visualiza\xc3\xa7\xc3\xa3o'
tRp3710
I00
S'/admin/default/edit/xcpadmin/views/listvm/index.html'
tp3711
a(g3469
(S't\x06\x00\x00\x00Layout'
tRp3712
I00
S'/admin/default/edit/xcpadmin/views/layout.html'
tp3713
a(g3469
(S't\n\x00\x00\x00Stylesheet'
tRp3714
I00
S'/admin/default/edit/xcpadmin/static/css/web2py.css'
tp3715
a(g3469
(S's\t\x00\x00\x00Modelo BD'
tRp3716
I00
S'/admin/default/edit/xcpadmin/models/db.py'
tp3717
a(g3469
(S's\x0e\x00\x00\x00Modelo de Menu'
tRp3718
I00
S'/admin/default/edit/xcpadmin/models/menu.py'
tp3719
a(g3469
(S's\x0e\x00\x00\x00Banco de dados'
tRp3720
I00
S'/xcpadmin/appadmin/index'
tp3721
a(g3469
(S't\x06\x00\x00\x00Errors'
tRp3722
I00
S'/admin/default/errors/xcpadmin'
tp3723
a(g3469
(S't\x05\x00\x00\x00About'
tRp3724
I00
S'/admin/default/about/xcpadmin'
tp3725
aasbasbasbasbasbasbasbag61
(g77
g63
NtRp3726
(dp3727
g66
(dp3728
sg75
g3583
sg68
(lp3729
g61
(g82
g63
NtRp3730
(dp3731
g66
(dp3732
sg75
g3726
sg68
(lp3733
g61
(g62
g63
NtRp3734
(dp3735
g66
(dp3736
g74
I2
ssg75
g3730
sg68
(lp3737
g61
(g70
g63
NtRp3738
(dp3739
g66
(dp3740
g74
I1
ssg75
Nsg68
(lp3741
g61
(g77
g63
NtRp3742
(dp3743
g66
(dp3744
sg75
g3738
sg68
(lp3745
g61
(g82
g63
NtRp3746
(dp3747
g66
(dp3748
sg75
g3742
sg68
(lp3749
g61
(g62
g63
NtRp3750
(dp3751
g66
(dp3752
g74
I1
ssg75
g3746
sg68
(lp3753
S'web2py.com'
p3754
asbasbasbag61
(g77
g63
NtRp3755
(dp3756
g66
(dp3757
sg75
g3738
sg68
(lp3758
g61
(g82
g63
NtRp3759
(dp3760
g66
(dp3761
sg75
g3755
sg68
(lp3762
g61
(g62
g63
NtRp3763
(dp3764
g66
(dp3765
g74
I1
ssg75
g3759
sg68
(lp3766
I00
asbasbasbag61
(g77
g63
NtRp3767
(dp3768
g66
(dp3769
sg75
g3738
sg68
(lp3770
g61
(g82
g63
NtRp3771
(dp3772
g66
(dp3773
sg75
g3767
sg68
(lp3774
g61
(g62
g63
NtRp3775
(dp3776
g66
(dp3777
g74
I1
ssg75
g3771
sg68
(lp3778
S'http://www.web2py.com'
p3779
asbasbasbag61
(g77
g63
NtRp3780
(dp3781
g66
(dp3782
sg75
g3738
sg68
(lp3783
g61
(g82
g63
NtRp3784
(dp3785
g66
(dp3786
sg75
g3780
sg68
(lp3787
g61
(g62
g63
NtRp3788
(dp3789
g66
(dp3790
g74
I1
ssg75
g3784
sg68
(lp3791
(lp3792
(g3469
(S't\x08\x00\x00\x00Download'
tRp3793
I00
S'http://www.web2py.com/examples/default/download'
p3794
tp3795
a(g3469
(S't\x07\x00\x00\x00Support'
tRp3796
I00
S'http://www.web2py.com/examples/default/support'
p3797
tp3798
a(g3469
(S't\x04\x00\x00\x00Demo'
tRp3799
I00
S'http://web2py.com/demo_admin'
p3800
tp3801
a(g3469
(S's\x0e\x00\x00\x00Quick Examples'
tRp3802
I00
S'http://web2py.com/examples/default/examples'
p3803
tp3804
a(g3469
(S't\x03\x00\x00\x00FAQ'
tRp3805
I00
S'http://web2py.com/AlterEgo'
p3806
tp3807
a(g3469
(S't\x06\x00\x00\x00Videos'
tRp3808
I00
S'http://www.web2py.com/examples/default/videos/'
p3809
tp3810
a(g3469
(S's\x11\x00\x00\x00Free Applications'
tRp3811
I00
S'http://web2py.com/appliances'
p3812
tp3813
a(g3469
(S't\x07\x00\x00\x00Plugins'
tRp3814
I00
S'http://web2py.com/plugins'
p3815
tp3816
a(g3469
(S't\x07\x00\x00\x00Layouts'
tRp3817
I00
S'http://web2py.com/layouts'
p3818
tp3819
a(g3469
(S't\x07\x00\x00\x00Recipes'
tRp3820
I00
S'http://web2pyslices.com/'
p3821
tp3822
a(g3469
(S't\x08\x00\x00\x00Semantic'
tRp3823
I00
S'http://web2py.com/semantic'
p3824
tp3825
aasbasbasbasbasbasbasbag61
(g77
g63
NtRp3826
(dp3827
g66
(dp3828
sg75
g3583
sg68
(lp3829
g61
(g82
g63
NtRp3830
(dp3831
g66
(dp3832
sg75
g3826
sg68
(lp3833
g61
(g62
g63
NtRp3834
(dp3835
g66
(dp3836
g74
I2
ssg75
g3830
sg68
(lp3837
g61
(g70
g63
NtRp3838
(dp3839
g66
(dp3840
g74
I1
ssg75
Nsg68
(lp3841
g61
(g77
g63
NtRp3842
(dp3843
g66
(dp3844
sg75
g3838
sg68
(lp3845
g61
(g82
g63
NtRp3846
(dp3847
g66
(dp3848
sg75
g3842
sg68
(lp3849
g61
(g62
g63
NtRp3850
(dp3851
g66
(dp3852
g74
I1
ssg75
g3846
sg68
(lp3853
g3469
(S't\r\x00\x00\x00Documentation'
tRp3854
asbasbasbag61
(g77
g63
NtRp3855
(dp3856
g66
(dp3857
sg75
g3838
sg68
(lp3858
g61
(g82
g63
NtRp3859
(dp3860
g66
(dp3861
sg75
g3855
sg68
(lp3862
g61
(g62
g63
NtRp3863
(dp3864
g66
(dp3865
g74
I1
ssg75
g3859
sg68
(lp3866
I00
asbasbasbag61
(g77
g63
NtRp3867
(dp3868
g66
(dp3869
sg75
g3838
sg68
(lp3870
g61
(g82
g63
NtRp3871
(dp3872
g66
(dp3873
sg75
g3867
sg68
(lp3874
g61
(g62
g63
NtRp3875
(dp3876
g66
(dp3877
g74
I1
ssg75
g3871
sg68
(lp3878
S'http://www.web2py.com/book'
p3879
asbasbasbag61
(g77
g63
NtRp3880
(dp3881
g66
(dp3882
sg75
g3838
sg68
(lp3883
g61
(g82
g63
NtRp3884
(dp3885
g66
(dp3886
sg75
g3880
sg68
(lp3887
g61
(g62
g63
NtRp3888
(dp3889
g66
(dp3890
g74
I1
ssg75
g3884
sg68
(lp3891
(lp3892
(g3469
(S't\x07\x00\x00\x00Preface'
tRp3893
I00
S'http://www.web2py.com/book/default/chapter/00'
p3894
tp3895
a(g3469
(S't\x0c\x00\x00\x00Introduction'
tRp3896
I00
S'http://www.web2py.com/book/default/chapter/01'
p3897
tp3898
a(g3469
(S't\x06\x00\x00\x00Python'
tRp3899
I00
S'http://www.web2py.com/book/default/chapter/02'
p3900
tp3901
a(g3469
(S't\x08\x00\x00\x00Overview'
tRp3902
I00
S'http://www.web2py.com/book/default/chapter/03'
p3903
tp3904
a(g3469
(S's\x08\x00\x00\x00The Core'
tRp3905
I00
S'http://www.web2py.com/book/default/chapter/04'
p3906
tp3907
a(g3469
(S's\t\x00\x00\x00The Views'
tRp3908
I00
S'http://www.web2py.com/book/default/chapter/05'
p3909
tp3910
a(g3469
(S's\x0e\x00\x00\x00Banco de dados'
tRp3911
I00
S'http://www.web2py.com/book/default/chapter/06'
p3912
tp3913
a(g3469
(S's\x14\x00\x00\x00Forms and Validators'
tRp3914
I00
S'http://www.web2py.com/book/default/chapter/07'
p3915
tp3916
a(g3469
(S's\r\x00\x00\x00Email and SMS'
tRp3917
I00
S'http://www.web2py.com/book/default/chapter/08'
p3918
tp3919
a(g3469
(S's\x0e\x00\x00\x00Access Control'
tRp3920
I00
S'http://www.web2py.com/book/default/chapter/09'
p3921
tp3922
a(g3469
(S't\x08\x00\x00\x00Services'
tRp3923
I00
S'http://www.web2py.com/book/default/chapter/10'
p3924
tp3925
a(g3469
(S's\x0c\x00\x00\x00Ajax Recipes'
tRp3926
I00
S'http://www.web2py.com/book/default/chapter/11'
p3927
tp3928
a(g3469
(S's\x16\x00\x00\x00Components and Plugins'
tRp3929
I00
S'http://www.web2py.com/book/default/chapter/12'
p3930
tp3931
a(g3469
(S's\x12\x00\x00\x00Deployment Recipes'
tRp3932
I00
S'http://www.web2py.com/book/default/chapter/13'
p3933
tp3934
a(g3469
(S's\r\x00\x00\x00Other Recipes'
tRp3935
I00
S'http://www.web2py.com/book/default/chapter/14'
p3936
tp3937
a(g3469
(S's\r\x00\x00\x00Buy this book'
tRp3938
I00
S'http://stores.lulu.com/web2py'
p3939
tp3940
aasbasbasbasbasbasbasbag61
(g77
g63
NtRp3941
(dp3942
g66
(dp3943
sg75
g3583
sg68
(lp3944
g61
(g82
g63
NtRp3945
(dp3946
g66
(dp3947
sg75
g3941
sg68
(lp3948
g61
(g62
g63
NtRp3949
(dp3950
g66
(dp3951
g74
I2
ssg75
g3945
sg68
(lp3952
g61
(g70
g63
NtRp3953
(dp3954
g66
(dp3955
g74
I1
ssg75
Nsg68
(lp3956
g61
(g77
g63
NtRp3957
(dp3958
g66
(dp3959
sg75
g3953
sg68
(lp3960
g61
(g82
g63
NtRp3961
(dp3962
g66
(dp3963
sg75
g3957
sg68
(lp3964
g61
(g62
g63
NtRp3965
(dp3966
g66
(dp3967
g74
I1
ssg75
g3961
sg68
(lp3968
g3469
(S't\t\x00\x00\x00Community'
tRp3969
asbasbasbag61
(g77
g63
NtRp3970
(dp3971
g66
(dp3972
sg75
g3953
sg68
(lp3973
g61
(g82
g63
NtRp3974
(dp3975
g66
(dp3976
sg75
g3970
sg68
(lp3977
g61
(g62
g63
NtRp3978
(dp3979
g66
(dp3980
g74
I1
ssg75
g3974
sg68
(lp3981
I00
asbasbasbag61
(g77
g63
NtRp3982
(dp3983
g66
(dp3984
sg75
g3953
sg68
(lp3985
g61
(g82
g63
NtRp3986
(dp3987
g66
(dp3988
sg75
g3982
sg68
(lp3989
g61
(g62
g63
NtRp3990
(dp3991
g66
(dp3992
g74
I1
ssg75
g3986
sg68
(lp3993
Nasbasbasbag61
(g77
g63
NtRp3994
(dp3995
g66
(dp3996
sg75
g3953
sg68
(lp3997
g61
(g82
g63
NtRp3998
(dp3999
g66
(dp4000
sg75
g3994
sg68
(lp4001
g61
(g62
g63
NtRp4002
(dp4003
g66
(dp4004
g74
I1
ssg75
g3998
sg68
(lp4005
(lp4006
(g3469
(S't\x06\x00\x00\x00Groups'
tRp4007
I00
S'http://www.web2py.com/examples/default/usergroups'
p4008
tp4009
a(g3469
(S't\x07\x00\x00\x00Twitter'
tRp4010
I00
S'http://twitter.com/web2py'
p4011
tp4012
a(g3469
(S's\t\x00\x00\x00Live Chat'
tRp4013
I00
S'http://webchat.freenode.net/?channels=web2py'
p4014
tp4015
aasbasbasbasbasbasbasbag61
(g77
g63
NtRp4016
(dp4017
g66
(dp4018
sg75
g3583
sg68
(lp4019
g61
(g82
g63
NtRp4020
(dp4021
g66
(dp4022
sg75
g4016
sg68
(lp4023
g61
(g62
g63
NtRp4024
(dp4025
g66
(dp4026
g74
I2
ssg75
g4020
sg68
(lp4027
g61
(g70
g63
NtRp4028
(dp4029
g66
(dp4030
g74
I1
ssg75
Nsg68
(lp4031
g61
(g77
g63
NtRp4032
(dp4033
g66
(dp4034
sg75
g4028
sg68
(lp4035
g61
(g82
g63
NtRp4036
(dp4037
g66
(dp4038
sg75
g4032
sg68
(lp4039
g61
(g62
g63
NtRp4040
(dp4041
g66
(dp4042
g74
I1
ssg75
g4036
sg68
(lp4043
g3469
(S't\x07\x00\x00\x00Plugins'
tRp4044
asbasbasbag61
(g77
g63
NtRp4045
(dp4046
g66
(dp4047
sg75
g4028
sg68
(lp4048
g61
(g82
g63
NtRp4049
(dp4050
g66
(dp4051
sg75
g4045
sg68
(lp4052
g61
(g62
g63
NtRp4053
(dp4054
g66
(dp4055
g74
I1
ssg75
g4049
sg68
(lp4056
I00
asbasbasbag61
(g77
g63
NtRp4057
(dp4058
g66
(dp4059
sg75
g4028
sg68
(lp4060
g61
(g82
g63
NtRp4061
(dp4062
g66
(dp4063
sg75
g4057
sg68
(lp4064
g61
(g62
g63
NtRp4065
(dp4066
g66
(dp4067
g74
I1
ssg75
g4061
sg68
(lp4068
Nasbasbasbag61
(g77
g63
NtRp4069
(dp4070
g66
(dp4071
sg75
g4028
sg68
(lp4072
g61
(g82
g63
NtRp4073
(dp4074
g66
(dp4075
sg75
g4069
sg68
(lp4076
g61
(g62
g63
NtRp4077
(dp4078
g66
(dp4079
g74
I1
ssg75
g4073
sg68
(lp4080
(lp4081
(S'plugin_wiki'
p4082
I00
S'http://web2py.com/examples/default/download'
p4083
tp4084
a(g3469
(S's\r\x00\x00\x00Other Plugins'
tRp4085
I00
g3815
tp4086
a(g3469
(S's\x0e\x00\x00\x00Layout Plugins'
tRp4087
I00
g3818
tp4088
aasbasbasbasbasbasbasbasbasbasbasbasbasbasbasbasbasbasbasbag61
(g77
g63
NtRp4089
(dp4090
g66
(dp4091
sg75
g2984
sg68
(lp4092
g61
(g82
g63
NtRp4093
(dp4094
g66
(dp4095
g86
g87
ssg75
g4089
sg68
(lp4096
S'meta'
p4097
asbag61
(g82
g63
NtRp4098
(dp4099
g66
(dp4100
g93
g94
ssg75
g4089
sg68
(lp4101
S':'
asbag61
(g82
g63
NtRp4102
(dp4103
g66
(dp4104
sg75
g4089
sg68
(lp4105
g61
(g62
g63
NtRp4106
(dp4107
g66
(dp4108
g74
I5
ssg75
g4102
sg68
(lp4109
g61
(g70
g63
NtRp4110
(dp4111
g66
(dp4112
g74
I4
ssg75
Nsg68
(lp4113
g61
(g77
g63
NtRp4114
(dp4115
g66
(dp4116
sg75
g4110
sg68
(lp4117
g61
(g82
g63
NtRp4118
(dp4119
g66
(dp4120
g86
g87
ssg75
g4114
sg68
(lp4121
S'author'
p4122
asbag61
(g82
g63
NtRp4123
(dp4124
g66
(dp4125
g93
g94
ssg75
g4114
sg68
(lp4126
S':'
asbag61
(g82
g63
NtRp4127
(dp4128
g66
(dp4129
sg75
g4114
sg68
(lp4130
g61
(g62
g63
NtRp4131
(dp4132
g66
(dp4133
g74
I4
ssg75
g4127
sg68
(lp4134
S'Your Name <you@example.com>'
p4135
asbasbasbag61
(g77
g63
NtRp4136
(dp4137
g66
(dp4138
sg75
g4110
sg68
(lp4139
g61
(g82
g63
NtRp4140
(dp4141
g66
(dp4142
g86
g87
ssg75
g4136
sg68
(lp4143
S'copyright'
p4144
asbag61
(g82
g63
NtRp4145
(dp4146
g66
(dp4147
g93
g94
ssg75
g4136
sg68
(lp4148
S':'
asbag61
(g82
g63
NtRp4149
(dp4150
g66
(dp4151
sg75
g4136
sg68
(lp4152
g61
(g62
g63
NtRp4153
(dp4154
g66
(dp4155
g74
I4
ssg75
g4149
sg68
(lp4156
S'Copyright 2011'
p4157
asbasbasbag61
(g77
g63
NtRp4158
(dp4159
g66
(dp4160
sg75
g4110
sg68
(lp4161
g61
(g82
g63
NtRp4162
(dp4163
g66
(dp4164
g86
g87
ssg75
g4158
sg68
(lp4165
S'description'
p4166
asbag61
(g82
g63
NtRp4167
(dp4168
g66
(dp4169
g93
g94
ssg75
g4158
sg68
(lp4170
S':'
asbag61
(g82
g63
NtRp4171
(dp4172
g66
(dp4173
sg75
g4158
sg68
(lp4174
g61
(g62
g63
NtRp4175
(dp4176
g66
(dp4177
g74
I4
ssg75
g4171
sg68
(lp4178
S'a cool new app'
p4179
asbasbasbag61
(g77
g63
NtRp4180
(dp4181
g66
(dp4182
sg75
g4110
sg68
(lp4183
g61
(g82
g63
NtRp4184
(dp4185
g66
(dp4186
g86
g87
ssg75
g4180
sg68
(lp4187
S'generator'
p4188
asbag61
(g82
g63
NtRp4189
(dp4190
g66
(dp4191
g93
g94
ssg75
g4180
sg68
(lp4192
S':'
asbag61
(g82
g63
NtRp4193
(dp4194
g66
(dp4195
sg75
g4180
sg68
(lp4196
g61
(g62
g63
NtRp4197
(dp4198
g66
(dp4199
g74
I4
ssg75
g4193
sg68
(lp4200
S'Web2py Web Framework'
p4201
asbasbasbag61
(g77
g63
NtRp4202
(dp4203
g66
(dp4204
sg75
g4110
sg68
(lp4205
g61
(g82
g63
NtRp4206
(dp4207
g66
(dp4208
g86
g87
ssg75
g4202
sg68
(lp4209
S'keywords'
p4210
asbag61
(g82
g63
NtRp4211
(dp4212
g66
(dp4213
g93
g94
ssg75
g4202
sg68
(lp4214
S':'
asbag61
(g82
g63
NtRp4215
(dp4216
g66
(dp4217
sg75
g4202
sg68
(lp4218
g61
(g62
g63
NtRp4219
(dp4220
g66
(dp4221
g74
I4
ssg75
g4215
sg68
(lp4222
S'web2py, python, framework'
p4223
asbasbasbasbasbasbasbag61
(g77
g63
NtRp4224
(dp4225
g66
(dp4226
sg75
g2984
sg68
(lp4227
g61
(g82
g63
NtRp4228
(dp4229
g66
(dp4230
g86
g87
ssg75
g4224
sg68
(lp4231
S'postprocessing'
p4232
asbag61
(g82
g63
NtRp4233
(dp4234
g66
(dp4235
g93
g94
ssg75
g4224
sg68
(lp4236
S':'
asbag61
(g82
g63
NtRp4237
(dp4238
g66
(dp4239
sg75
g4224
sg68
(lp4240
g61
(g62
g63
NtRp4241
(dp4242
g66
(dp4243
g74
I5
ssg75
g4237
sg68
(lp4244
g61
(g70
g63
NtRp4245
(dp4246
g66
(dp4247
g74
I4
ssg75
Nsg68
(lp4248
sbasbasbasbag61
(g77
g63
NtRp4249
(dp4250
g66
(dp4251
sg75
g2984
sg68
(lp4252
g61
(g82
g63
NtRp4253
(dp4254
g66
(dp4255
g86
g87
ssg75
g4249
sg68
(lp4256
S'session_file'
p4257
asbag61
(g82
g63
NtRp4258
(dp4259
g66
(dp4260
g93
g94
ssg75
g4249
sg68
(lp4261
S':'
asbag61
(g82
g63
NtRp4262
(dp4263
g66
(dp4264
sg75
g4249
sg68
(lp4265
g61
(g62
g63
NtRp4266
(dp4267
g66
(dp4268
g74
I5
ssg75
g4262
sg68
(lp4269
S"<open file 'C:\\Users\\nilton\\Desktop\\scripts\\curso_de_python\\web2py\\applications\\xcpadmin\\sessions\\127.0.0.1-0cb88dcb-67b2-4748-8846-25f35503a0e7', mode 'rb+' at 0x05E07DA0>"
p4270
asbasbasbag61
(g77
g63
NtRp4271
(dp4272
g66
(dp4273
sg75
g2984
sg68
(lp4274
g61
(g82
g63
NtRp4275
(dp4276
g66
(dp4277
g86
g87
ssg75
g4271
sg68
(lp4278
S'session_filename'
p4279
asbag61
(g82
g63
NtRp4280
(dp4281
g66
(dp4282
g93
g94
ssg75
g4271
sg68
(lp4283
S':'
asbag61
(g82
g63
NtRp4284
(dp4285
g66
(dp4286
sg75
g4271
sg68
(lp4287
g61
(g62
g63
NtRp4288
(dp4289
g66
(dp4290
g74
I5
ssg75
g4284
sg68
(lp4291
S'C:\\Users\\nilton\\Desktop\\scripts\\curso_de_python\\web2py\\applications\\xcpadmin\\sessions\\127.0.0.1-0cb88dcb-67b2-4748-8846-25f35503a0e7'
p4292
asbasbasbag61
(g77
g63
NtRp4293
(dp4294
g66
(dp4295
sg75
g2984
sg68
(lp4296
g61
(g82
g63
NtRp4297
(dp4298
g66
(dp4299
g86
g87
ssg75
g4293
sg68
(lp4300
S'session_id'
p4301
asbag61
(g82
g63
NtRp4302
(dp4303
g66
(dp4304
g93
g94
ssg75
g4293
sg68
(lp4305
S':'
asbag61
(g82
g63
NtRp4306
(dp4307
g66
(dp4308
sg75
g4293
sg68
(lp4309
g61
(g62
g63
NtRp4310
(dp4311
g66
(dp4312
g74
I5
ssg75
g4306
sg68
(lp4313
S'127.0.0.1-0cb88dcb-67b2-4748-8846-25f35503a0e7'
p4314
asbasbasbag61
(g77
g63
NtRp4315
(dp4316
g66
(dp4317
sg75
g2984
sg68
(lp4318
g61
(g82
g63
NtRp4319
(dp4320
g66
(dp4321
g86
g87
ssg75
g4315
sg68
(lp4322
S'session_id_name'
p4323
asbag61
(g82
g63
NtRp4324
(dp4325
g66
(dp4326
g93
g94
ssg75
g4315
sg68
(lp4327
S':'
asbag61
(g82
g63
NtRp4328
(dp4329
g66
(dp4330
sg75
g4315
sg68
(lp4331
g61
(g62
g63
NtRp4332
(dp4333
g66
(dp4334
g74
I5
ssg75
g4328
sg68
(lp4335
g3041
asbasbasbag61
(g77
g63
NtRp4336
(dp4337
g66
(dp4338
sg75
g2984
sg68
(lp4339
g61
(g82
g63
NtRp4340
(dp4341
g66
(dp4342
g86
g87
ssg75
g4336
sg68
(lp4343
S'session_locked'
p4344
asbag61
(g82
g63
NtRp4345
(dp4346
g66
(dp4347
g93
g94
ssg75
g4336
sg68
(lp4348
S':'
asbag61
(g82
g63
NtRp4349
(dp4350
g66
(dp4351
sg75
g4336
sg68
(lp4352
g61
(g62
g63
NtRp4353
(dp4354
g66
(dp4355
g74
I5
ssg75
g4349
sg68
(lp4356
g1621
asbasbasbag61
(g77
g63
NtRp4357
(dp4358
g66
(dp4359
sg75
g2984
sg68
(lp4360
g61
(g82
g63
NtRp4361
(dp4362
g66
(dp4363
g86
g87
ssg75
g4357
sg68
(lp4364
S'session_new'
p4365
asbag61
(g82
g63
NtRp4366
(dp4367
g66
(dp4368
g93
g94
ssg75
g4357
sg68
(lp4369
S':'
asbag61
(g82
g63
NtRp4370
(dp4371
g66
(dp4372
sg75
g4357
sg68
(lp4373
g61
(g62
g63
NtRp4374
(dp4375
g66
(dp4376
g74
I5
ssg75
g4370
sg68
(lp4377
g104
asbasbasbag61
(g77
g63
NtRp4378
(dp4379
g66
(dp4380
sg75
g2984
sg68
(lp4381
g61
(g82
g63
NtRp4382
(dp4383
g66
(dp4384
g86
g87
ssg75
g4378
sg68
(lp4385
S'status'
p4386
asbag61
(g82
g63
NtRp4387
(dp4388
g66
(dp4389
g93
g94
ssg75
g4378
sg68
(lp4390
S':'
asbag61
(g82
g63
NtRp4391
(dp4392
g66
(dp4393
sg75
g4378
sg68
(lp4394
g61
(g62
g63
NtRp4395
(dp4396
g66
(dp4397
g74
I5
ssg75
g4391
sg68
(lp4398
S'200'
p4399
asbasbasbag61
(g77
g63
NtRp4400
(dp4401
g66
(dp4402
sg75
g2984
sg68
(lp4403
g61
(g82
g63
NtRp4404
(dp4405
g66
(dp4406
g86
g87
ssg75
g4400
sg68
(lp4407
S'subtitle'
p4408
asbag61
(g82
g63
NtRp4409
(dp4410
g66
(dp4411
g93
g94
ssg75
g4400
sg68
(lp4412
S':'
asbag61
(g82
g63
NtRp4413
(dp4414
g66
(dp4415
sg75
g4400
sg68
(lp4416
g61
(g62
g63
NtRp4417
(dp4418
g66
(dp4419
g74
I5
ssg75
g4413
sg68
(lp4420
g3469
(S's\x0f\x00\x00\x00Personalize-me!'
tRp4421
asbasbasbag61
(g77
g63
NtRp4422
(dp4423
g66
(dp4424
sg75
g2984
sg68
(lp4425
g61
(g82
g63
NtRp4426
(dp4427
g66
(dp4428
g86
g87
ssg75
g4422
sg68
(lp4429
S'title'
p4430
asbag61
(g82
g63
NtRp4431
(dp4432
g66
(dp4433
g93
g94
ssg75
g4422
sg68
(lp4434
S':'
asbag61
(g82
g63
NtRp4435
(dp4436
g66
(dp4437
sg75
g4422
sg68
(lp4438
g61
(g62
g63
NtRp4439
(dp4440
g66
(dp4441
g74
I5
ssg75
g4435
sg68
(lp4442
S'XCP ADMIN'
p4443
asbasbasbag61
(g77
g63
NtRp4444
(dp4445
g66
(dp4446
sg75
g2984
sg68
(lp4447
g61
(g82
g63
NtRp4448
(dp4449
g66
(dp4450
g86
g87
ssg75
g4444
sg68
(lp4451
g2285
asbag61
(g82
g63
NtRp4452
(dp4453
g66
(dp4454
g93
g94
ssg75
g4444
sg68
(lp4455
S':'
asbag61
(g82
g63
NtRp4456
(dp4457
g66
(dp4458
sg75
g4444
sg68
(lp4459
g61
(g62
g63
NtRp4460
(dp4461
g66
(dp4462
g74
I5
ssg75
g4456
sg68
(lp4463
g2298
asbasbasbag61
(g77
g63
NtRp4464
(dp4465
g66
(dp4466
sg75
g2984
sg68
(lp4467
g61
(g82
g63
NtRp4468
(dp4469
g66
(dp4470
g86
g87
ssg75
g4464
sg68
(lp4471
S'view'
p4472
asbag61
(g82
g63
NtRp4473
(dp4474
g66
(dp4475
g93
g94
ssg75
g4464
sg68
(lp4476
S':'
asbag61
(g82
g63
NtRp4477
(dp4478
g66
(dp4479
sg75
g4464
sg68
(lp4480
g61
(g62
g63
NtRp4481
(dp4482
g66
(dp4483
g74
I5
ssg75
g4477
sg68
(lp4484
S'listvm/index.html'
p4485
asbasbasbasbasbsS'locals'
p4486
(dp4487
g4
S"r'C:\\Users\\nilton\\Desktop\\scripts\\curso_de_python\\web2py\\applications\\xcpadmin\\views\\listvm/index.html'"
p4488
sg6
S'r"response.write(\'<!DOCTYPE html>\\n<!-- paulirish....ponse.write(\'\\n</body>\\n</html>\\n\', escape=False)"'
p4489
sssS'traceback'
p4490
S'Traceback (most recent call last):\n  File "gluon/restricted.py", line 203, in restricted\n  File "gluon/restricted.py", line 189, in compile2\n  File "C:\\Users\\nilton\\Desktop\\scripts\\curso_de_python\\web2py\\applications\\xcpadmin\\views\\listvm/index.html", line 84\n    \nSyntaxError: keyword can\'t be an expression\n'
p4491
s.