(dp1
S'output'
p2
S"<type 'exceptions.KeyError'> 0"
p3
sS'layer'
p4
S'C:\\Users\\nilton\\Desktop\\scripts\\curso_de_python\\web2py\\applications\\xcpadmin\\views\\listvm/index.html'
p5
sS'code'
p6
S'response.write(\'<!DOCTYPE html>\\n<!-- paulirish.com/2008/conditional-stylesheets-vs-css-hacks-answer-neither/ -->\\n<!--[if lt IE 7]><html class="ie ie6 ie-lte9 ie-lte8 ie-lte7 no-js" lang="\', escape=False)\nresponse.write(T.accepted_language or \'en\')\nresponse.write(\'"> <![endif]-->\\n<!--[if IE 7]><html class="ie ie7 ie-lte9 ie-lte8 ie-lte7 no-js" lang="\', escape=False)\nresponse.write(T.accepted_language or \'en\')\nresponse.write(\'"> <![endif]-->\\n<!--[if IE 8]><html class="ie ie8 ie-lte9 ie-lte8 no-js" lang="\', escape=False)\nresponse.write(T.accepted_language or \'en\')\nresponse.write(\'"> <![endif]-->\\n<!--[if IE 9]><html class="ie9 ie-lte9 no-js" lang="\', escape=False)\nresponse.write(T.accepted_language or \'en\')\nresponse.write(\'"> <![endif]-->\\n<!--[if (gt IE 9)|!(IE)]><!--> <html class="no-js" lang="\', escape=False)\nresponse.write(T.accepted_language or \'en\')\nresponse.write(\'"> <!--<![endif]-->\\n<head>\\n  <meta charset="utf-8" />\\n  <!-- www.phpied.com/conditional-comments-block-downloads/ -->\\n  <!-- Always force latest IE rendering engine\\n\\t   (even in intranet) & Chrome Frame\\n\\t   Remove this if you use the .htaccess -->\\n  <!--[if IE]>\\n    <meta http-equiv="X-UA-Compatible" content="IE=edge\', escape=False)\nresponse.write(not request.is_local and \',chrome=1\' or \'\')\nresponse.write(\'">\\n  <![endif]-->\\n  \\n  <title>\', escape=False)\nresponse.write(response.title or request.application)\nresponse.write(\'</title>\\n  \\n  <!-- http://dev.w3.org/html5/markup/meta.name.html -->\\n  <meta name="application-name" content="\', escape=False)\nresponse.write(request.application)\nresponse.write(\'" />\\n  \\n  <!-- Speaking of Google, don\\\'t forget to set your site up:\\n\\t   http://google.com/webmasters -->\\n  <meta name="google-site-verification" content="" />\\n\\n  <!--  Mobile Viewport Fix\\n\\t  j.mp/mobileviewport & davidbcalhoun.com/2010/viewport-metatag\\n\\t  device-width: Occupy full width of the screen in its current orientation\\n\\t  initial-scale = 1.0 retains dimensions instead of zooming out if page height > device height\\n\\t  user-scalable = yes allows the user to zoom in -->\\n  <meta name="viewport" content="width=device-width, initial-scale=1.0, user-scalable=yes">\\n  \\n  <!-- Place favicon.ico and apple-touch-icon.png in the root of your domain and delete these references -->\\n  <link rel="shortcut icon" href="\', escape=False)\nresponse.write(URL(\'static\',\'favicon.ico\'))\nresponse.write(\'" type="image/x-icon">\\n  <link rel="apple-touch-icon" href="\', escape=False)\nresponse.write(URL(\'static\',\'favicon.png\'))\nresponse.write(\'">\\n\\n  <!-- All JavaScript at the bottom, except for Modernizr which enables \\n\\t   HTML5 elements & feature detects -->\\n  <script src="\', escape=False)\nresponse.write(URL(\'static\',\'js/modernizr.custom.js\'))\nresponse.write(\'"></script>  \\n\\n  <!-- include stylesheets -->\\n  \', escape=False)\nresponse.files.append(URL(\'static\',\'css/skeleton.css\'))\nresponse.files.append(URL(\'static\',\'css/web2py.css\'))\nresponse.files.append(URL(\'static\',\'css/superfish.css\'))\nresponse.files.append(URL(\'static\',\'js/superfish.js\'))\nresponse.write(\'\\n\\n  \', escape=False)\nresponse.write(\'<script type="text/javascript"><!--\\n    // These variables are used by the web2py_ajax_init function in web2py_ajax.js (which is loaded below).\\n    var w2p_ajax_confirm_message = "\', escape=False)\nresponse.write(T(\'Are you sure you want to delete this object?\'))\nresponse.write(\'";\\n    var w2p_ajax_date_format = "\', escape=False)\nresponse.write(T(\'%Y-%m-%d\'))\nresponse.write(\'";\\n    var w2p_ajax_datetime_format = "\', escape=False)\nresponse.write(T(\'%Y-%m-%d %H:%M:%S\'))\nresponse.write(\'";\\n    //--></script>\\n\', escape=False)\nresponse.files.insert(0,URL(\'static\',\'js/jquery.js\'))\nresponse.files.insert(1,URL(\'static\',\'css/calendar.css\'))\nresponse.files.insert(2,URL(\'static\',\'js/calendar.js\'))\nresponse.files.insert(3,URL(\'static\',\'js/web2py.js\'))\nresponse.include_meta()\nresponse.include_files()\nresponse.write(\'\\n\', escape=False)\nresponse.write(\'\\n\\n  <script type="text/javascript">\\n    jQuery(function(){ jQuery(\\\'ul.sf-menu\\\').supersubs({minWidth:12,maxWidth:30,extraWidth:3}).superfish(); });\\n  </script>\\n\\n  \', escape=False)\n# using sidebars need to know what sidebar you want to use\nleft_sidebar_enabled = globals().get(\'left_sidebar_enabled\',False)\nright_sidebar_enabled = globals().get(\'right_sidebar_enabled\',False)\nmiddle_columns = {0:\'sixteen\',1:\'twelve\',2:\'eight\'}[\n(left_sidebar_enabled and 1 or 0)+(right_sidebar_enabled and 1 or 0)]\nresponse.write(\'\\n\\n  <!-- uncomment here to load jquery-ui\\n  <link rel="stylesheet" href="http://ajax.googleapis.com/ajax/libs/jqueryui/1.8.16/themes/base/jquery-ui.css" type="text/css" media="all" />\\n  <script src="http://ajax.googleapis.com/ajax/libs/jqueryui/1.8.16/jquery-ui.min.js" type="text/javascript"></script>\\n  uncomment to load jquery-ui //-->\\n</head>\\n<body>\\n  <div class="wrapper"><!-- for sticky footer -->\\n  \\n    <div class="topbar">\\n      <div class="container">    \\n        <div class="sixteen columns">\\n          <div id="navbar">\', escape=False)\nresponse.write(\'auth\' in globals() and auth.navbar(separators=(\' \',\' | \',\'\')))\nresponse.write(\'</div>\\n          \', escape=False)\nis_mobile=request.user_agent().is_mobile\nresponse.write(\'\\n          <div id="menu">\', escape=False)\nresponse.write(MENU(response.menu, _class=\'mobile-menu\' if is_mobile else \'sf-menu\',mobile=is_mobile))\nresponse.write(\'\\n          </div>\\n        </div>\\n      </div>\\n    </div><!-- topbar -->\\n    \\n    <div class="flash">\', escape=False)\nresponse.write(response.flash or \'\')\nresponse.write(\'</div>\\n    \\n    <div class="header">\\n      <div class="container">         \\n        <div class="sixteen columns">\\n          <h1 class="remove-bottom" style="margin-top: .5em;">\\n          \', escape=False)\nresponse.write(response.title or request.application)\nresponse.write(\'\\n          </h1>\\n          <h5>\', escape=False)\nresponse.write(response.subtitle or \'\')\nresponse.write(\'</h5>\\n        </div>\\n        <div class="sixteen columns">\\n          <div class="statusbar clearfix">\\n            \', escape=False)\nresponse.write(\'\\n            <div class="breadcrumbs">\', escape=False)\nresponse.write(request.function.replace(\'_\', \' \').title())\nresponse.write(\'</div>\\n            \', escape=False)\nresponse.write(\'\\n            <!-- AddToAny BEGIN -->\\n            <div style="float:right; padding-top: .25em;" class="a2a_kit a2a_default_style">\\n            <a class="a2a_dd" href="http://www.addtoany.com/share_save">Share</a></div>\\n            <script type="text/javascript" src="http://static.addtoany.com/menu/page.js"></script>\\n            <!-- AddToAny END -->\\n          </div>\\n        </div>\\n      </div>\\n    </div>\\n\\n    <div class="main">\\n      <div class="container">                 \\n        \', escape=False)\nif left_sidebar_enabled:\n    response.write(\'\\n        <div class="four columns left-sidebar">\\n          \', escape=False)\n    response.write(\'\\n          <h3>Left Sidebar</h3>\\n          <p></p>\\n          \', escape=False)\n    response.write(\'\\n        </div>\\n        \', escape=False)\n    pass\nresponse.write(\'\\n        \\n        <div class="\', escape=False)\nresponse.write(middle_columns)\nresponse.write(\' columns center">\\n          \', escape=False)\nresponse.write(\'\\n          \', escape=False)\nresponse.write(\'\\r\\n<h3>LIST VMs</h3>\\r\\n\\r\\n\', escape=False)\nresponse.write(table[0])\nresponse.write(\'\\r\\n\\r\\n<table class="blahblahblah">\\r\\n<th> \', escape=False)\nT("Title")\nresponse.write(\' </th>\\r\\n<th> \', escape=False)\nT("Location")\nresponse.write(\' </th>\\r\\n\', escape=False)\nfor row in table:\n    response.write(\'\\r\\n<tr> \\r\\n<td>\', escape=False)\n    response.write(row)\n    response.write(\' </td>\\r\\n</tr>\\r\\n\', escape=False)\n    pass\nresponse.write(\'\\r\\n</table>\\r\\n\', escape=False)\nresponse.write(\'\\n          \', escape=False)\nresponse.write(\'\\n        </div>\\n        \\n        \', escape=False)\nif right_sidebar_enabled:\n    response.write(\'\\n        <div class="four columns">\\n          \', escape=False)\n    response.write(\'\\n          <h3>Right Sidebar</h3>\\n          <p></p>\\n          \', escape=False)\n    response.write(\'\\n        </div>    \\n        \', escape=False)\n    pass\nresponse.write(\'\\n        \\n      </div><!-- container -->\\n    </div><!-- main -->\\n    \\n    <div class="push"></div>\\n  </div><!-- wrapper -->\\n\\n  <div class="footer">\\n    <div class="container">    \\n      <div class="sixteen columns">\\n        \', escape=False)\nresponse.write(\' <!-- this is default footer -->\\n        <div class="footer-content clearfix">\\n          <div class="copyright">\', escape=False)\nresponse.write(T(\'Copyright\'))\nresponse.write(\' &#169; 2011</div>\\n          <div style="float: right;">\\n            <a href="http://www.web2py.com/">\\n            <img style="padding-bottom: 0;" src="\', escape=False)\nresponse.write(URL(\'static\',\'images/poweredby.png\'))\nresponse.write(\'"/>\\n            </a>\\n          </div>\\n        </div>\\n        \', escape=False)\nresponse.write(\'\\t\\n      </div>\\n    </div><!-- container -->\\n  </div><!-- footer -->\\n  \\n  <!--[if lt IE 7 ]>\\n\\t<script src="\', escape=False)\nresponse.write(URL(\'static\',\'js/dd_belatedpng.js\'))\nresponse.write(\'"></script>\\n\\t<script> DD_belatedPNG.fix(\\\'img, .png_bg\\\'); //fix any <img> or .png_bg background-images </script>\\n\\t<![endif]-->\\n  \', escape=False)\nif response.google_analytics_id:\n    response.write(\'<script type="text/javascript"> var _gaq = _gaq || []; _gaq.push([\\\'_setAccount\\\', \\\'\', escape=False)\n    response.write(response.google_analytics_id)\n    response.write("\']); _gaq.push([\'_trackPageview\']); (function() { var ga = document.createElement(\'script\'); ga.type = \'text/javascript\'; ga.async = true; ga.src = (\'https:\' == document.location.protocol ? \'https://ssl\' : \'http://www\') + \'.google-analytics.com/ga.js\'; var s = document.getElementsByTagName(\'script\')[0]; s.parentNode.insertBefore(ga, s); })(); </script> ", escape=False)\n    pass\nresponse.write(\'\\n</body>\\n</html>\\n\', escape=False)'
p7
sS'snapshot'
p8
(dp9
S'exception'
p10
(dp11
S'__hash__'
p12
S"<method-wrapper '__hash__' of exceptions.KeyError object at 0x05B18CB0>"
p13
sS'__setattr__'
p14
S"<method-wrapper '__setattr__' of exceptions.KeyError object at 0x05B18CB0>"
p15
sS'__reduce_ex__'
p16
S'<built-in method __reduce_ex__ of exceptions.KeyError object at 0x05B18CB0>'
p17
sS'__getslice__'
p18
S"<method-wrapper '__getslice__' of exceptions.KeyError object at 0x05B18CB0>"
p19
sS'__getitem__'
p20
S"<method-wrapper '__getitem__' of exceptions.KeyError object at 0x05B18CB0>"
p21
sS'__setstate__'
p22
S'<built-in method __setstate__ of exceptions.KeyError object at 0x05B18CB0>'
p23
sS'__reduce__'
p24
S'<built-in method __reduce__ of exceptions.KeyError object at 0x05B18CB0>'
p25
sS'__str__'
p26
S"<method-wrapper '__str__' of exceptions.KeyError object at 0x05B18CB0>"
p27
sS'args'
p28
S'(0,)'
p29
sS'__getattribute__'
p30
S"<method-wrapper '__getattribute__' of exceptions.KeyError object at 0x05B18CB0>"
p31
sS'__class__'
p32
S"<type 'exceptions.KeyError'>"
p33
sS'__delattr__'
p34
S"<method-wrapper '__delattr__' of exceptions.KeyError object at 0x05B18CB0>"
p35
sS'__repr__'
p36
S"<method-wrapper '__repr__' of exceptions.KeyError object at 0x05B18CB0>"
p37
sS'__dict__'
p38
S'{}'
p39
sS'__doc__'
p40
S"'Mapping key not found.'"
p41
sS'__init__'
p42
S"<method-wrapper '__init__' of exceptions.KeyError object at 0x05B18CB0>"
p43
sS'__new__'
p44
S'<built-in method __new__ of type object at 0x1E1CDFB8>'
p45
ssS'evalue'
p46
S'0'
sS'request'
p47
ccopy_reg
_reconstructor
p48
(cgluon.html
BEAUTIFY
p49
c__builtin__
object
p50
NtRp51
(dp52
S'attributes'
p53
(dp54
sS'components'
p55
(lp56
g48
(cgluon.html
TABLE
p57
g50
NtRp58
(dp59
g53
(dp60
S'level'
p61
I5
ssS'parent'
p62
Nsg55
(lp63
g48
(cgluon.html
TR
p64
g50
NtRp65
(dp66
g53
(dp67
sg62
g58
sg55
(lp68
g48
(cgluon.html
TD
p69
g50
NtRp70
(dp71
g53
(dp72
S'_style'
p73
S'font-weight:bold;vertical-align:top'
p74
ssg62
g65
sg55
(lp75
S'ajax'
p76
asbag48
(g69
g50
NtRp77
(dp78
g53
(dp79
S'_valign'
p80
S'top'
p81
ssg62
g65
sg55
(lp82
S':'
asbag48
(g69
g50
NtRp83
(dp84
g53
(dp85
sg62
g65
sg55
(lp86
g48
(g49
g50
NtRp87
(dp88
g53
(dp89
g61
I5
ssg62
g83
sg55
(lp90
S'False'
p91
asbasbasbag48
(g64
g50
NtRp92
(dp93
g53
(dp94
sg62
g58
sg55
(lp95
g48
(g69
g50
NtRp96
(dp97
g53
(dp98
g73
g74
ssg62
g92
sg55
(lp99
S'application'
p100
asbag48
(g69
g50
NtRp101
(dp102
g53
(dp103
g80
g81
ssg62
g92
sg55
(lp104
S':'
asbag48
(g69
g50
NtRp105
(dp106
g53
(dp107
sg62
g92
sg55
(lp108
g48
(g49
g50
NtRp109
(dp110
g53
(dp111
g61
I5
ssg62
g105
sg55
(lp112
S'xcpadmin'
p113
asbasbasbag48
(g64
g50
NtRp114
(dp115
g53
(dp116
sg62
g58
sg55
(lp117
g48
(g69
g50
NtRp118
(dp119
g53
(dp120
g73
g74
ssg62
g114
sg55
(lp121
g28
asbag48
(g69
g50
NtRp122
(dp123
g53
(dp124
g80
g81
ssg62
g114
sg55
(lp125
S':'
asbag48
(g69
g50
NtRp126
(dp127
g53
(dp128
sg62
g114
sg55
(lp129
g48
(g49
g50
NtRp130
(dp131
g53
(dp132
g61
I5
ssg62
g126
sg55
(lp133
g48
(g57
g50
NtRp134
(dp135
g53
(dp136
g61
I4
ssg62
Nsg55
(lp137
sbasbasbasbag48
(g64
g50
NtRp138
(dp139
g53
(dp140
sg62
g58
sg55
(lp141
g48
(g69
g50
NtRp142
(dp143
g53
(dp144
g73
g74
ssg62
g138
sg55
(lp145
S'body'
p146
asbag48
(g69
g50
NtRp147
(dp148
g53
(dp149
g80
g81
ssg62
g138
sg55
(lp150
S':'
asbag48
(g69
g50
NtRp151
(dp152
g53
(dp153
sg62
g138
sg55
(lp154
g48
(g49
g50
NtRp155
(dp156
g53
(dp157
g61
I5
ssg62
g151
sg55
(lp158
S'<cStringIO.StringO object at 0x05EF9BA0>'
p159
asbasbasbag48
(g64
g50
NtRp160
(dp161
g53
(dp162
sg62
g58
sg55
(lp163
g48
(g69
g50
NtRp164
(dp165
g53
(dp166
g73
g74
ssg62
g160
sg55
(lp167
S'client'
p168
asbag48
(g69
g50
NtRp169
(dp170
g53
(dp171
g80
g81
ssg62
g160
sg55
(lp172
S':'
asbag48
(g69
g50
NtRp173
(dp174
g53
(dp175
sg62
g160
sg55
(lp176
g48
(g49
g50
NtRp177
(dp178
g53
(dp179
g61
I5
ssg62
g173
sg55
(lp180
S'127.0.0.1'
p181
asbasbasbag48
(g64
g50
NtRp182
(dp183
g53
(dp184
sg62
g58
sg55
(lp185
g48
(g69
g50
NtRp186
(dp187
g53
(dp188
g73
g74
ssg62
g182
sg55
(lp189
S'controller'
p190
asbag48
(g69
g50
NtRp191
(dp192
g53
(dp193
g80
g81
ssg62
g182
sg55
(lp194
S':'
asbag48
(g69
g50
NtRp195
(dp196
g53
(dp197
sg62
g182
sg55
(lp198
g48
(g49
g50
NtRp199
(dp200
g53
(dp201
g61
I5
ssg62
g195
sg55
(lp202
S'listvm'
p203
asbasbasbag48
(g64
g50
NtRp204
(dp205
g53
(dp206
sg62
g58
sg55
(lp207
g48
(g69
g50
NtRp208
(dp209
g53
(dp210
g73
g74
ssg62
g204
sg55
(lp211
S'cookies'
p212
asbag48
(g69
g50
NtRp213
(dp214
g53
(dp215
g80
g81
ssg62
g204
sg55
(lp216
S':'
asbag48
(g69
g50
NtRp217
(dp218
g53
(dp219
sg62
g204
sg55
(lp220
g48
(g49
g50
NtRp221
(dp222
g53
(dp223
g61
I5
ssg62
g217
sg55
(lp224
g48
(g57
g50
NtRp225
(dp226
g53
(dp227
g61
I4
ssg62
Nsg55
(lp228
g48
(g64
g50
NtRp229
(dp230
g53
(dp231
sg62
g225
sg55
(lp232
g48
(g69
g50
NtRp233
(dp234
g53
(dp235
g73
g74
ssg62
g229
sg55
(lp236
S'session_id_admin'
p237
asbag48
(g69
g50
NtRp238
(dp239
g53
(dp240
g80
g81
ssg62
g229
sg55
(lp241
S':'
asbag48
(g69
g50
NtRp242
(dp243
g53
(dp244
sg62
g229
sg55
(lp245
g48
(g49
g50
NtRp246
(dp247
g53
(dp248
g61
I4
ssg62
g242
sg55
(lp249
g48
(g57
g50
NtRp250
(dp251
g53
(dp252
g61
I3
ssg62
Nsg55
(lp253
g48
(g64
g50
NtRp254
(dp255
g53
(dp256
sg62
g250
sg55
(lp257
g48
(g69
g50
NtRp258
(dp259
g53
(dp260
g73
g74
ssg62
g254
sg55
(lp261
S'comment'
p262
asbag48
(g69
g50
NtRp263
(dp264
g53
(dp265
g80
g81
ssg62
g254
sg55
(lp266
S':'
asbag48
(g69
g50
NtRp267
(dp268
g53
(dp269
sg62
g254
sg55
(lp270
g48
(g49
g50
NtRp271
(dp272
g53
(dp273
g61
I3
ssg62
g267
sg55
(lp274
S''
asbasbasbag48
(g64
g50
NtRp275
(dp276
g53
(dp277
sg62
g250
sg55
(lp278
g48
(g69
g50
NtRp279
(dp280
g53
(dp281
g73
g74
ssg62
g275
sg55
(lp282
S'domain'
p283
asbag48
(g69
g50
NtRp284
(dp285
g53
(dp286
g80
g81
ssg62
g275
sg55
(lp287
S':'
asbag48
(g69
g50
NtRp288
(dp289
g53
(dp290
sg62
g275
sg55
(lp291
g48
(g49
g50
NtRp292
(dp293
g53
(dp294
g61
I3
ssg62
g288
sg55
(lp295
S''
asbasbasbag48
(g64
g50
NtRp296
(dp297
g53
(dp298
sg62
g250
sg55
(lp299
g48
(g69
g50
NtRp300
(dp301
g53
(dp302
g73
g74
ssg62
g296
sg55
(lp303
S'expires'
p304
asbag48
(g69
g50
NtRp305
(dp306
g53
(dp307
g80
g81
ssg62
g296
sg55
(lp308
S':'
asbag48
(g69
g50
NtRp309
(dp310
g53
(dp311
sg62
g296
sg55
(lp312
g48
(g49
g50
NtRp313
(dp314
g53
(dp315
g61
I3
ssg62
g309
sg55
(lp316
S''
asbasbasbag48
(g64
g50
NtRp317
(dp318
g53
(dp319
sg62
g250
sg55
(lp320
g48
(g69
g50
NtRp321
(dp322
g53
(dp323
g73
g74
ssg62
g317
sg55
(lp324
S'max-age'
p325
asbag48
(g69
g50
NtRp326
(dp327
g53
(dp328
g80
g81
ssg62
g317
sg55
(lp329
S':'
asbag48
(g69
g50
NtRp330
(dp331
g53
(dp332
sg62
g317
sg55
(lp333
g48
(g49
g50
NtRp334
(dp335
g53
(dp336
g61
I3
ssg62
g330
sg55
(lp337
S''
asbasbasbag48
(g64
g50
NtRp338
(dp339
g53
(dp340
sg62
g250
sg55
(lp341
g48
(g69
g50
NtRp342
(dp343
g53
(dp344
g73
g74
ssg62
g338
sg55
(lp345
S'path'
p346
asbag48
(g69
g50
NtRp347
(dp348
g53
(dp349
g80
g81
ssg62
g338
sg55
(lp350
S':'
asbag48
(g69
g50
NtRp351
(dp352
g53
(dp353
sg62
g338
sg55
(lp354
g48
(g49
g50
NtRp355
(dp356
g53
(dp357
g61
I3
ssg62
g351
sg55
(lp358
S''
asbasbasbag48
(g64
g50
NtRp359
(dp360
g53
(dp361
sg62
g250
sg55
(lp362
g48
(g69
g50
NtRp363
(dp364
g53
(dp365
g73
g74
ssg62
g359
sg55
(lp366
S'secure'
p367
asbag48
(g69
g50
NtRp368
(dp369
g53
(dp370
g80
g81
ssg62
g359
sg55
(lp371
S':'
asbag48
(g69
g50
NtRp372
(dp373
g53
(dp374
sg62
g359
sg55
(lp375
g48
(g49
g50
NtRp376
(dp377
g53
(dp378
g61
I3
ssg62
g372
sg55
(lp379
S''
asbasbasbag48
(g64
g50
NtRp380
(dp381
g53
(dp382
sg62
g250
sg55
(lp383
g48
(g69
g50
NtRp384
(dp385
g53
(dp386
g73
g74
ssg62
g380
sg55
(lp387
S'version'
p388
asbag48
(g69
g50
NtRp389
(dp390
g53
(dp391
g80
g81
ssg62
g380
sg55
(lp392
S':'
asbag48
(g69
g50
NtRp393
(dp394
g53
(dp395
sg62
g380
sg55
(lp396
g48
(g49
g50
NtRp397
(dp398
g53
(dp399
g61
I3
ssg62
g393
sg55
(lp400
S''
asbasbasbasbasbasbasbag48
(g64
g50
NtRp401
(dp402
g53
(dp403
sg62
g225
sg55
(lp404
g48
(g69
g50
NtRp405
(dp406
g53
(dp407
g73
g74
ssg62
g401
sg55
(lp408
S'session_id_welcome'
p409
asbag48
(g69
g50
NtRp410
(dp411
g53
(dp412
g80
g81
ssg62
g401
sg55
(lp413
S':'
asbag48
(g69
g50
NtRp414
(dp415
g53
(dp416
sg62
g401
sg55
(lp417
g48
(g49
g50
NtRp418
(dp419
g53
(dp420
g61
I4
ssg62
g414
sg55
(lp421
g48
(g57
g50
NtRp422
(dp423
g53
(dp424
g61
I3
ssg62
Nsg55
(lp425
g48
(g64
g50
NtRp426
(dp427
g53
(dp428
sg62
g422
sg55
(lp429
g48
(g69
g50
NtRp430
(dp431
g53
(dp432
g73
g74
ssg62
g426
sg55
(lp433
g262
asbag48
(g69
g50
NtRp434
(dp435
g53
(dp436
g80
g81
ssg62
g426
sg55
(lp437
S':'
asbag48
(g69
g50
NtRp438
(dp439
g53
(dp440
sg62
g426
sg55
(lp441
g48
(g49
g50
NtRp442
(dp443
g53
(dp444
g61
I3
ssg62
g438
sg55
(lp445
S''
asbasbasbag48
(g64
g50
NtRp446
(dp447
g53
(dp448
sg62
g422
sg55
(lp449
g48
(g69
g50
NtRp450
(dp451
g53
(dp452
g73
g74
ssg62
g446
sg55
(lp453
g283
asbag48
(g69
g50
NtRp454
(dp455
g53
(dp456
g80
g81
ssg62
g446
sg55
(lp457
S':'
asbag48
(g69
g50
NtRp458
(dp459
g53
(dp460
sg62
g446
sg55
(lp461
g48
(g49
g50
NtRp462
(dp463
g53
(dp464
g61
I3
ssg62
g458
sg55
(lp465
S''
asbasbasbag48
(g64
g50
NtRp466
(dp467
g53
(dp468
sg62
g422
sg55
(lp469
g48
(g69
g50
NtRp470
(dp471
g53
(dp472
g73
g74
ssg62
g466
sg55
(lp473
g304
asbag48
(g69
g50
NtRp474
(dp475
g53
(dp476
g80
g81
ssg62
g466
sg55
(lp477
S':'
asbag48
(g69
g50
NtRp478
(dp479
g53
(dp480
sg62
g466
sg55
(lp481
g48
(g49
g50
NtRp482
(dp483
g53
(dp484
g61
I3
ssg62
g478
sg55
(lp485
S''
asbasbasbag48
(g64
g50
NtRp486
(dp487
g53
(dp488
sg62
g422
sg55
(lp489
g48
(g69
g50
NtRp490
(dp491
g53
(dp492
g73
g74
ssg62
g486
sg55
(lp493
g325
asbag48
(g69
g50
NtRp494
(dp495
g53
(dp496
g80
g81
ssg62
g486
sg55
(lp497
S':'
asbag48
(g69
g50
NtRp498
(dp499
g53
(dp500
sg62
g486
sg55
(lp501
g48
(g49
g50
NtRp502
(dp503
g53
(dp504
g61
I3
ssg62
g498
sg55
(lp505
S''
asbasbasbag48
(g64
g50
NtRp506
(dp507
g53
(dp508
sg62
g422
sg55
(lp509
g48
(g69
g50
NtRp510
(dp511
g53
(dp512
g73
g74
ssg62
g506
sg55
(lp513
g346
asbag48
(g69
g50
NtRp514
(dp515
g53
(dp516
g80
g81
ssg62
g506
sg55
(lp517
S':'
asbag48
(g69
g50
NtRp518
(dp519
g53
(dp520
sg62
g506
sg55
(lp521
g48
(g49
g50
NtRp522
(dp523
g53
(dp524
g61
I3
ssg62
g518
sg55
(lp525
S''
asbasbasbag48
(g64
g50
NtRp526
(dp527
g53
(dp528
sg62
g422
sg55
(lp529
g48
(g69
g50
NtRp530
(dp531
g53
(dp532
g73
g74
ssg62
g526
sg55
(lp533
g367
asbag48
(g69
g50
NtRp534
(dp535
g53
(dp536
g80
g81
ssg62
g526
sg55
(lp537
S':'
asbag48
(g69
g50
NtRp538
(dp539
g53
(dp540
sg62
g526
sg55
(lp541
g48
(g49
g50
NtRp542
(dp543
g53
(dp544
g61
I3
ssg62
g538
sg55
(lp545
S''
asbasbasbag48
(g64
g50
NtRp546
(dp547
g53
(dp548
sg62
g422
sg55
(lp549
g48
(g69
g50
NtRp550
(dp551
g53
(dp552
g73
g74
ssg62
g546
sg55
(lp553
g388
asbag48
(g69
g50
NtRp554
(dp555
g53
(dp556
g80
g81
ssg62
g546
sg55
(lp557
S':'
asbag48
(g69
g50
NtRp558
(dp559
g53
(dp560
sg62
g546
sg55
(lp561
g48
(g49
g50
NtRp562
(dp563
g53
(dp564
g61
I3
ssg62
g558
sg55
(lp565
S''
asbasbasbasbasbasbasbag48
(g64
g50
NtRp566
(dp567
g53
(dp568
sg62
g225
sg55
(lp569
g48
(g69
g50
NtRp570
(dp571
g53
(dp572
g73
g74
ssg62
g566
sg55
(lp573
S'session_id_xcpadmin'
p574
asbag48
(g69
g50
NtRp575
(dp576
g53
(dp577
g80
g81
ssg62
g566
sg55
(lp578
S':'
asbag48
(g69
g50
NtRp579
(dp580
g53
(dp581
sg62
g566
sg55
(lp582
g48
(g49
g50
NtRp583
(dp584
g53
(dp585
g61
I4
ssg62
g579
sg55
(lp586
g48
(g57
g50
NtRp587
(dp588
g53
(dp589
g61
I3
ssg62
Nsg55
(lp590
g48
(g64
g50
NtRp591
(dp592
g53
(dp593
sg62
g587
sg55
(lp594
g48
(g69
g50
NtRp595
(dp596
g53
(dp597
g73
g74
ssg62
g591
sg55
(lp598
g262
asbag48
(g69
g50
NtRp599
(dp600
g53
(dp601
g80
g81
ssg62
g591
sg55
(lp602
S':'
asbag48
(g69
g50
NtRp603
(dp604
g53
(dp605
sg62
g591
sg55
(lp606
g48
(g49
g50
NtRp607
(dp608
g53
(dp609
g61
I3
ssg62
g603
sg55
(lp610
S''
asbasbasbag48
(g64
g50
NtRp611
(dp612
g53
(dp613
sg62
g587
sg55
(lp614
g48
(g69
g50
NtRp615
(dp616
g53
(dp617
g73
g74
ssg62
g611
sg55
(lp618
g283
asbag48
(g69
g50
NtRp619
(dp620
g53
(dp621
g80
g81
ssg62
g611
sg55
(lp622
S':'
asbag48
(g69
g50
NtRp623
(dp624
g53
(dp625
sg62
g611
sg55
(lp626
g48
(g49
g50
NtRp627
(dp628
g53
(dp629
g61
I3
ssg62
g623
sg55
(lp630
S''
asbasbasbag48
(g64
g50
NtRp631
(dp632
g53
(dp633
sg62
g587
sg55
(lp634
g48
(g69
g50
NtRp635
(dp636
g53
(dp637
g73
g74
ssg62
g631
sg55
(lp638
g304
asbag48
(g69
g50
NtRp639
(dp640
g53
(dp641
g80
g81
ssg62
g631
sg55
(lp642
S':'
asbag48
(g69
g50
NtRp643
(dp644
g53
(dp645
sg62
g631
sg55
(lp646
g48
(g49
g50
NtRp647
(dp648
g53
(dp649
g61
I3
ssg62
g643
sg55
(lp650
S''
asbasbasbag48
(g64
g50
NtRp651
(dp652
g53
(dp653
sg62
g587
sg55
(lp654
g48
(g69
g50
NtRp655
(dp656
g53
(dp657
g73
g74
ssg62
g651
sg55
(lp658
g325
asbag48
(g69
g50
NtRp659
(dp660
g53
(dp661
g80
g81
ssg62
g651
sg55
(lp662
S':'
asbag48
(g69
g50
NtRp663
(dp664
g53
(dp665
sg62
g651
sg55
(lp666
g48
(g49
g50
NtRp667
(dp668
g53
(dp669
g61
I3
ssg62
g663
sg55
(lp670
S''
asbasbasbag48
(g64
g50
NtRp671
(dp672
g53
(dp673
sg62
g587
sg55
(lp674
g48
(g69
g50
NtRp675
(dp676
g53
(dp677
g73
g74
ssg62
g671
sg55
(lp678
g346
asbag48
(g69
g50
NtRp679
(dp680
g53
(dp681
g80
g81
ssg62
g671
sg55
(lp682
S':'
asbag48
(g69
g50
NtRp683
(dp684
g53
(dp685
sg62
g671
sg55
(lp686
g48
(g49
g50
NtRp687
(dp688
g53
(dp689
g61
I3
ssg62
g683
sg55
(lp690
S''
asbasbasbag48
(g64
g50
NtRp691
(dp692
g53
(dp693
sg62
g587
sg55
(lp694
g48
(g69
g50
NtRp695
(dp696
g53
(dp697
g73
g74
ssg62
g691
sg55
(lp698
g367
asbag48
(g69
g50
NtRp699
(dp700
g53
(dp701
g80
g81
ssg62
g691
sg55
(lp702
S':'
asbag48
(g69
g50
NtRp703
(dp704
g53
(dp705
sg62
g691
sg55
(lp706
g48
(g49
g50
NtRp707
(dp708
g53
(dp709
g61
I3
ssg62
g703
sg55
(lp710
S''
asbasbasbag48
(g64
g50
NtRp711
(dp712
g53
(dp713
sg62
g587
sg55
(lp714
g48
(g69
g50
NtRp715
(dp716
g53
(dp717
g73
g74
ssg62
g711
sg55
(lp718
g388
asbag48
(g69
g50
NtRp719
(dp720
g53
(dp721
g80
g81
ssg62
g711
sg55
(lp722
S':'
asbag48
(g69
g50
NtRp723
(dp724
g53
(dp725
sg62
g711
sg55
(lp726
g48
(g49
g50
NtRp727
(dp728
g53
(dp729
g61
I3
ssg62
g723
sg55
(lp730
S''
asbasbasbasbasbasbasbasbasbasbasbag48
(g64
g50
NtRp731
(dp732
g53
(dp733
sg62
g58
sg55
(lp734
g48
(g69
g50
NtRp735
(dp736
g53
(dp737
g73
g74
ssg62
g731
sg55
(lp738
S'env'
p739
asbag48
(g69
g50
NtRp740
(dp741
g53
(dp742
g80
g81
ssg62
g731
sg55
(lp743
S':'
asbag48
(g69
g50
NtRp744
(dp745
g53
(dp746
sg62
g731
sg55
(lp747
g48
(g49
g50
NtRp748
(dp749
g53
(dp750
g61
I5
ssg62
g744
sg55
(lp751
g48
(g57
g50
NtRp752
(dp753
g53
(dp754
g61
I4
ssg62
Nsg55
(lp755
g48
(g64
g50
NtRp756
(dp757
g53
(dp758
sg62
g752
sg55
(lp759
g48
(g69
g50
NtRp760
(dp761
g53
(dp762
g73
g74
ssg62
g756
sg55
(lp763
S'app_folders'
p764
asbag48
(g69
g50
NtRp765
(dp766
g53
(dp767
g80
g81
ssg62
g756
sg55
(lp768
S':'
asbag48
(g69
g50
NtRp769
(dp770
g53
(dp771
sg62
g756
sg55
(lp772
g48
(g49
g50
NtRp773
(dp774
g53
(dp775
g61
I4
ssg62
g769
sg55
(lp776
S"set(['C:\\\\Users\\\\nilton\\\\Desktop\\\\scripts\\\\curso_de_python\\\\web2py\\\\applications\\\\admin\\\\', 'C:\\\\Users\\\\nilton\\\\Desktop\\\\scripts\\\\curso_de_python\\\\web2py\\\\applications\\\\xcpadmin\\\\', 'C:\\\\Users\\\\nilton\\\\Desktop\\\\scripts\\\\curso_de_python\\\\web2py\\\\applications\\\\welcome\\\\'])"
p777
asbasbasbag48
(g64
g50
NtRp778
(dp779
g53
(dp780
sg62
g752
sg55
(lp781
g48
(g69
g50
NtRp782
(dp783
g53
(dp784
g73
g74
ssg62
g778
sg55
(lp785
S'applications_parent'
p786
asbag48
(g69
g50
NtRp787
(dp788
g53
(dp789
g80
g81
ssg62
g778
sg55
(lp790
S':'
asbag48
(g69
g50
NtRp791
(dp792
g53
(dp793
sg62
g778
sg55
(lp794
g48
(g49
g50
NtRp795
(dp796
g53
(dp797
g61
I4
ssg62
g791
sg55
(lp798
S'C:\\Users\\nilton\\Desktop\\scripts\\curso_de_python\\web2py'
p799
asbasbasbag48
(g64
g50
NtRp800
(dp801
g53
(dp802
sg62
g752
sg55
(lp803
g48
(g69
g50
NtRp804
(dp805
g53
(dp806
g73
g74
ssg62
g800
sg55
(lp807
S'cmd_args'
p808
asbag48
(g69
g50
NtRp809
(dp810
g53
(dp811
g80
g81
ssg62
g800
sg55
(lp812
S':'
asbag48
(g69
g50
NtRp813
(dp814
g53
(dp815
sg62
g800
sg55
(lp816
g48
(g49
g50
NtRp817
(dp818
g53
(dp819
g61
I4
ssg62
g813
sg55
(lp820
g48
(g57
g50
NtRp821
(dp822
g53
(dp823
g61
I3
ssg62
Nsg55
(lp824
sbasbasbasbag48
(g64
g50
NtRp825
(dp826
g53
(dp827
sg62
g752
sg55
(lp828
g48
(g69
g50
NtRp829
(dp830
g53
(dp831
g73
g74
ssg62
g825
sg55
(lp832
S'cmd_options'
p833
asbag48
(g69
g50
NtRp834
(dp835
g53
(dp836
g80
g81
ssg62
g825
sg55
(lp837
S':'
asbag48
(g69
g50
NtRp838
(dp839
g53
(dp840
sg62
g825
sg55
(lp841
g48
(g49
g50
NtRp842
(dp843
g53
(dp844
g61
I4
ssg62
g838
sg55
(lp845
S"<Values at 0x27674b8: {'verbose': False, 'ip': '127.0.0.1', 'shutdown_timeout': 5, 'taskbar': False, 'nocron': False, 'pid_filename': 'httpserver.pid', 'maxthreads': None, 'softcron': False, 'server_name': 'nilton-NOT', 'bpython': False, 'nogui': False, 'port': 8000, 'extcron': False, 'debuglevel': 30, 'test': None, 'folder': 'C:\\\\Users\\\\nilton\\\\Desktop\\\\scripts\\\\curso_de_python\\\\web2py', 'config': '', 'import_models': False, 'winservice': '', 'shell': None, 'run': '', 'log_filename': 'httpserver.log', 'args': [''], 'socket_timeout': 1, 'ssl_ca_certificate': None, 'scheduler': None, 'profiler_filename': None, 'ssl_private_key': '', 'password': '<ask>', 'request_queue_size': 5, 'ssl_certificate': '', 'cronjob': False, 'numthreads': None, 'quiet': False, 'interfaces': None, 'minthreads': None, 'timeout': 10, 'plain': False, 'nobanner': False}>"
p846
asbasbasbag48
(g64
g50
NtRp847
(dp848
g53
(dp849
sg62
g752
sg55
(lp850
g48
(g69
g50
NtRp851
(dp852
g53
(dp853
g73
g74
ssg62
g847
sg55
(lp854
S'db_sessions'
p855
asbag48
(g69
g50
NtRp856
(dp857
g53
(dp858
g80
g81
ssg62
g847
sg55
(lp859
S':'
asbag48
(g69
g50
NtRp860
(dp861
g53
(dp862
sg62
g847
sg55
(lp863
g48
(g49
g50
NtRp864
(dp865
g53
(dp866
g61
I4
ssg62
g860
sg55
(lp867
S'set([])'
p868
asbasbasbag48
(g64
g50
NtRp869
(dp870
g53
(dp871
sg62
g752
sg55
(lp872
g48
(g69
g50
NtRp873
(dp874
g53
(dp875
g73
g74
ssg62
g869
sg55
(lp876
S'debugging'
p877
asbag48
(g69
g50
NtRp878
(dp879
g53
(dp880
g80
g81
ssg62
g869
sg55
(lp881
S':'
asbag48
(g69
g50
NtRp882
(dp883
g53
(dp884
sg62
g869
sg55
(lp885
g48
(g49
g50
NtRp886
(dp887
g53
(dp888
g61
I4
ssg62
g882
sg55
(lp889
g91
asbasbasbag48
(g64
g50
NtRp890
(dp891
g53
(dp892
sg62
g752
sg55
(lp893
g48
(g69
g50
NtRp894
(dp895
g53
(dp896
g73
g74
ssg62
g890
sg55
(lp897
S'gluon_parent'
p898
asbag48
(g69
g50
NtRp899
(dp900
g53
(dp901
g80
g81
ssg62
g890
sg55
(lp902
S':'
asbag48
(g69
g50
NtRp903
(dp904
g53
(dp905
sg62
g890
sg55
(lp906
g48
(g49
g50
NtRp907
(dp908
g53
(dp909
g61
I4
ssg62
g903
sg55
(lp910
S'C:\\Users\\nilton\\Desktop\\scripts\\curso_de_python\\web2py'
p911
asbasbasbag48
(g64
g50
NtRp912
(dp913
g53
(dp914
sg62
g752
sg55
(lp915
g48
(g69
g50
NtRp916
(dp917
g53
(dp918
g73
g74
ssg62
g912
sg55
(lp919
S'http_accept'
p920
asbag48
(g69
g50
NtRp921
(dp922
g53
(dp923
g80
g81
ssg62
g912
sg55
(lp924
S':'
asbag48
(g69
g50
NtRp925
(dp926
g53
(dp927
sg62
g912
sg55
(lp928
g48
(g49
g50
NtRp929
(dp930
g53
(dp931
g61
I4
ssg62
g925
sg55
(lp932
S'text/html,application/xhtml+xml,application/xml;q=0.9,*/*;q=0.8'
p933
asbasbasbag48
(g64
g50
NtRp934
(dp935
g53
(dp936
sg62
g752
sg55
(lp937
g48
(g69
g50
NtRp938
(dp939
g53
(dp940
g73
g74
ssg62
g934
sg55
(lp941
S'http_accept_charset'
p942
asbag48
(g69
g50
NtRp943
(dp944
g53
(dp945
g80
g81
ssg62
g934
sg55
(lp946
S':'
asbag48
(g69
g50
NtRp947
(dp948
g53
(dp949
sg62
g934
sg55
(lp950
g48
(g49
g50
NtRp951
(dp952
g53
(dp953
g61
I4
ssg62
g947
sg55
(lp954
S'ISO-8859-1,utf-8;q=0.7,*;q=0.7'
p955
asbasbasbag48
(g64
g50
NtRp956
(dp957
g53
(dp958
sg62
g752
sg55
(lp959
g48
(g69
g50
NtRp960
(dp961
g53
(dp962
g73
g74
ssg62
g956
sg55
(lp963
S'http_accept_encoding'
p964
asbag48
(g69
g50
NtRp965
(dp966
g53
(dp967
g80
g81
ssg62
g956
sg55
(lp968
S':'
asbag48
(g69
g50
NtRp969
(dp970
g53
(dp971
sg62
g956
sg55
(lp972
g48
(g49
g50
NtRp973
(dp974
g53
(dp975
g61
I4
ssg62
g969
sg55
(lp976
S'gzip, deflate'
p977
asbasbasbag48
(g64
g50
NtRp978
(dp979
g53
(dp980
sg62
g752
sg55
(lp981
g48
(g69
g50
NtRp982
(dp983
g53
(dp984
g73
g74
ssg62
g978
sg55
(lp985
S'http_accept_language'
p986
asbag48
(g69
g50
NtRp987
(dp988
g53
(dp989
g80
g81
ssg62
g978
sg55
(lp990
S':'
asbag48
(g69
g50
NtRp991
(dp992
g53
(dp993
sg62
g978
sg55
(lp994
g48
(g49
g50
NtRp995
(dp996
g53
(dp997
g61
I4
ssg62
g991
sg55
(lp998
S'pt-br,pt;q=0.8,en-us;q=0.5,en;q=0.3'
p999
asbasbasbag48
(g64
g50
NtRp1000
(dp1001
g53
(dp1002
sg62
g752
sg55
(lp1003
g48
(g69
g50
NtRp1004
(dp1005
g53
(dp1006
g73
g74
ssg62
g1000
sg55
(lp1007
S'http_cache_control'
p1008
asbag48
(g69
g50
NtRp1009
(dp1010
g53
(dp1011
g80
g81
ssg62
g1000
sg55
(lp1012
S':'
asbag48
(g69
g50
NtRp1013
(dp1014
g53
(dp1015
sg62
g1000
sg55
(lp1016
g48
(g49
g50
NtRp1017
(dp1018
g53
(dp1019
g61
I4
ssg62
g1013
sg55
(lp1020
S'max-age=0'
p1021
asbasbasbag48
(g64
g50
NtRp1022
(dp1023
g53
(dp1024
sg62
g752
sg55
(lp1025
g48
(g69
g50
NtRp1026
(dp1027
g53
(dp1028
g73
g74
ssg62
g1022
sg55
(lp1029
S'http_connection'
p1030
asbag48
(g69
g50
NtRp1031
(dp1032
g53
(dp1033
g80
g81
ssg62
g1022
sg55
(lp1034
S':'
asbag48
(g69
g50
NtRp1035
(dp1036
g53
(dp1037
sg62
g1022
sg55
(lp1038
g48
(g49
g50
NtRp1039
(dp1040
g53
(dp1041
g61
I4
ssg62
g1035
sg55
(lp1042
S'keep-alive'
p1043
asbasbasbag48
(g64
g50
NtRp1044
(dp1045
g53
(dp1046
sg62
g752
sg55
(lp1047
g48
(g69
g50
NtRp1048
(dp1049
g53
(dp1050
g73
g74
ssg62
g1044
sg55
(lp1051
S'http_cookie'
p1052
asbag48
(g69
g50
NtRp1053
(dp1054
g53
(dp1055
g80
g81
ssg62
g1044
sg55
(lp1056
S':'
asbag48
(g69
g50
NtRp1057
(dp1058
g53
(dp1059
sg62
g1044
sg55
(lp1060
g48
(g49
g50
NtRp1061
(dp1062
g53
(dp1063
g61
I4
ssg62
g1057
sg55
(lp1064
S'session_id_welcome=127.0.0.1-e2ee4819-196b-48ee-b9a6-c158d9c6823f; session_id_xcpadmin=127.0.0.1-0cb88dcb-67b2-4748-8846-25f35503a0e7; session_id_admin=127.0.0.1-4133fdb4-b4c5-4fa8-b713-fdd8b0e34bbb'
p1065
asbasbasbag48
(g64
g50
NtRp1066
(dp1067
g53
(dp1068
sg62
g752
sg55
(lp1069
g48
(g69
g50
NtRp1070
(dp1071
g53
(dp1072
g73
g74
ssg62
g1066
sg55
(lp1073
S'http_host'
p1074
asbag48
(g69
g50
NtRp1075
(dp1076
g53
(dp1077
g80
g81
ssg62
g1066
sg55
(lp1078
S':'
asbag48
(g69
g50
NtRp1079
(dp1080
g53
(dp1081
sg62
g1066
sg55
(lp1082
g48
(g49
g50
NtRp1083
(dp1084
g53
(dp1085
g61
I4
ssg62
g1079
sg55
(lp1086
S'127.0.0.1:8000'
p1087
asbasbasbag48
(g64
g50
NtRp1088
(dp1089
g53
(dp1090
sg62
g752
sg55
(lp1091
g48
(g69
g50
NtRp1092
(dp1093
g53
(dp1094
g73
g74
ssg62
g1088
sg55
(lp1095
S'http_user_agent'
p1096
asbag48
(g69
g50
NtRp1097
(dp1098
g53
(dp1099
g80
g81
ssg62
g1088
sg55
(lp1100
S':'
asbag48
(g69
g50
NtRp1101
(dp1102
g53
(dp1103
sg62
g1088
sg55
(lp1104
g48
(g49
g50
NtRp1105
(dp1106
g53
(dp1107
g61
I4
ssg62
g1101
sg55
(lp1108
S'Mozilla/5.0 (Windows NT 6.1; rv:9.0.1) Gecko/20100101 Firefox/9.0.1'
p1109
asbasbasbag48
(g64
g50
NtRp1110
(dp1111
g53
(dp1112
sg62
g752
sg55
(lp1113
g48
(g69
g50
NtRp1114
(dp1115
g53
(dp1116
g73
g74
ssg62
g1110
sg55
(lp1117
S'is_jython'
p1118
asbag48
(g69
g50
NtRp1119
(dp1120
g53
(dp1121
g80
g81
ssg62
g1110
sg55
(lp1122
S':'
asbag48
(g69
g50
NtRp1123
(dp1124
g53
(dp1125
sg62
g1110
sg55
(lp1126
g48
(g49
g50
NtRp1127
(dp1128
g53
(dp1129
g61
I4
ssg62
g1123
sg55
(lp1130
g91
asbasbasbag48
(g64
g50
NtRp1131
(dp1132
g53
(dp1133
sg62
g752
sg55
(lp1134
g48
(g69
g50
NtRp1135
(dp1136
g53
(dp1137
g73
g74
ssg62
g1131
sg55
(lp1138
S'is_pypy'
p1139
asbag48
(g69
g50
NtRp1140
(dp1141
g53
(dp1142
g80
g81
ssg62
g1131
sg55
(lp1143
S':'
asbag48
(g69
g50
NtRp1144
(dp1145
g53
(dp1146
sg62
g1131
sg55
(lp1147
g48
(g49
g50
NtRp1148
(dp1149
g53
(dp1150
g61
I4
ssg62
g1144
sg55
(lp1151
g91
asbasbasbag48
(g64
g50
NtRp1152
(dp1153
g53
(dp1154
sg62
g752
sg55
(lp1155
g48
(g69
g50
NtRp1156
(dp1157
g53
(dp1158
g73
g74
ssg62
g1152
sg55
(lp1159
S'path_info'
p1160
asbag48
(g69
g50
NtRp1161
(dp1162
g53
(dp1163
g80
g81
ssg62
g1152
sg55
(lp1164
S':'
asbag48
(g69
g50
NtRp1165
(dp1166
g53
(dp1167
sg62
g1152
sg55
(lp1168
g48
(g49
g50
NtRp1169
(dp1170
g53
(dp1171
g61
I4
ssg62
g1165
sg55
(lp1172
S'/xcpadmin/listvm'
p1173
asbasbasbag48
(g64
g50
NtRp1174
(dp1175
g53
(dp1176
sg62
g752
sg55
(lp1177
g48
(g69
g50
NtRp1178
(dp1179
g53
(dp1180
g73
g74
ssg62
g1174
sg55
(lp1181
S'query_string'
p1182
asbag48
(g69
g50
NtRp1183
(dp1184
g53
(dp1185
g80
g81
ssg62
g1174
sg55
(lp1186
S':'
asbag48
(g69
g50
NtRp1187
(dp1188
g53
(dp1189
sg62
g1174
sg55
(lp1190
g48
(g49
g50
NtRp1191
(dp1192
g53
(dp1193
g61
I4
ssg62
g1187
sg55
(lp1194
S''
asbasbasbag48
(g64
g50
NtRp1195
(dp1196
g53
(dp1197
sg62
g752
sg55
(lp1198
g48
(g69
g50
NtRp1199
(dp1200
g53
(dp1201
g73
g74
ssg62
g1195
sg55
(lp1202
S'remote_addr'
p1203
asbag48
(g69
g50
NtRp1204
(dp1205
g53
(dp1206
g80
g81
ssg62
g1195
sg55
(lp1207
S':'
asbag48
(g69
g50
NtRp1208
(dp1209
g53
(dp1210
sg62
g1195
sg55
(lp1211
g48
(g49
g50
NtRp1212
(dp1213
g53
(dp1214
g61
I4
ssg62
g1208
sg55
(lp1215
g181
asbasbasbag48
(g64
g50
NtRp1216
(dp1217
g53
(dp1218
sg62
g752
sg55
(lp1219
g48
(g69
g50
NtRp1220
(dp1221
g53
(dp1222
g73
g74
ssg62
g1216
sg55
(lp1223
S'remote_port'
p1224
asbag48
(g69
g50
NtRp1225
(dp1226
g53
(dp1227
g80
g81
ssg62
g1216
sg55
(lp1228
S':'
asbag48
(g69
g50
NtRp1229
(dp1230
g53
(dp1231
sg62
g1216
sg55
(lp1232
g48
(g49
g50
NtRp1233
(dp1234
g53
(dp1235
g61
I4
ssg62
g1229
sg55
(lp1236
S'51651'
p1237
asbasbasbag48
(g64
g50
NtRp1238
(dp1239
g53
(dp1240
sg62
g752
sg55
(lp1241
g48
(g69
g50
NtRp1242
(dp1243
g53
(dp1244
g73
g74
ssg62
g1238
sg55
(lp1245
S'request_method'
p1246
asbag48
(g69
g50
NtRp1247
(dp1248
g53
(dp1249
g80
g81
ssg62
g1238
sg55
(lp1250
S':'
asbag48
(g69
g50
NtRp1251
(dp1252
g53
(dp1253
sg62
g1238
sg55
(lp1254
g48
(g49
g50
NtRp1255
(dp1256
g53
(dp1257
g61
I4
ssg62
g1251
sg55
(lp1258
S'GET'
p1259
asbasbasbag48
(g64
g50
NtRp1260
(dp1261
g53
(dp1262
sg62
g752
sg55
(lp1263
g48
(g69
g50
NtRp1264
(dp1265
g53
(dp1266
g73
g74
ssg62
g1260
sg55
(lp1267
S'script_name'
p1268
asbag48
(g69
g50
NtRp1269
(dp1270
g53
(dp1271
g80
g81
ssg62
g1260
sg55
(lp1272
S':'
asbag48
(g69
g50
NtRp1273
(dp1274
g53
(dp1275
sg62
g1260
sg55
(lp1276
g48
(g49
g50
NtRp1277
(dp1278
g53
(dp1279
g61
I4
ssg62
g1273
sg55
(lp1280
S''
asbasbasbag48
(g64
g50
NtRp1281
(dp1282
g53
(dp1283
sg62
g752
sg55
(lp1284
g48
(g69
g50
NtRp1285
(dp1286
g53
(dp1287
g73
g74
ssg62
g1281
sg55
(lp1288
S'server_name'
p1289
asbag48
(g69
g50
NtRp1290
(dp1291
g53
(dp1292
g80
g81
ssg62
g1281
sg55
(lp1293
S':'
asbag48
(g69
g50
NtRp1294
(dp1295
g53
(dp1296
sg62
g1281
sg55
(lp1297
g48
(g49
g50
NtRp1298
(dp1299
g53
(dp1300
g61
I4
ssg62
g1294
sg55
(lp1301
S'nilton-NOT'
p1302
asbasbasbag48
(g64
g50
NtRp1303
(dp1304
g53
(dp1305
sg62
g752
sg55
(lp1306
g48
(g69
g50
NtRp1307
(dp1308
g53
(dp1309
g73
g74
ssg62
g1303
sg55
(lp1310
S'server_port'
p1311
asbag48
(g69
g50
NtRp1312
(dp1313
g53
(dp1314
g80
g81
ssg62
g1303
sg55
(lp1315
S':'
asbag48
(g69
g50
NtRp1316
(dp1317
g53
(dp1318
sg62
g1303
sg55
(lp1319
g48
(g49
g50
NtRp1320
(dp1321
g53
(dp1322
g61
I4
ssg62
g1316
sg55
(lp1323
S'8000'
p1324
asbasbasbag48
(g64
g50
NtRp1325
(dp1326
g53
(dp1327
sg62
g752
sg55
(lp1328
g48
(g69
g50
NtRp1329
(dp1330
g53
(dp1331
g73
g74
ssg62
g1325
sg55
(lp1332
S'server_protocol'
p1333
asbag48
(g69
g50
NtRp1334
(dp1335
g53
(dp1336
g80
g81
ssg62
g1325
sg55
(lp1337
S':'
asbag48
(g69
g50
NtRp1338
(dp1339
g53
(dp1340
sg62
g1325
sg55
(lp1341
g48
(g49
g50
NtRp1342
(dp1343
g53
(dp1344
g61
I4
ssg62
g1338
sg55
(lp1345
S'HTTP/1.1'
p1346
asbasbasbag48
(g64
g50
NtRp1347
(dp1348
g53
(dp1349
sg62
g752
sg55
(lp1350
g48
(g69
g50
NtRp1351
(dp1352
g53
(dp1353
g73
g74
ssg62
g1347
sg55
(lp1354
S'server_software'
p1355
asbag48
(g69
g50
NtRp1356
(dp1357
g53
(dp1358
g80
g81
ssg62
g1347
sg55
(lp1359
S':'
asbag48
(g69
g50
NtRp1360
(dp1361
g53
(dp1362
sg62
g1347
sg55
(lp1363
g48
(g49
g50
NtRp1364
(dp1365
g53
(dp1366
g61
I4
ssg62
g1360
sg55
(lp1367
S'Rocket 1.2.4'
p1368
asbasbasbag48
(g64
g50
NtRp1369
(dp1370
g53
(dp1371
sg62
g752
sg55
(lp1372
g48
(g69
g50
NtRp1373
(dp1374
g53
(dp1375
g73
g74
ssg62
g1369
sg55
(lp1376
S'web2py_crontype'
p1377
asbag48
(g69
g50
NtRp1378
(dp1379
g53
(dp1380
g80
g81
ssg62
g1369
sg55
(lp1381
S':'
asbag48
(g69
g50
NtRp1382
(dp1383
g53
(dp1384
sg62
g1369
sg55
(lp1385
g48
(g49
g50
NtRp1386
(dp1387
g53
(dp1388
g61
I4
ssg62
g1382
sg55
(lp1389
S'hard'
p1390
asbasbasbag48
(g64
g50
NtRp1391
(dp1392
g53
(dp1393
sg62
g752
sg55
(lp1394
g48
(g69
g50
NtRp1395
(dp1396
g53
(dp1397
g73
g74
ssg62
g1391
sg55
(lp1398
S'web2py_path'
p1399
asbag48
(g69
g50
NtRp1400
(dp1401
g53
(dp1402
g80
g81
ssg62
g1391
sg55
(lp1403
S':'
asbag48
(g69
g50
NtRp1404
(dp1405
g53
(dp1406
sg62
g1391
sg55
(lp1407
g48
(g49
g50
NtRp1408
(dp1409
g53
(dp1410
g61
I4
ssg62
g1404
sg55
(lp1411
g799
asbasbasbag48
(g64
g50
NtRp1412
(dp1413
g53
(dp1414
sg62
g752
sg55
(lp1415
g48
(g69
g50
NtRp1416
(dp1417
g53
(dp1418
g73
g74
ssg62
g1412
sg55
(lp1419
S'web2py_version'
p1420
asbag48
(g69
g50
NtRp1421
(dp1422
g53
(dp1423
g80
g81
ssg62
g1412
sg55
(lp1424
S':'
asbag48
(g69
g50
NtRp1425
(dp1426
g53
(dp1427
sg62
g1412
sg55
(lp1428
g48
(g49
g50
NtRp1429
(dp1430
g53
(dp1431
g61
I4
ssg62
g1425
sg55
(lp1432
g48
(g57
g50
NtRp1433
(dp1434
g53
(dp1435
g61
I3
ssg62
Nsg55
(lp1436
g48
(g64
g50
NtRp1437
(dp1438
g53
(dp1439
sg62
g1433
sg55
(lp1440
g48
(g69
g50
NtRp1441
(dp1442
g53
(dp1443
sg62
g1437
sg55
(lp1444
g48
(g49
g50
NtRp1445
(dp1446
g53
(dp1447
g61
I3
ssg62
g1441
sg55
(lp1448
S'1'
asbasbasbag48
(g64
g50
NtRp1449
(dp1450
g53
(dp1451
sg62
g1433
sg55
(lp1452
g48
(g69
g50
NtRp1453
(dp1454
g53
(dp1455
sg62
g1449
sg55
(lp1456
g48
(g49
g50
NtRp1457
(dp1458
g53
(dp1459
g61
I3
ssg62
g1453
sg55
(lp1460
S'99'
p1461
asbasbasbag48
(g64
g50
NtRp1462
(dp1463
g53
(dp1464
sg62
g1433
sg55
(lp1465
g48
(g69
g50
NtRp1466
(dp1467
g53
(dp1468
sg62
g1462
sg55
(lp1469
g48
(g49
g50
NtRp1470
(dp1471
g53
(dp1472
g61
I3
ssg62
g1466
sg55
(lp1473
S'4'
asbasbasbag48
(g64
g50
NtRp1474
(dp1475
g53
(dp1476
sg62
g1433
sg55
(lp1477
g48
(g69
g50
NtRp1478
(dp1479
g53
(dp1480
sg62
g1474
sg55
(lp1481
g48
(g49
g50
NtRp1482
(dp1483
g53
(dp1484
g61
I3
ssg62
g1478
sg55
(lp1485
S'datetime.datetime(2011, 12, 14, 14, 46, 14)'
p1486
asbasbasbag48
(g64
g50
NtRp1487
(dp1488
g53
(dp1489
sg62
g1433
sg55
(lp1490
g48
(g69
g50
NtRp1491
(dp1492
g53
(dp1493
sg62
g1487
sg55
(lp1494
g48
(g49
g50
NtRp1495
(dp1496
g53
(dp1497
g61
I3
ssg62
g1491
sg55
(lp1498
S'stable'
p1499
asbasbasbasbasbasbasbag48
(g64
g50
NtRp1500
(dp1501
g53
(dp1502
sg62
g752
sg55
(lp1503
g48
(g69
g50
NtRp1504
(dp1505
g53
(dp1506
g73
g74
ssg62
g1500
sg55
(lp1507
S'wsgi_errors'
p1508
asbag48
(g69
g50
NtRp1509
(dp1510
g53
(dp1511
g80
g81
ssg62
g1500
sg55
(lp1512
S':'
asbag48
(g69
g50
NtRp1513
(dp1514
g53
(dp1515
sg62
g1500
sg55
(lp1516
g48
(g49
g50
NtRp1517
(dp1518
g53
(dp1519
g61
I4
ssg62
g1513
sg55
(lp1520
S'<__main__.Stderr object at 0x0124A670>'
p1521
asbasbasbag48
(g64
g50
NtRp1522
(dp1523
g53
(dp1524
sg62
g752
sg55
(lp1525
g48
(g69
g50
NtRp1526
(dp1527
g53
(dp1528
g73
g74
ssg62
g1522
sg55
(lp1529
S'wsgi_file_wrapper'
p1530
asbag48
(g69
g50
NtRp1531
(dp1532
g53
(dp1533
g80
g81
ssg62
g1522
sg55
(lp1534
S':'
asbag48
(g69
g50
NtRp1535
(dp1536
g53
(dp1537
sg62
g1522
sg55
(lp1538
g48
(g49
g50
NtRp1539
(dp1540
g53
(dp1541
g61
I4
ssg62
g1535
sg55
(lp1542
S'<class wsgiref.util.FileWrapper at 0x01BDBBA0>'
p1543
asbasbasbag48
(g64
g50
NtRp1544
(dp1545
g53
(dp1546
sg62
g752
sg55
(lp1547
g48
(g69
g50
NtRp1548
(dp1549
g53
(dp1550
g73
g74
ssg62
g1544
sg55
(lp1551
S'wsgi_input'
p1552
asbag48
(g69
g50
NtRp1553
(dp1554
g53
(dp1555
g80
g81
ssg62
g1544
sg55
(lp1556
S':'
asbag48
(g69
g50
NtRp1557
(dp1558
g53
(dp1559
sg62
g1544
sg55
(lp1560
g48
(g49
g50
NtRp1561
(dp1562
g53
(dp1563
g61
I4
ssg62
g1557
sg55
(lp1564
S'<socket._fileobject object at 0x06002370>'
p1565
asbasbasbag48
(g64
g50
NtRp1566
(dp1567
g53
(dp1568
sg62
g752
sg55
(lp1569
g48
(g69
g50
NtRp1570
(dp1571
g53
(dp1572
g73
g74
ssg62
g1566
sg55
(lp1573
S'wsgi_multiprocess'
p1574
asbag48
(g69
g50
NtRp1575
(dp1576
g53
(dp1577
g80
g81
ssg62
g1566
sg55
(lp1578
S':'
asbag48
(g69
g50
NtRp1579
(dp1580
g53
(dp1581
sg62
g1566
sg55
(lp1582
g48
(g49
g50
NtRp1583
(dp1584
g53
(dp1585
g61
I4
ssg62
g1579
sg55
(lp1586
g91
asbasbasbag48
(g64
g50
NtRp1587
(dp1588
g53
(dp1589
sg62
g752
sg55
(lp1590
g48
(g69
g50
NtRp1591
(dp1592
g53
(dp1593
g73
g74
ssg62
g1587
sg55
(lp1594
S'wsgi_multithread'
p1595
asbag48
(g69
g50
NtRp1596
(dp1597
g53
(dp1598
g80
g81
ssg62
g1587
sg55
(lp1599
S':'
asbag48
(g69
g50
NtRp1600
(dp1601
g53
(dp1602
sg62
g1587
sg55
(lp1603
g48
(g49
g50
NtRp1604
(dp1605
g53
(dp1606
g61
I4
ssg62
g1600
sg55
(lp1607
S'True'
p1608
asbasbasbag48
(g64
g50
NtRp1609
(dp1610
g53
(dp1611
sg62
g752
sg55
(lp1612
g48
(g69
g50
NtRp1613
(dp1614
g53
(dp1615
g73
g74
ssg62
g1609
sg55
(lp1616
S'wsgi_run_once'
p1617
asbag48
(g69
g50
NtRp1618
(dp1619
g53
(dp1620
g80
g81
ssg62
g1609
sg55
(lp1621
S':'
asbag48
(g69
g50
NtRp1622
(dp1623
g53
(dp1624
sg62
g1609
sg55
(lp1625
g48
(g49
g50
NtRp1626
(dp1627
g53
(dp1628
g61
I4
ssg62
g1622
sg55
(lp1629
g91
asbasbasbag48
(g64
g50
NtRp1630
(dp1631
g53
(dp1632
sg62
g752
sg55
(lp1633
g48
(g69
g50
NtRp1634
(dp1635
g53
(dp1636
g73
g74
ssg62
g1630
sg55
(lp1637
S'wsgi_url_scheme'
p1638
asbag48
(g69
g50
NtRp1639
(dp1640
g53
(dp1641
g80
g81
ssg62
g1630
sg55
(lp1642
S':'
asbag48
(g69
g50
NtRp1643
(dp1644
g53
(dp1645
sg62
g1630
sg55
(lp1646
g48
(g49
g50
NtRp1647
(dp1648
g53
(dp1649
g61
I4
ssg62
g1643
sg55
(lp1650
S'http'
p1651
asbasbasbag48
(g64
g50
NtRp1652
(dp1653
g53
(dp1654
sg62
g752
sg55
(lp1655
g48
(g69
g50
NtRp1656
(dp1657
g53
(dp1658
g73
g74
ssg62
g1652
sg55
(lp1659
S'wsgi_version'
p1660
asbag48
(g69
g50
NtRp1661
(dp1662
g53
(dp1663
g80
g81
ssg62
g1652
sg55
(lp1664
S':'
asbag48
(g69
g50
NtRp1665
(dp1666
g53
(dp1667
sg62
g1652
sg55
(lp1668
g48
(g49
g50
NtRp1669
(dp1670
g53
(dp1671
g61
I4
ssg62
g1665
sg55
(lp1672
g48
(g57
g50
NtRp1673
(dp1674
g53
(dp1675
g61
I3
ssg62
Nsg55
(lp1676
g48
(g64
g50
NtRp1677
(dp1678
g53
(dp1679
sg62
g1673
sg55
(lp1680
g48
(g69
g50
NtRp1681
(dp1682
g53
(dp1683
sg62
g1677
sg55
(lp1684
g48
(g49
g50
NtRp1685
(dp1686
g53
(dp1687
g61
I3
ssg62
g1681
sg55
(lp1688
S'1'
asbasbasbag48
(g64
g50
NtRp1689
(dp1690
g53
(dp1691
sg62
g1673
sg55
(lp1692
g48
(g69
g50
NtRp1693
(dp1694
g53
(dp1695
sg62
g1689
sg55
(lp1696
g48
(g49
g50
NtRp1697
(dp1698
g53
(dp1699
g61
I3
ssg62
g1693
sg55
(lp1700
S'0'
asbasbasbasbasbasbasbasbasbasbasbag48
(g64
g50
NtRp1701
(dp1702
g53
(dp1703
sg62
g58
sg55
(lp1704
g48
(g69
g50
NtRp1705
(dp1706
g53
(dp1707
g73
g74
ssg62
g1701
sg55
(lp1708
S'extension'
p1709
asbag48
(g69
g50
NtRp1710
(dp1711
g53
(dp1712
g80
g81
ssg62
g1701
sg55
(lp1713
S':'
asbag48
(g69
g50
NtRp1714
(dp1715
g53
(dp1716
sg62
g1701
sg55
(lp1717
g48
(g49
g50
NtRp1718
(dp1719
g53
(dp1720
g61
I5
ssg62
g1714
sg55
(lp1721
S'html'
p1722
asbasbasbag48
(g64
g50
NtRp1723
(dp1724
g53
(dp1725
sg62
g58
sg55
(lp1726
g48
(g69
g50
NtRp1727
(dp1728
g53
(dp1729
g73
g74
ssg62
g1723
sg55
(lp1730
S'folder'
p1731
asbag48
(g69
g50
NtRp1732
(dp1733
g53
(dp1734
g80
g81
ssg62
g1723
sg55
(lp1735
S':'
asbag48
(g69
g50
NtRp1736
(dp1737
g53
(dp1738
sg62
g1723
sg55
(lp1739
g48
(g49
g50
NtRp1740
(dp1741
g53
(dp1742
g61
I5
ssg62
g1736
sg55
(lp1743
S'C:\\Users\\nilton\\Desktop\\scripts\\curso_de_python\\web2py\\applications\\xcpadmin\\'
p1744
asbasbasbag48
(g64
g50
NtRp1745
(dp1746
g53
(dp1747
sg62
g58
sg55
(lp1748
g48
(g69
g50
NtRp1749
(dp1750
g53
(dp1751
g73
g74
ssg62
g1745
sg55
(lp1752
S'function'
p1753
asbag48
(g69
g50
NtRp1754
(dp1755
g53
(dp1756
g80
g81
ssg62
g1745
sg55
(lp1757
S':'
asbag48
(g69
g50
NtRp1758
(dp1759
g53
(dp1760
sg62
g1745
sg55
(lp1761
g48
(g49
g50
NtRp1762
(dp1763
g53
(dp1764
g61
I5
ssg62
g1758
sg55
(lp1765
S'index'
p1766
asbasbasbag48
(g64
g50
NtRp1767
(dp1768
g53
(dp1769
sg62
g58
sg55
(lp1770
g48
(g69
g50
NtRp1771
(dp1772
g53
(dp1773
g73
g74
ssg62
g1767
sg55
(lp1774
S'get_vars'
p1775
asbag48
(g69
g50
NtRp1776
(dp1777
g53
(dp1778
g80
g81
ssg62
g1767
sg55
(lp1779
S':'
asbag48
(g69
g50
NtRp1780
(dp1781
g53
(dp1782
sg62
g1767
sg55
(lp1783
g48
(g49
g50
NtRp1784
(dp1785
g53
(dp1786
g61
I5
ssg62
g1780
sg55
(lp1787
g48
(g57
g50
NtRp1788
(dp1789
g53
(dp1790
g61
I4
ssg62
Nsg55
(lp1791
sbasbasbasbag48
(g64
g50
NtRp1792
(dp1793
g53
(dp1794
sg62
g58
sg55
(lp1795
g48
(g69
g50
NtRp1796
(dp1797
g53
(dp1798
g73
g74
ssg62
g1792
sg55
(lp1799
S'global_settings'
p1800
asbag48
(g69
g50
NtRp1801
(dp1802
g53
(dp1803
g80
g81
ssg62
g1792
sg55
(lp1804
S':'
asbag48
(g69
g50
NtRp1805
(dp1806
g53
(dp1807
sg62
g1792
sg55
(lp1808
g48
(g49
g50
NtRp1809
(dp1810
g53
(dp1811
g61
I5
ssg62
g1805
sg55
(lp1812
g48
(g57
g50
NtRp1813
(dp1814
g53
(dp1815
g61
I4
ssg62
Nsg55
(lp1816
g48
(g64
g50
NtRp1817
(dp1818
g53
(dp1819
sg62
g1813
sg55
(lp1820
g48
(g69
g50
NtRp1821
(dp1822
g53
(dp1823
g73
g74
ssg62
g1817
sg55
(lp1824
g764
asbag48
(g69
g50
NtRp1825
(dp1826
g53
(dp1827
g80
g81
ssg62
g1817
sg55
(lp1828
S':'
asbag48
(g69
g50
NtRp1829
(dp1830
g53
(dp1831
sg62
g1817
sg55
(lp1832
g48
(g49
g50
NtRp1833
(dp1834
g53
(dp1835
g61
I4
ssg62
g1829
sg55
(lp1836
S"set(['C:\\\\Users\\\\nilton\\\\Desktop\\\\scripts\\\\curso_de_python\\\\web2py\\\\applications\\\\admin\\\\', 'C:\\\\Users\\\\nilton\\\\Desktop\\\\scripts\\\\curso_de_python\\\\web2py\\\\applications\\\\xcpadmin\\\\', 'C:\\\\Users\\\\nilton\\\\Desktop\\\\scripts\\\\curso_de_python\\\\web2py\\\\applications\\\\welcome\\\\'])"
p1837
asbasbasbag48
(g64
g50
NtRp1838
(dp1839
g53
(dp1840
sg62
g1813
sg55
(lp1841
g48
(g69
g50
NtRp1842
(dp1843
g53
(dp1844
g73
g74
ssg62
g1838
sg55
(lp1845
g786
asbag48
(g69
g50
NtRp1846
(dp1847
g53
(dp1848
g80
g81
ssg62
g1838
sg55
(lp1849
S':'
asbag48
(g69
g50
NtRp1850
(dp1851
g53
(dp1852
sg62
g1838
sg55
(lp1853
g48
(g49
g50
NtRp1854
(dp1855
g53
(dp1856
g61
I4
ssg62
g1850
sg55
(lp1857
g799
asbasbasbag48
(g64
g50
NtRp1858
(dp1859
g53
(dp1860
sg62
g1813
sg55
(lp1861
g48
(g69
g50
NtRp1862
(dp1863
g53
(dp1864
g73
g74
ssg62
g1858
sg55
(lp1865
g808
asbag48
(g69
g50
NtRp1866
(dp1867
g53
(dp1868
g80
g81
ssg62
g1858
sg55
(lp1869
S':'
asbag48
(g69
g50
NtRp1870
(dp1871
g53
(dp1872
sg62
g1858
sg55
(lp1873
g48
(g49
g50
NtRp1874
(dp1875
g53
(dp1876
g61
I4
ssg62
g1870
sg55
(lp1877
g48
(g57
g50
NtRp1878
(dp1879
g53
(dp1880
g61
I3
ssg62
Nsg55
(lp1881
sbasbasbasbag48
(g64
g50
NtRp1882
(dp1883
g53
(dp1884
sg62
g1813
sg55
(lp1885
g48
(g69
g50
NtRp1886
(dp1887
g53
(dp1888
g73
g74
ssg62
g1882
sg55
(lp1889
g833
asbag48
(g69
g50
NtRp1890
(dp1891
g53
(dp1892
g80
g81
ssg62
g1882
sg55
(lp1893
S':'
asbag48
(g69
g50
NtRp1894
(dp1895
g53
(dp1896
sg62
g1882
sg55
(lp1897
g48
(g49
g50
NtRp1898
(dp1899
g53
(dp1900
g61
I4
ssg62
g1894
sg55
(lp1901
S"<Values at 0x27674b8: {'verbose': False, 'ip': '127.0.0.1', 'shutdown_timeout': 5, 'taskbar': False, 'nocron': False, 'pid_filename': 'httpserver.pid', 'maxthreads': None, 'softcron': False, 'server_name': 'nilton-NOT', 'bpython': False, 'nogui': False, 'port': 8000, 'extcron': False, 'debuglevel': 30, 'test': None, 'folder': 'C:\\\\Users\\\\nilton\\\\Desktop\\\\scripts\\\\curso_de_python\\\\web2py', 'config': '', 'import_models': False, 'winservice': '', 'shell': None, 'run': '', 'log_filename': 'httpserver.log', 'args': [''], 'socket_timeout': 1, 'ssl_ca_certificate': None, 'scheduler': None, 'profiler_filename': None, 'ssl_private_key': '', 'password': '<ask>', 'request_queue_size': 5, 'ssl_certificate': '', 'cronjob': False, 'numthreads': None, 'quiet': False, 'interfaces': None, 'minthreads': None, 'timeout': 10, 'plain': False, 'nobanner': False}>"
p1902
asbasbasbag48
(g64
g50
NtRp1903
(dp1904
g53
(dp1905
sg62
g1813
sg55
(lp1906
g48
(g69
g50
NtRp1907
(dp1908
g53
(dp1909
g73
g74
ssg62
g1903
sg55
(lp1910
g855
asbag48
(g69
g50
NtRp1911
(dp1912
g53
(dp1913
g80
g81
ssg62
g1903
sg55
(lp1914
S':'
asbag48
(g69
g50
NtRp1915
(dp1916
g53
(dp1917
sg62
g1903
sg55
(lp1918
g48
(g49
g50
NtRp1919
(dp1920
g53
(dp1921
g61
I4
ssg62
g1915
sg55
(lp1922
S'set([])'
p1923
asbasbasbag48
(g64
g50
NtRp1924
(dp1925
g53
(dp1926
sg62
g1813
sg55
(lp1927
g48
(g69
g50
NtRp1928
(dp1929
g53
(dp1930
g73
g74
ssg62
g1924
sg55
(lp1931
g877
asbag48
(g69
g50
NtRp1932
(dp1933
g53
(dp1934
g80
g81
ssg62
g1924
sg55
(lp1935
S':'
asbag48
(g69
g50
NtRp1936
(dp1937
g53
(dp1938
sg62
g1924
sg55
(lp1939
g48
(g49
g50
NtRp1940
(dp1941
g53
(dp1942
g61
I4
ssg62
g1936
sg55
(lp1943
g91
asbasbasbag48
(g64
g50
NtRp1944
(dp1945
g53
(dp1946
sg62
g1813
sg55
(lp1947
g48
(g69
g50
NtRp1948
(dp1949
g53
(dp1950
g73
g74
ssg62
g1944
sg55
(lp1951
g898
asbag48
(g69
g50
NtRp1952
(dp1953
g53
(dp1954
g80
g81
ssg62
g1944
sg55
(lp1955
S':'
asbag48
(g69
g50
NtRp1956
(dp1957
g53
(dp1958
sg62
g1944
sg55
(lp1959
g48
(g49
g50
NtRp1960
(dp1961
g53
(dp1962
g61
I4
ssg62
g1956
sg55
(lp1963
g911
asbasbasbag48
(g64
g50
NtRp1964
(dp1965
g53
(dp1966
sg62
g1813
sg55
(lp1967
g48
(g69
g50
NtRp1968
(dp1969
g53
(dp1970
g73
g74
ssg62
g1964
sg55
(lp1971
g1118
asbag48
(g69
g50
NtRp1972
(dp1973
g53
(dp1974
g80
g81
ssg62
g1964
sg55
(lp1975
S':'
asbag48
(g69
g50
NtRp1976
(dp1977
g53
(dp1978
sg62
g1964
sg55
(lp1979
g48
(g49
g50
NtRp1980
(dp1981
g53
(dp1982
g61
I4
ssg62
g1976
sg55
(lp1983
g91
asbasbasbag48
(g64
g50
NtRp1984
(dp1985
g53
(dp1986
sg62
g1813
sg55
(lp1987
g48
(g69
g50
NtRp1988
(dp1989
g53
(dp1990
g73
g74
ssg62
g1984
sg55
(lp1991
g1139
asbag48
(g69
g50
NtRp1992
(dp1993
g53
(dp1994
g80
g81
ssg62
g1984
sg55
(lp1995
S':'
asbag48
(g69
g50
NtRp1996
(dp1997
g53
(dp1998
sg62
g1984
sg55
(lp1999
g48
(g49
g50
NtRp2000
(dp2001
g53
(dp2002
g61
I4
ssg62
g1996
sg55
(lp2003
g91
asbasbasbag48
(g64
g50
NtRp2004
(dp2005
g53
(dp2006
sg62
g1813
sg55
(lp2007
g48
(g69
g50
NtRp2008
(dp2009
g53
(dp2010
g73
g74
ssg62
g2004
sg55
(lp2011
g1377
asbag48
(g69
g50
NtRp2012
(dp2013
g53
(dp2014
g80
g81
ssg62
g2004
sg55
(lp2015
S':'
asbag48
(g69
g50
NtRp2016
(dp2017
g53
(dp2018
sg62
g2004
sg55
(lp2019
g48
(g49
g50
NtRp2020
(dp2021
g53
(dp2022
g61
I4
ssg62
g2016
sg55
(lp2023
g1390
asbasbasbag48
(g64
g50
NtRp2024
(dp2025
g53
(dp2026
sg62
g1813
sg55
(lp2027
g48
(g69
g50
NtRp2028
(dp2029
g53
(dp2030
g73
g74
ssg62
g2024
sg55
(lp2031
g1420
asbag48
(g69
g50
NtRp2032
(dp2033
g53
(dp2034
g80
g81
ssg62
g2024
sg55
(lp2035
S':'
asbag48
(g69
g50
NtRp2036
(dp2037
g53
(dp2038
sg62
g2024
sg55
(lp2039
g48
(g49
g50
NtRp2040
(dp2041
g53
(dp2042
g61
I4
ssg62
g2036
sg55
(lp2043
g48
(g57
g50
NtRp2044
(dp2045
g53
(dp2046
g61
I3
ssg62
Nsg55
(lp2047
g48
(g64
g50
NtRp2048
(dp2049
g53
(dp2050
sg62
g2044
sg55
(lp2051
g48
(g69
g50
NtRp2052
(dp2053
g53
(dp2054
sg62
g2048
sg55
(lp2055
g48
(g49
g50
NtRp2056
(dp2057
g53
(dp2058
g61
I3
ssg62
g2052
sg55
(lp2059
S'1'
asbasbasbag48
(g64
g50
NtRp2060
(dp2061
g53
(dp2062
sg62
g2044
sg55
(lp2063
g48
(g69
g50
NtRp2064
(dp2065
g53
(dp2066
sg62
g2060
sg55
(lp2067
g48
(g49
g50
NtRp2068
(dp2069
g53
(dp2070
g61
I3
ssg62
g2064
sg55
(lp2071
S'99'
p2072
asbasbasbag48
(g64
g50
NtRp2073
(dp2074
g53
(dp2075
sg62
g2044
sg55
(lp2076
g48
(g69
g50
NtRp2077
(dp2078
g53
(dp2079
sg62
g2073
sg55
(lp2080
g48
(g49
g50
NtRp2081
(dp2082
g53
(dp2083
g61
I3
ssg62
g2077
sg55
(lp2084
S'4'
asbasbasbag48
(g64
g50
NtRp2085
(dp2086
g53
(dp2087
sg62
g2044
sg55
(lp2088
g48
(g69
g50
NtRp2089
(dp2090
g53
(dp2091
sg62
g2085
sg55
(lp2092
g48
(g49
g50
NtRp2093
(dp2094
g53
(dp2095
g61
I3
ssg62
g2089
sg55
(lp2096
S'datetime.datetime(2011, 12, 14, 14, 46, 14)'
p2097
asbasbasbag48
(g64
g50
NtRp2098
(dp2099
g53
(dp2100
sg62
g2044
sg55
(lp2101
g48
(g69
g50
NtRp2102
(dp2103
g53
(dp2104
sg62
g2098
sg55
(lp2105
g48
(g49
g50
NtRp2106
(dp2107
g53
(dp2108
g61
I3
ssg62
g2102
sg55
(lp2109
g1499
asbasbasbasbasbasbasbasbasbasbasbag48
(g64
g50
NtRp2110
(dp2111
g53
(dp2112
sg62
g58
sg55
(lp2113
g48
(g69
g50
NtRp2114
(dp2115
g53
(dp2116
g73
g74
ssg62
g2110
sg55
(lp2117
S'is_https'
p2118
asbag48
(g69
g50
NtRp2119
(dp2120
g53
(dp2121
g80
g81
ssg62
g2110
sg55
(lp2122
S':'
asbag48
(g69
g50
NtRp2123
(dp2124
g53
(dp2125
sg62
g2110
sg55
(lp2126
g48
(g49
g50
NtRp2127
(dp2128
g53
(dp2129
g61
I5
ssg62
g2123
sg55
(lp2130
g91
asbasbasbag48
(g64
g50
NtRp2131
(dp2132
g53
(dp2133
sg62
g58
sg55
(lp2134
g48
(g69
g50
NtRp2135
(dp2136
g53
(dp2137
g73
g74
ssg62
g2131
sg55
(lp2138
S'is_local'
p2139
asbag48
(g69
g50
NtRp2140
(dp2141
g53
(dp2142
g80
g81
ssg62
g2131
sg55
(lp2143
S':'
asbag48
(g69
g50
NtRp2144
(dp2145
g53
(dp2146
sg62
g2131
sg55
(lp2147
g48
(g49
g50
NtRp2148
(dp2149
g53
(dp2150
g61
I5
ssg62
g2144
sg55
(lp2151
g1608
asbasbasbag48
(g64
g50
NtRp2152
(dp2153
g53
(dp2154
sg62
g58
sg55
(lp2155
g48
(g69
g50
NtRp2156
(dp2157
g53
(dp2158
g73
g74
ssg62
g2152
sg55
(lp2159
S'is_restful'
p2160
asbag48
(g69
g50
NtRp2161
(dp2162
g53
(dp2163
g80
g81
ssg62
g2152
sg55
(lp2164
S':'
asbag48
(g69
g50
NtRp2165
(dp2166
g53
(dp2167
sg62
g2152
sg55
(lp2168
g48
(g49
g50
NtRp2169
(dp2170
g53
(dp2171
g61
I5
ssg62
g2165
sg55
(lp2172
g91
asbasbasbag48
(g64
g50
NtRp2173
(dp2174
g53
(dp2175
sg62
g58
sg55
(lp2176
g48
(g69
g50
NtRp2177
(dp2178
g53
(dp2179
g73
g74
ssg62
g2173
sg55
(lp2180
S'now'
p2181
asbag48
(g69
g50
NtRp2182
(dp2183
g53
(dp2184
g80
g81
ssg62
g2173
sg55
(lp2185
S':'
asbag48
(g69
g50
NtRp2186
(dp2187
g53
(dp2188
sg62
g2173
sg55
(lp2189
g48
(g49
g50
NtRp2190
(dp2191
g53
(dp2192
g61
I5
ssg62
g2186
sg55
(lp2193
S'datetime.datetime(2012, 1, 24, 12, 20, 9, 275000)'
p2194
asbasbasbag48
(g64
g50
NtRp2195
(dp2196
g53
(dp2197
sg62
g58
sg55
(lp2198
g48
(g69
g50
NtRp2199
(dp2200
g53
(dp2201
g73
g74
ssg62
g2195
sg55
(lp2202
S'post_vars'
p2203
asbag48
(g69
g50
NtRp2204
(dp2205
g53
(dp2206
g80
g81
ssg62
g2195
sg55
(lp2207
S':'
asbag48
(g69
g50
NtRp2208
(dp2209
g53
(dp2210
sg62
g2195
sg55
(lp2211
g48
(g49
g50
NtRp2212
(dp2213
g53
(dp2214
g61
I5
ssg62
g2208
sg55
(lp2215
g48
(g57
g50
NtRp2216
(dp2217
g53
(dp2218
g61
I4
ssg62
Nsg55
(lp2219
sbasbasbasbag48
(g64
g50
NtRp2220
(dp2221
g53
(dp2222
sg62
g58
sg55
(lp2223
g48
(g69
g50
NtRp2224
(dp2225
g53
(dp2226
g73
g74
ssg62
g2220
sg55
(lp2227
S'url'
p2228
asbag48
(g69
g50
NtRp2229
(dp2230
g53
(dp2231
g80
g81
ssg62
g2220
sg55
(lp2232
S':'
asbag48
(g69
g50
NtRp2233
(dp2234
g53
(dp2235
sg62
g2220
sg55
(lp2236
g48
(g49
g50
NtRp2237
(dp2238
g53
(dp2239
g61
I5
ssg62
g2233
sg55
(lp2240
S'/xcpadmin/listvm/index'
p2241
asbasbasbag48
(g64
g50
NtRp2242
(dp2243
g53
(dp2244
sg62
g58
sg55
(lp2245
g48
(g69
g50
NtRp2246
(dp2247
g53
(dp2248
g73
g74
ssg62
g2242
sg55
(lp2249
S'utcnow'
p2250
asbag48
(g69
g50
NtRp2251
(dp2252
g53
(dp2253
g80
g81
ssg62
g2242
sg55
(lp2254
S':'
asbag48
(g69
g50
NtRp2255
(dp2256
g53
(dp2257
sg62
g2242
sg55
(lp2258
g48
(g49
g50
NtRp2259
(dp2260
g53
(dp2261
g61
I5
ssg62
g2255
sg55
(lp2262
S'datetime.datetime(2012, 1, 24, 14, 20, 9, 275000)'
p2263
asbasbasbag48
(g64
g50
NtRp2264
(dp2265
g53
(dp2266
sg62
g58
sg55
(lp2267
g48
(g69
g50
NtRp2268
(dp2269
g53
(dp2270
g73
g74
ssg62
g2264
sg55
(lp2271
S'uuid'
p2272
asbag48
(g69
g50
NtRp2273
(dp2274
g53
(dp2275
g80
g81
ssg62
g2264
sg55
(lp2276
S':'
asbag48
(g69
g50
NtRp2277
(dp2278
g53
(dp2279
sg62
g2264
sg55
(lp2280
g48
(g49
g50
NtRp2281
(dp2282
g53
(dp2283
g61
I5
ssg62
g2277
sg55
(lp2284
S'xcpadmin/127.0.0.1.2012-01-24.12-20-09.8ba8bf94-c3b4-48fa-aca2-6aca1105707a'
p2285
asbasbasbag48
(g64
g50
NtRp2286
(dp2287
g53
(dp2288
sg62
g58
sg55
(lp2289
g48
(g69
g50
NtRp2290
(dp2291
g53
(dp2292
g73
g74
ssg62
g2286
sg55
(lp2293
S'vars'
p2294
asbag48
(g69
g50
NtRp2295
(dp2296
g53
(dp2297
g80
g81
ssg62
g2286
sg55
(lp2298
S':'
asbag48
(g69
g50
NtRp2299
(dp2300
g53
(dp2301
sg62
g2286
sg55
(lp2302
g48
(g49
g50
NtRp2303
(dp2304
g53
(dp2305
g61
I5
ssg62
g2299
sg55
(lp2306
g48
(g57
g50
NtRp2307
(dp2308
g53
(dp2309
g61
I4
ssg62
Nsg55
(lp2310
sbasbasbasbag48
(g64
g50
NtRp2311
(dp2312
g53
(dp2313
sg62
g58
sg55
(lp2314
g48
(g69
g50
NtRp2315
(dp2316
g53
(dp2317
g73
g74
ssg62
g2311
sg55
(lp2318
S'wsgi'
p2319
asbag48
(g69
g50
NtRp2320
(dp2321
g53
(dp2322
g80
g81
ssg62
g2311
sg55
(lp2323
S':'
asbag48
(g69
g50
NtRp2324
(dp2325
g53
(dp2326
sg62
g2311
sg55
(lp2327
g48
(g49
g50
NtRp2328
(dp2329
g53
(dp2330
g61
I5
ssg62
g2324
sg55
(lp2331
g48
(g57
g50
NtRp2332
(dp2333
g53
(dp2334
g61
I4
ssg62
Nsg55
(lp2335
g48
(g64
g50
NtRp2336
(dp2337
g53
(dp2338
sg62
g2332
sg55
(lp2339
g48
(g69
g50
NtRp2340
(dp2341
g53
(dp2342
g73
g74
ssg62
g2336
sg55
(lp2343
S'environ'
p2344
asbag48
(g69
g50
NtRp2345
(dp2346
g53
(dp2347
g80
g81
ssg62
g2336
sg55
(lp2348
S':'
asbag48
(g69
g50
NtRp2349
(dp2350
g53
(dp2351
sg62
g2336
sg55
(lp2352
g48
(g49
g50
NtRp2353
(dp2354
g53
(dp2355
g61
I4
ssg62
g2349
sg55
(lp2356
g48
(g57
g50
NtRp2357
(dp2358
g53
(dp2359
g61
I3
ssg62
Nsg55
(lp2360
g48
(g64
g50
NtRp2361
(dp2362
g53
(dp2363
sg62
g2357
sg55
(lp2364
g48
(g69
g50
NtRp2365
(dp2366
g53
(dp2367
g73
g74
ssg62
g2361
sg55
(lp2368
S'HTTP_ACCEPT'
p2369
asbag48
(g69
g50
NtRp2370
(dp2371
g53
(dp2372
g80
g81
ssg62
g2361
sg55
(lp2373
S':'
asbag48
(g69
g50
NtRp2374
(dp2375
g53
(dp2376
sg62
g2361
sg55
(lp2377
g48
(g49
g50
NtRp2378
(dp2379
g53
(dp2380
g61
I3
ssg62
g2374
sg55
(lp2381
g933
asbasbasbag48
(g64
g50
NtRp2382
(dp2383
g53
(dp2384
sg62
g2357
sg55
(lp2385
g48
(g69
g50
NtRp2386
(dp2387
g53
(dp2388
g73
g74
ssg62
g2382
sg55
(lp2389
S'HTTP_ACCEPT_CHARSET'
p2390
asbag48
(g69
g50
NtRp2391
(dp2392
g53
(dp2393
g80
g81
ssg62
g2382
sg55
(lp2394
S':'
asbag48
(g69
g50
NtRp2395
(dp2396
g53
(dp2397
sg62
g2382
sg55
(lp2398
g48
(g49
g50
NtRp2399
(dp2400
g53
(dp2401
g61
I3
ssg62
g2395
sg55
(lp2402
g955
asbasbasbag48
(g64
g50
NtRp2403
(dp2404
g53
(dp2405
sg62
g2357
sg55
(lp2406
g48
(g69
g50
NtRp2407
(dp2408
g53
(dp2409
g73
g74
ssg62
g2403
sg55
(lp2410
S'HTTP_ACCEPT_ENCODING'
p2411
asbag48
(g69
g50
NtRp2412
(dp2413
g53
(dp2414
g80
g81
ssg62
g2403
sg55
(lp2415
S':'
asbag48
(g69
g50
NtRp2416
(dp2417
g53
(dp2418
sg62
g2403
sg55
(lp2419
g48
(g49
g50
NtRp2420
(dp2421
g53
(dp2422
g61
I3
ssg62
g2416
sg55
(lp2423
g977
asbasbasbag48
(g64
g50
NtRp2424
(dp2425
g53
(dp2426
sg62
g2357
sg55
(lp2427
g48
(g69
g50
NtRp2428
(dp2429
g53
(dp2430
g73
g74
ssg62
g2424
sg55
(lp2431
S'HTTP_ACCEPT_LANGUAGE'
p2432
asbag48
(g69
g50
NtRp2433
(dp2434
g53
(dp2435
g80
g81
ssg62
g2424
sg55
(lp2436
S':'
asbag48
(g69
g50
NtRp2437
(dp2438
g53
(dp2439
sg62
g2424
sg55
(lp2440
g48
(g49
g50
NtRp2441
(dp2442
g53
(dp2443
g61
I3
ssg62
g2437
sg55
(lp2444
g999
asbasbasbag48
(g64
g50
NtRp2445
(dp2446
g53
(dp2447
sg62
g2357
sg55
(lp2448
g48
(g69
g50
NtRp2449
(dp2450
g53
(dp2451
g73
g74
ssg62
g2445
sg55
(lp2452
S'HTTP_CACHE_CONTROL'
p2453
asbag48
(g69
g50
NtRp2454
(dp2455
g53
(dp2456
g80
g81
ssg62
g2445
sg55
(lp2457
S':'
asbag48
(g69
g50
NtRp2458
(dp2459
g53
(dp2460
sg62
g2445
sg55
(lp2461
g48
(g49
g50
NtRp2462
(dp2463
g53
(dp2464
g61
I3
ssg62
g2458
sg55
(lp2465
g1021
asbasbasbag48
(g64
g50
NtRp2466
(dp2467
g53
(dp2468
sg62
g2357
sg55
(lp2469
g48
(g69
g50
NtRp2470
(dp2471
g53
(dp2472
g73
g74
ssg62
g2466
sg55
(lp2473
S'HTTP_CONNECTION'
p2474
asbag48
(g69
g50
NtRp2475
(dp2476
g53
(dp2477
g80
g81
ssg62
g2466
sg55
(lp2478
S':'
asbag48
(g69
g50
NtRp2479
(dp2480
g53
(dp2481
sg62
g2466
sg55
(lp2482
g48
(g49
g50
NtRp2483
(dp2484
g53
(dp2485
g61
I3
ssg62
g2479
sg55
(lp2486
g1043
asbasbasbag48
(g64
g50
NtRp2487
(dp2488
g53
(dp2489
sg62
g2357
sg55
(lp2490
g48
(g69
g50
NtRp2491
(dp2492
g53
(dp2493
g73
g74
ssg62
g2487
sg55
(lp2494
S'HTTP_COOKIE'
p2495
asbag48
(g69
g50
NtRp2496
(dp2497
g53
(dp2498
g80
g81
ssg62
g2487
sg55
(lp2499
S':'
asbag48
(g69
g50
NtRp2500
(dp2501
g53
(dp2502
sg62
g2487
sg55
(lp2503
g48
(g49
g50
NtRp2504
(dp2505
g53
(dp2506
g61
I3
ssg62
g2500
sg55
(lp2507
g1065
asbasbasbag48
(g64
g50
NtRp2508
(dp2509
g53
(dp2510
sg62
g2357
sg55
(lp2511
g48
(g69
g50
NtRp2512
(dp2513
g53
(dp2514
g73
g74
ssg62
g2508
sg55
(lp2515
S'HTTP_HOST'
p2516
asbag48
(g69
g50
NtRp2517
(dp2518
g53
(dp2519
g80
g81
ssg62
g2508
sg55
(lp2520
S':'
asbag48
(g69
g50
NtRp2521
(dp2522
g53
(dp2523
sg62
g2508
sg55
(lp2524
g48
(g49
g50
NtRp2525
(dp2526
g53
(dp2527
g61
I3
ssg62
g2521
sg55
(lp2528
g1087
asbasbasbag48
(g64
g50
NtRp2529
(dp2530
g53
(dp2531
sg62
g2357
sg55
(lp2532
g48
(g69
g50
NtRp2533
(dp2534
g53
(dp2535
g73
g74
ssg62
g2529
sg55
(lp2536
S'HTTP_USER_AGENT'
p2537
asbag48
(g69
g50
NtRp2538
(dp2539
g53
(dp2540
g80
g81
ssg62
g2529
sg55
(lp2541
S':'
asbag48
(g69
g50
NtRp2542
(dp2543
g53
(dp2544
sg62
g2529
sg55
(lp2545
g48
(g49
g50
NtRp2546
(dp2547
g53
(dp2548
g61
I3
ssg62
g2542
sg55
(lp2549
g1109
asbasbasbag48
(g64
g50
NtRp2550
(dp2551
g53
(dp2552
sg62
g2357
sg55
(lp2553
g48
(g69
g50
NtRp2554
(dp2555
g53
(dp2556
g73
g74
ssg62
g2550
sg55
(lp2557
S'PATH_INFO'
p2558
asbag48
(g69
g50
NtRp2559
(dp2560
g53
(dp2561
g80
g81
ssg62
g2550
sg55
(lp2562
S':'
asbag48
(g69
g50
NtRp2563
(dp2564
g53
(dp2565
sg62
g2550
sg55
(lp2566
g48
(g49
g50
NtRp2567
(dp2568
g53
(dp2569
g61
I3
ssg62
g2563
sg55
(lp2570
g1173
asbasbasbag48
(g64
g50
NtRp2571
(dp2572
g53
(dp2573
sg62
g2357
sg55
(lp2574
g48
(g69
g50
NtRp2575
(dp2576
g53
(dp2577
g73
g74
ssg62
g2571
sg55
(lp2578
S'QUERY_STRING'
p2579
asbag48
(g69
g50
NtRp2580
(dp2581
g53
(dp2582
g80
g81
ssg62
g2571
sg55
(lp2583
S':'
asbag48
(g69
g50
NtRp2584
(dp2585
g53
(dp2586
sg62
g2571
sg55
(lp2587
g48
(g49
g50
NtRp2588
(dp2589
g53
(dp2590
g61
I3
ssg62
g2584
sg55
(lp2591
S''
asbasbasbag48
(g64
g50
NtRp2592
(dp2593
g53
(dp2594
sg62
g2357
sg55
(lp2595
g48
(g69
g50
NtRp2596
(dp2597
g53
(dp2598
g73
g74
ssg62
g2592
sg55
(lp2599
S'REMOTE_ADDR'
p2600
asbag48
(g69
g50
NtRp2601
(dp2602
g53
(dp2603
g80
g81
ssg62
g2592
sg55
(lp2604
S':'
asbag48
(g69
g50
NtRp2605
(dp2606
g53
(dp2607
sg62
g2592
sg55
(lp2608
g48
(g49
g50
NtRp2609
(dp2610
g53
(dp2611
g61
I3
ssg62
g2605
sg55
(lp2612
g181
asbasbasbag48
(g64
g50
NtRp2613
(dp2614
g53
(dp2615
sg62
g2357
sg55
(lp2616
g48
(g69
g50
NtRp2617
(dp2618
g53
(dp2619
g73
g74
ssg62
g2613
sg55
(lp2620
S'REMOTE_PORT'
p2621
asbag48
(g69
g50
NtRp2622
(dp2623
g53
(dp2624
g80
g81
ssg62
g2613
sg55
(lp2625
S':'
asbag48
(g69
g50
NtRp2626
(dp2627
g53
(dp2628
sg62
g2613
sg55
(lp2629
g48
(g49
g50
NtRp2630
(dp2631
g53
(dp2632
g61
I3
ssg62
g2626
sg55
(lp2633
g1237
asbasbasbag48
(g64
g50
NtRp2634
(dp2635
g53
(dp2636
sg62
g2357
sg55
(lp2637
g48
(g69
g50
NtRp2638
(dp2639
g53
(dp2640
g73
g74
ssg62
g2634
sg55
(lp2641
S'REQUEST_METHOD'
p2642
asbag48
(g69
g50
NtRp2643
(dp2644
g53
(dp2645
g80
g81
ssg62
g2634
sg55
(lp2646
S':'
asbag48
(g69
g50
NtRp2647
(dp2648
g53
(dp2649
sg62
g2634
sg55
(lp2650
g48
(g49
g50
NtRp2651
(dp2652
g53
(dp2653
g61
I3
ssg62
g2647
sg55
(lp2654
g1259
asbasbasbag48
(g64
g50
NtRp2655
(dp2656
g53
(dp2657
sg62
g2357
sg55
(lp2658
g48
(g69
g50
NtRp2659
(dp2660
g53
(dp2661
g73
g74
ssg62
g2655
sg55
(lp2662
S'SCRIPT_NAME'
p2663
asbag48
(g69
g50
NtRp2664
(dp2665
g53
(dp2666
g80
g81
ssg62
g2655
sg55
(lp2667
S':'
asbag48
(g69
g50
NtRp2668
(dp2669
g53
(dp2670
sg62
g2655
sg55
(lp2671
g48
(g49
g50
NtRp2672
(dp2673
g53
(dp2674
g61
I3
ssg62
g2668
sg55
(lp2675
S''
asbasbasbag48
(g64
g50
NtRp2676
(dp2677
g53
(dp2678
sg62
g2357
sg55
(lp2679
g48
(g69
g50
NtRp2680
(dp2681
g53
(dp2682
g73
g74
ssg62
g2676
sg55
(lp2683
S'SERVER_NAME'
p2684
asbag48
(g69
g50
NtRp2685
(dp2686
g53
(dp2687
g80
g81
ssg62
g2676
sg55
(lp2688
S':'
asbag48
(g69
g50
NtRp2689
(dp2690
g53
(dp2691
sg62
g2676
sg55
(lp2692
g48
(g49
g50
NtRp2693
(dp2694
g53
(dp2695
g61
I3
ssg62
g2689
sg55
(lp2696
g1302
asbasbasbag48
(g64
g50
NtRp2697
(dp2698
g53
(dp2699
sg62
g2357
sg55
(lp2700
g48
(g69
g50
NtRp2701
(dp2702
g53
(dp2703
g73
g74
ssg62
g2697
sg55
(lp2704
S'SERVER_PORT'
p2705
asbag48
(g69
g50
NtRp2706
(dp2707
g53
(dp2708
g80
g81
ssg62
g2697
sg55
(lp2709
S':'
asbag48
(g69
g50
NtRp2710
(dp2711
g53
(dp2712
sg62
g2697
sg55
(lp2713
g48
(g49
g50
NtRp2714
(dp2715
g53
(dp2716
g61
I3
ssg62
g2710
sg55
(lp2717
g1324
asbasbasbag48
(g64
g50
NtRp2718
(dp2719
g53
(dp2720
sg62
g2357
sg55
(lp2721
g48
(g69
g50
NtRp2722
(dp2723
g53
(dp2724
g73
g74
ssg62
g2718
sg55
(lp2725
S'SERVER_PROTOCOL'
p2726
asbag48
(g69
g50
NtRp2727
(dp2728
g53
(dp2729
g80
g81
ssg62
g2718
sg55
(lp2730
S':'
asbag48
(g69
g50
NtRp2731
(dp2732
g53
(dp2733
sg62
g2718
sg55
(lp2734
g48
(g49
g50
NtRp2735
(dp2736
g53
(dp2737
g61
I3
ssg62
g2731
sg55
(lp2738
g1346
asbasbasbag48
(g64
g50
NtRp2739
(dp2740
g53
(dp2741
sg62
g2357
sg55
(lp2742
g48
(g69
g50
NtRp2743
(dp2744
g53
(dp2745
g73
g74
ssg62
g2739
sg55
(lp2746
S'SERVER_SOFTWARE'
p2747
asbag48
(g69
g50
NtRp2748
(dp2749
g53
(dp2750
g80
g81
ssg62
g2739
sg55
(lp2751
S':'
asbag48
(g69
g50
NtRp2752
(dp2753
g53
(dp2754
sg62
g2739
sg55
(lp2755
g48
(g49
g50
NtRp2756
(dp2757
g53
(dp2758
g61
I3
ssg62
g2752
sg55
(lp2759
g1368
asbasbasbag48
(g64
g50
NtRp2760
(dp2761
g53
(dp2762
sg62
g2357
sg55
(lp2763
g48
(g69
g50
NtRp2764
(dp2765
g53
(dp2766
g73
g74
ssg62
g2760
sg55
(lp2767
S'wsgi.errors'
p2768
asbag48
(g69
g50
NtRp2769
(dp2770
g53
(dp2771
g80
g81
ssg62
g2760
sg55
(lp2772
S':'
asbag48
(g69
g50
NtRp2773
(dp2774
g53
(dp2775
sg62
g2760
sg55
(lp2776
g48
(g49
g50
NtRp2777
(dp2778
g53
(dp2779
g61
I3
ssg62
g2773
sg55
(lp2780
S'<__main__.Stderr object at 0x0124A670>'
p2781
asbasbasbag48
(g64
g50
NtRp2782
(dp2783
g53
(dp2784
sg62
g2357
sg55
(lp2785
g48
(g69
g50
NtRp2786
(dp2787
g53
(dp2788
g73
g74
ssg62
g2782
sg55
(lp2789
S'wsgi.file_wrapper'
p2790
asbag48
(g69
g50
NtRp2791
(dp2792
g53
(dp2793
g80
g81
ssg62
g2782
sg55
(lp2794
S':'
asbag48
(g69
g50
NtRp2795
(dp2796
g53
(dp2797
sg62
g2782
sg55
(lp2798
g48
(g49
g50
NtRp2799
(dp2800
g53
(dp2801
g61
I3
ssg62
g2795
sg55
(lp2802
S'<class wsgiref.util.FileWrapper at 0x01BDBBA0>'
p2803
asbasbasbag48
(g64
g50
NtRp2804
(dp2805
g53
(dp2806
sg62
g2357
sg55
(lp2807
g48
(g69
g50
NtRp2808
(dp2809
g53
(dp2810
g73
g74
ssg62
g2804
sg55
(lp2811
S'wsgi.input'
p2812
asbag48
(g69
g50
NtRp2813
(dp2814
g53
(dp2815
g80
g81
ssg62
g2804
sg55
(lp2816
S':'
asbag48
(g69
g50
NtRp2817
(dp2818
g53
(dp2819
sg62
g2804
sg55
(lp2820
g48
(g49
g50
NtRp2821
(dp2822
g53
(dp2823
g61
I3
ssg62
g2817
sg55
(lp2824
S'<cStringIO.StringO object at 0x05EF9BA0>'
p2825
asbasbasbag48
(g64
g50
NtRp2826
(dp2827
g53
(dp2828
sg62
g2357
sg55
(lp2829
g48
(g69
g50
NtRp2830
(dp2831
g53
(dp2832
g73
g74
ssg62
g2826
sg55
(lp2833
S'wsgi.multiprocess'
p2834
asbag48
(g69
g50
NtRp2835
(dp2836
g53
(dp2837
g80
g81
ssg62
g2826
sg55
(lp2838
S':'
asbag48
(g69
g50
NtRp2839
(dp2840
g53
(dp2841
sg62
g2826
sg55
(lp2842
g48
(g49
g50
NtRp2843
(dp2844
g53
(dp2845
g61
I3
ssg62
g2839
sg55
(lp2846
g91
asbasbasbag48
(g64
g50
NtRp2847
(dp2848
g53
(dp2849
sg62
g2357
sg55
(lp2850
g48
(g69
g50
NtRp2851
(dp2852
g53
(dp2853
g73
g74
ssg62
g2847
sg55
(lp2854
S'wsgi.multithread'
p2855
asbag48
(g69
g50
NtRp2856
(dp2857
g53
(dp2858
g80
g81
ssg62
g2847
sg55
(lp2859
S':'
asbag48
(g69
g50
NtRp2860
(dp2861
g53
(dp2862
sg62
g2847
sg55
(lp2863
g48
(g49
g50
NtRp2864
(dp2865
g53
(dp2866
g61
I3
ssg62
g2860
sg55
(lp2867
g1608
asbasbasbag48
(g64
g50
NtRp2868
(dp2869
g53
(dp2870
sg62
g2357
sg55
(lp2871
g48
(g69
g50
NtRp2872
(dp2873
g53
(dp2874
g73
g74
ssg62
g2868
sg55
(lp2875
S'wsgi.run_once'
p2876
asbag48
(g69
g50
NtRp2877
(dp2878
g53
(dp2879
g80
g81
ssg62
g2868
sg55
(lp2880
S':'
asbag48
(g69
g50
NtRp2881
(dp2882
g53
(dp2883
sg62
g2868
sg55
(lp2884
g48
(g49
g50
NtRp2885
(dp2886
g53
(dp2887
g61
I3
ssg62
g2881
sg55
(lp2888
g91
asbasbasbag48
(g64
g50
NtRp2889
(dp2890
g53
(dp2891
sg62
g2357
sg55
(lp2892
g48
(g69
g50
NtRp2893
(dp2894
g53
(dp2895
g73
g74
ssg62
g2889
sg55
(lp2896
S'wsgi.url_scheme'
p2897
asbag48
(g69
g50
NtRp2898
(dp2899
g53
(dp2900
g80
g81
ssg62
g2889
sg55
(lp2901
S':'
asbag48
(g69
g50
NtRp2902
(dp2903
g53
(dp2904
sg62
g2889
sg55
(lp2905
g48
(g49
g50
NtRp2906
(dp2907
g53
(dp2908
g61
I3
ssg62
g2902
sg55
(lp2909
g1651
asbasbasbag48
(g64
g50
NtRp2910
(dp2911
g53
(dp2912
sg62
g2357
sg55
(lp2913
g48
(g69
g50
NtRp2914
(dp2915
g53
(dp2916
g73
g74
ssg62
g2910
sg55
(lp2917
S'wsgi.version'
p2918
asbag48
(g69
g50
NtRp2919
(dp2920
g53
(dp2921
g80
g81
ssg62
g2910
sg55
(lp2922
S':'
asbag48
(g69
g50
NtRp2923
(dp2924
g53
(dp2925
sg62
g2910
sg55
(lp2926
g48
(g49
g50
NtRp2927
(dp2928
g53
(dp2929
g61
I3
ssg62
g2923
sg55
(lp2930
S'1'
asbasbasbasbasbasbasbasbasbasbasbasbasbsS'frames'
p2931
(lp2932
(dp2933
S'file'
p2934
S'C:\\Users\\nilton\\Desktop\\scripts\\curso_de_python\\web2py\\gluon\\restricted.py'
p2935
sS'dump'
p2936
(dp2937
sS'lnum'
p2938
I204
sS'lines'
p2939
(dp2940
sS'call'
p2941
S'(code=r"response.write(\'<!DOCTYPE html>\\n<!-- paulirish....ponse.write(\'\\n</body>\\n</html>\\n\', escape=False)", environment={\'A\': <class \'gluon.html.A\'>, \'Auth\': <class \'gluon.tools.Auth\'>, \'B\': <class \'gluon.html.B\'>, \'BEAUTIFY\': <class \'gluon.html.BEAUTIFY\'>, \'BODY\': <class \'gluon.html.BODY\'>, \'BR\': <class \'gluon.html.BR\'>, \'BUTTON\': <class \'gluon.html.BUTTON\'>, \'CAT\': <class \'gluon.html.CAT\'>, \'CENTER\': <class \'gluon.html.CENTER\'>, \'CLEANUP\': <class \'gluon.validators.CLEANUP\'>, ...}, layer=r\'C:\\Users\\nilton\\Desktop\\scripts\\curso_de_python\\web2py\\applications\\xcpadmin\\views\\listvm/index.html\')'
p2942
sS'func'
p2943
S'restricted'
p2944
sa(dp2945
g2934
S'C:\\Users\\nilton\\Desktop\\scripts\\curso_de_python\\web2py\\applications\\xcpadmin\\views\\listvm\\index.html'
p2946
sg2936
(dp2947
sg2938
I76
sg2939
(dp2948
I67
S'    response.write(\'\\n        <div class="four columns left-sidebar">\\n          \', escape=False)'
p2949
sI68
S"    response.write('\\n          <h3>Left Sidebar</h3>\\n          <p></p>\\n          ', escape=False)"
p2950
sI69
S"    response.write('\\n        </div>\\n        ', escape=False)"
p2951
sI70
S'    pass'
p2952
sI71
S'response.write(\'\\n        \\n        <div class="\', escape=False)'
p2953
sI72
S'response.write(middle_columns)'
p2954
sI73
S'response.write(\' columns center">\\n          \', escape=False)'
p2955
sI74
S"response.write('\\n          ', escape=False)"
p2956
sI75
S"response.write('\\r\\n<h3>LIST VMs</h3>\\r\\n\\r\\n', escape=False)"
p2957
sI76
S'response.write(table[0])'
p2958
sI77
S'response.write(\'\\r\\n\\r\\n<table class="blahblahblah">\\r\\n<th> \', escape=False)'
p2959
sI78
S'T("Title")'
p2960
sI79
S"response.write(' </th>\\r\\n<th> ', escape=False)"
p2961
sI80
S'T("Location")'
p2962
sI81
S"response.write(' </th>\\r\\n', escape=False)"
p2963
sI82
S'for row in table:'
p2964
sI83
S"    response.write('\\r\\n<tr> \\r\\n<td>', escape=False)"
p2965
sI84
S'    response.write(row)'
p2966
sI85
S"    response.write(' </td>\\r\\n</tr>\\r\\n', escape=False)"
p2967
sI86
S'    pass'
p2968
ssg2941
S'()'
p2969
sg2943
S'<module>'
p2970
sasS'pyver'
p2971
S'Python 2.5.4: C:\\Users\\nilton\\Desktop\\scripts\\curso_de_python\\web2py\\web2py_no_console.exe'
p2972
sS'session'
p2973
g48
(g49
g50
NtRp2974
(dp2975
g53
(dp2976
sg55
(lp2977
g48
(g57
g50
NtRp2978
(dp2979
g53
(dp2980
g61
I5
ssg62
Nsg55
(lp2981
sbasbsS'etype'
p2982
S"<type 'exceptions.KeyError'>"
p2983
sS'date'
p2984
S'Tue Jan 24 12:20:17 2012'
p2985
sS'response'
p2986
g48
(g49
g50
NtRp2987
(dp2988
g53
(dp2989
sg55
(lp2990
g48
(g57
g50
NtRp2991
(dp2992
g53
(dp2993
g61
I5
ssg62
Nsg55
(lp2994
g48
(g64
g50
NtRp2995
(dp2996
g53
(dp2997
sg62
g2991
sg55
(lp2998
g48
(g69
g50
NtRp2999
(dp3000
g53
(dp3001
g73
g74
ssg62
g2995
sg55
(lp3002
g146
asbag48
(g69
g50
NtRp3003
(dp3004
g53
(dp3005
g80
g81
ssg62
g2995
sg55
(lp3006
S':'
asbag48
(g69
g50
NtRp3007
(dp3008
g53
(dp3009
sg62
g2995
sg55
(lp3010
g48
(g49
g50
NtRp3011
(dp3012
g53
(dp3013
g61
I5
ssg62
g3007
sg55
(lp3014
S'<cStringIO.StringO object at 0x05EF9840>'
p3015
asbasbasbag48
(g64
g50
NtRp3016
(dp3017
g53
(dp3018
sg62
g2991
sg55
(lp3019
g48
(g69
g50
NtRp3020
(dp3021
g53
(dp3022
g73
g74
ssg62
g3016
sg55
(lp3023
g212
asbag48
(g69
g50
NtRp3024
(dp3025
g53
(dp3026
g80
g81
ssg62
g3016
sg55
(lp3027
S':'
asbag48
(g69
g50
NtRp3028
(dp3029
g53
(dp3030
sg62
g3016
sg55
(lp3031
g48
(g49
g50
NtRp3032
(dp3033
g53
(dp3034
g61
I5
ssg62
g3028
sg55
(lp3035
g48
(g57
g50
NtRp3036
(dp3037
g53
(dp3038
g61
I4
ssg62
Nsg55
(lp3039
g48
(g64
g50
NtRp3040
(dp3041
g53
(dp3042
sg62
g3036
sg55
(lp3043
g48
(g69
g50
NtRp3044
(dp3045
g53
(dp3046
g73
g74
ssg62
g3040
sg55
(lp3047
S'session_id_xcpadmin'
p3048
asbag48
(g69
g50
NtRp3049
(dp3050
g53
(dp3051
g80
g81
ssg62
g3040
sg55
(lp3052
S':'
asbag48
(g69
g50
NtRp3053
(dp3054
g53
(dp3055
sg62
g3040
sg55
(lp3056
g48
(g49
g50
NtRp3057
(dp3058
g53
(dp3059
g61
I4
ssg62
g3053
sg55
(lp3060
g48
(g57
g50
NtRp3061
(dp3062
g53
(dp3063
g61
I3
ssg62
Nsg55
(lp3064
g48
(g64
g50
NtRp3065
(dp3066
g53
(dp3067
sg62
g3061
sg55
(lp3068
g48
(g69
g50
NtRp3069
(dp3070
g53
(dp3071
g73
g74
ssg62
g3065
sg55
(lp3072
g262
asbag48
(g69
g50
NtRp3073
(dp3074
g53
(dp3075
g80
g81
ssg62
g3065
sg55
(lp3076
S':'
asbag48
(g69
g50
NtRp3077
(dp3078
g53
(dp3079
sg62
g3065
sg55
(lp3080
g48
(g49
g50
NtRp3081
(dp3082
g53
(dp3083
g61
I3
ssg62
g3077
sg55
(lp3084
S''
asbasbasbag48
(g64
g50
NtRp3085
(dp3086
g53
(dp3087
sg62
g3061
sg55
(lp3088
g48
(g69
g50
NtRp3089
(dp3090
g53
(dp3091
g73
g74
ssg62
g3085
sg55
(lp3092
g283
asbag48
(g69
g50
NtRp3093
(dp3094
g53
(dp3095
g80
g81
ssg62
g3085
sg55
(lp3096
S':'
asbag48
(g69
g50
NtRp3097
(dp3098
g53
(dp3099
sg62
g3085
sg55
(lp3100
g48
(g49
g50
NtRp3101
(dp3102
g53
(dp3103
g61
I3
ssg62
g3097
sg55
(lp3104
S''
asbasbasbag48
(g64
g50
NtRp3105
(dp3106
g53
(dp3107
sg62
g3061
sg55
(lp3108
g48
(g69
g50
NtRp3109
(dp3110
g53
(dp3111
g73
g74
ssg62
g3105
sg55
(lp3112
g304
asbag48
(g69
g50
NtRp3113
(dp3114
g53
(dp3115
g80
g81
ssg62
g3105
sg55
(lp3116
S':'
asbag48
(g69
g50
NtRp3117
(dp3118
g53
(dp3119
sg62
g3105
sg55
(lp3120
g48
(g49
g50
NtRp3121
(dp3122
g53
(dp3123
g61
I3
ssg62
g3117
sg55
(lp3124
S''
asbasbasbag48
(g64
g50
NtRp3125
(dp3126
g53
(dp3127
sg62
g3061
sg55
(lp3128
g48
(g69
g50
NtRp3129
(dp3130
g53
(dp3131
g73
g74
ssg62
g3125
sg55
(lp3132
g325
asbag48
(g69
g50
NtRp3133
(dp3134
g53
(dp3135
g80
g81
ssg62
g3125
sg55
(lp3136
S':'
asbag48
(g69
g50
NtRp3137
(dp3138
g53
(dp3139
sg62
g3125
sg55
(lp3140
g48
(g49
g50
NtRp3141
(dp3142
g53
(dp3143
g61
I3
ssg62
g3137
sg55
(lp3144
S''
asbasbasbag48
(g64
g50
NtRp3145
(dp3146
g53
(dp3147
sg62
g3061
sg55
(lp3148
g48
(g69
g50
NtRp3149
(dp3150
g53
(dp3151
g73
g74
ssg62
g3145
sg55
(lp3152
g346
asbag48
(g69
g50
NtRp3153
(dp3154
g53
(dp3155
g80
g81
ssg62
g3145
sg55
(lp3156
S':'
asbag48
(g69
g50
NtRp3157
(dp3158
g53
(dp3159
sg62
g3145
sg55
(lp3160
g48
(g49
g50
NtRp3161
(dp3162
g53
(dp3163
g61
I3
ssg62
g3157
sg55
(lp3164
S'/'
asbasbasbag48
(g64
g50
NtRp3165
(dp3166
g53
(dp3167
sg62
g3061
sg55
(lp3168
g48
(g69
g50
NtRp3169
(dp3170
g53
(dp3171
g73
g74
ssg62
g3165
sg55
(lp3172
g367
asbag48
(g69
g50
NtRp3173
(dp3174
g53
(dp3175
g80
g81
ssg62
g3165
sg55
(lp3176
S':'
asbag48
(g69
g50
NtRp3177
(dp3178
g53
(dp3179
sg62
g3165
sg55
(lp3180
g48
(g49
g50
NtRp3181
(dp3182
g53
(dp3183
g61
I3
ssg62
g3177
sg55
(lp3184
S''
asbasbasbag48
(g64
g50
NtRp3185
(dp3186
g53
(dp3187
sg62
g3061
sg55
(lp3188
g48
(g69
g50
NtRp3189
(dp3190
g53
(dp3191
g73
g74
ssg62
g3185
sg55
(lp3192
g388
asbag48
(g69
g50
NtRp3193
(dp3194
g53
(dp3195
g80
g81
ssg62
g3185
sg55
(lp3196
S':'
asbag48
(g69
g50
NtRp3197
(dp3198
g53
(dp3199
sg62
g3185
sg55
(lp3200
g48
(g49
g50
NtRp3201
(dp3202
g53
(dp3203
g61
I3
ssg62
g3197
sg55
(lp3204
S''
asbasbasbasbasbasbasbasbasbasbasbag48
(g64
g50
NtRp3205
(dp3206
g53
(dp3207
sg62
g2991
sg55
(lp3208
g48
(g69
g50
NtRp3209
(dp3210
g53
(dp3211
g73
g74
ssg62
g3205
sg55
(lp3212
S'files'
p3213
asbag48
(g69
g50
NtRp3214
(dp3215
g53
(dp3216
g80
g81
ssg62
g3205
sg55
(lp3217
S':'
asbag48
(g69
g50
NtRp3218
(dp3219
g53
(dp3220
sg62
g3205
sg55
(lp3221
g48
(g49
g50
NtRp3222
(dp3223
g53
(dp3224
g61
I5
ssg62
g3218
sg55
(lp3225
g48
(g57
g50
NtRp3226
(dp3227
g53
(dp3228
g61
I4
ssg62
Nsg55
(lp3229
g48
(g64
g50
NtRp3230
(dp3231
g53
(dp3232
sg62
g3226
sg55
(lp3233
g48
(g69
g50
NtRp3234
(dp3235
g53
(dp3236
sg62
g3230
sg55
(lp3237
g48
(g49
g50
NtRp3238
(dp3239
g53
(dp3240
g61
I4
ssg62
g3234
sg55
(lp3241
S'/xcpadmin/static/js/jquery.js'
p3242
asbasbasbag48
(g64
g50
NtRp3243
(dp3244
g53
(dp3245
sg62
g3226
sg55
(lp3246
g48
(g69
g50
NtRp3247
(dp3248
g53
(dp3249
sg62
g3243
sg55
(lp3250
g48
(g49
g50
NtRp3251
(dp3252
g53
(dp3253
g61
I4
ssg62
g3247
sg55
(lp3254
S'/xcpadmin/static/css/calendar.css'
p3255
asbasbasbag48
(g64
g50
NtRp3256
(dp3257
g53
(dp3258
sg62
g3226
sg55
(lp3259
g48
(g69
g50
NtRp3260
(dp3261
g53
(dp3262
sg62
g3256
sg55
(lp3263
g48
(g49
g50
NtRp3264
(dp3265
g53
(dp3266
g61
I4
ssg62
g3260
sg55
(lp3267
S'/xcpadmin/static/js/calendar.js'
p3268
asbasbasbag48
(g64
g50
NtRp3269
(dp3270
g53
(dp3271
sg62
g3226
sg55
(lp3272
g48
(g69
g50
NtRp3273
(dp3274
g53
(dp3275
sg62
g3269
sg55
(lp3276
g48
(g49
g50
NtRp3277
(dp3278
g53
(dp3279
g61
I4
ssg62
g3273
sg55
(lp3280
S'/xcpadmin/static/js/web2py.js'
p3281
asbasbasbag48
(g64
g50
NtRp3282
(dp3283
g53
(dp3284
sg62
g3226
sg55
(lp3285
g48
(g69
g50
NtRp3286
(dp3287
g53
(dp3288
sg62
g3282
sg55
(lp3289
g48
(g49
g50
NtRp3290
(dp3291
g53
(dp3292
g61
I4
ssg62
g3286
sg55
(lp3293
S'/xcpadmin/static/css/skeleton.css'
p3294
asbasbasbag48
(g64
g50
NtRp3295
(dp3296
g53
(dp3297
sg62
g3226
sg55
(lp3298
g48
(g69
g50
NtRp3299
(dp3300
g53
(dp3301
sg62
g3295
sg55
(lp3302
g48
(g49
g50
NtRp3303
(dp3304
g53
(dp3305
g61
I4
ssg62
g3299
sg55
(lp3306
S'/xcpadmin/static/css/web2py.css'
p3307
asbasbasbag48
(g64
g50
NtRp3308
(dp3309
g53
(dp3310
sg62
g3226
sg55
(lp3311
g48
(g69
g50
NtRp3312
(dp3313
g53
(dp3314
sg62
g3308
sg55
(lp3315
g48
(g49
g50
NtRp3316
(dp3317
g53
(dp3318
g61
I4
ssg62
g3312
sg55
(lp3319
S'/xcpadmin/static/css/superfish.css'
p3320
asbasbasbag48
(g64
g50
NtRp3321
(dp3322
g53
(dp3323
sg62
g3226
sg55
(lp3324
g48
(g69
g50
NtRp3325
(dp3326
g53
(dp3327
sg62
g3321
sg55
(lp3328
g48
(g49
g50
NtRp3329
(dp3330
g53
(dp3331
g61
I4
ssg62
g3325
sg55
(lp3332
S'/xcpadmin/static/js/superfish.js'
p3333
asbasbasbasbasbasbasbag48
(g64
g50
NtRp3334
(dp3335
g53
(dp3336
sg62
g2991
sg55
(lp3337
g48
(g69
g50
NtRp3338
(dp3339
g53
(dp3340
g73
g74
ssg62
g3334
sg55
(lp3341
S'flash'
p3342
asbag48
(g69
g50
NtRp3343
(dp3344
g53
(dp3345
g80
g81
ssg62
g3334
sg55
(lp3346
S':'
asbag48
(g69
g50
NtRp3347
(dp3348
g53
(dp3349
sg62
g3334
sg55
(lp3350
g48
(g49
g50
NtRp3351
(dp3352
g53
(dp3353
g61
I5
ssg62
g3347
sg55
(lp3354
S''
asbasbasbag48
(g64
g50
NtRp3355
(dp3356
g53
(dp3357
sg62
g2991
sg55
(lp3358
g48
(g69
g50
NtRp3359
(dp3360
g53
(dp3361
g73
g74
ssg62
g3355
sg55
(lp3362
S'generic_patterns'
p3363
asbag48
(g69
g50
NtRp3364
(dp3365
g53
(dp3366
g80
g81
ssg62
g3355
sg55
(lp3367
S':'
asbag48
(g69
g50
NtRp3368
(dp3369
g53
(dp3370
sg62
g3355
sg55
(lp3371
g48
(g49
g50
NtRp3372
(dp3373
g53
(dp3374
g61
I5
ssg62
g3368
sg55
(lp3375
g48
(g57
g50
NtRp3376
(dp3377
g53
(dp3378
g61
I4
ssg62
Nsg55
(lp3379
g48
(g64
g50
NtRp3380
(dp3381
g53
(dp3382
sg62
g3376
sg55
(lp3383
g48
(g69
g50
NtRp3384
(dp3385
g53
(dp3386
sg62
g3380
sg55
(lp3387
g48
(g49
g50
NtRp3388
(dp3389
g53
(dp3390
g61
I4
ssg62
g3384
sg55
(lp3391
S'*'
asbasbasbasbasbasbasbag48
(g64
g50
NtRp3392
(dp3393
g53
(dp3394
sg62
g2991
sg55
(lp3395
g48
(g69
g50
NtRp3396
(dp3397
g53
(dp3398
g73
g74
ssg62
g3392
sg55
(lp3399
S'headers'
p3400
asbag48
(g69
g50
NtRp3401
(dp3402
g53
(dp3403
g80
g81
ssg62
g3392
sg55
(lp3404
S':'
asbag48
(g69
g50
NtRp3405
(dp3406
g53
(dp3407
sg62
g3392
sg55
(lp3408
g48
(g49
g50
NtRp3409
(dp3410
g53
(dp3411
g61
I5
ssg62
g3405
sg55
(lp3412
g48
(g57
g50
NtRp3413
(dp3414
g53
(dp3415
g61
I4
ssg62
Nsg55
(lp3416
g48
(g64
g50
NtRp3417
(dp3418
g53
(dp3419
sg62
g3413
sg55
(lp3420
g48
(g69
g50
NtRp3421
(dp3422
g53
(dp3423
g73
g74
ssg62
g3417
sg55
(lp3424
S'Cache-Control'
p3425
asbag48
(g69
g50
NtRp3426
(dp3427
g53
(dp3428
g80
g81
ssg62
g3417
sg55
(lp3429
S':'
asbag48
(g69
g50
NtRp3430
(dp3431
g53
(dp3432
sg62
g3417
sg55
(lp3433
g48
(g49
g50
NtRp3434
(dp3435
g53
(dp3436
g61
I4
ssg62
g3430
sg55
(lp3437
S'no-store, no-cache, must-revalidate, post-check=0, pre-check=0'
p3438
asbasbasbag48
(g64
g50
NtRp3439
(dp3440
g53
(dp3441
sg62
g3413
sg55
(lp3442
g48
(g69
g50
NtRp3443
(dp3444
g53
(dp3445
g73
g74
ssg62
g3439
sg55
(lp3446
S'Content-Type'
p3447
asbag48
(g69
g50
NtRp3448
(dp3449
g53
(dp3450
g80
g81
ssg62
g3439
sg55
(lp3451
S':'
asbag48
(g69
g50
NtRp3452
(dp3453
g53
(dp3454
sg62
g3439
sg55
(lp3455
g48
(g49
g50
NtRp3456
(dp3457
g53
(dp3458
g61
I4
ssg62
g3452
sg55
(lp3459
S'text/html; charset=utf-8'
p3460
asbasbasbag48
(g64
g50
NtRp3461
(dp3462
g53
(dp3463
sg62
g3413
sg55
(lp3464
g48
(g69
g50
NtRp3465
(dp3466
g53
(dp3467
g73
g74
ssg62
g3461
sg55
(lp3468
S'Expires'
p3469
asbag48
(g69
g50
NtRp3470
(dp3471
g53
(dp3472
g80
g81
ssg62
g3461
sg55
(lp3473
S':'
asbag48
(g69
g50
NtRp3474
(dp3475
g53
(dp3476
sg62
g3461
sg55
(lp3477
g48
(g49
g50
NtRp3478
(dp3479
g53
(dp3480
g61
I4
ssg62
g3474
sg55
(lp3481
S'Tue, 24 Jan 2012 14:20:09 GMT'
p3482
asbasbasbag48
(g64
g50
NtRp3483
(dp3484
g53
(dp3485
sg62
g3413
sg55
(lp3486
g48
(g69
g50
NtRp3487
(dp3488
g53
(dp3489
g73
g74
ssg62
g3483
sg55
(lp3490
S'Pragma'
p3491
asbag48
(g69
g50
NtRp3492
(dp3493
g53
(dp3494
g80
g81
ssg62
g3483
sg55
(lp3495
S':'
asbag48
(g69
g50
NtRp3496
(dp3497
g53
(dp3498
sg62
g3483
sg55
(lp3499
g48
(g49
g50
NtRp3500
(dp3501
g53
(dp3502
g61
I4
ssg62
g3496
sg55
(lp3503
S'no-cache'
p3504
asbasbasbag48
(g64
g50
NtRp3505
(dp3506
g53
(dp3507
sg62
g3413
sg55
(lp3508
g48
(g69
g50
NtRp3509
(dp3510
g53
(dp3511
g73
g74
ssg62
g3505
sg55
(lp3512
S'X-Powered-By'
p3513
asbag48
(g69
g50
NtRp3514
(dp3515
g53
(dp3516
g80
g81
ssg62
g3505
sg55
(lp3517
S':'
asbag48
(g69
g50
NtRp3518
(dp3519
g53
(dp3520
sg62
g3505
sg55
(lp3521
g48
(g49
g50
NtRp3522
(dp3523
g53
(dp3524
g61
I4
ssg62
g3518
sg55
(lp3525
S'web2py'
p3526
asbasbasbasbasbasbasbag48
(g64
g50
NtRp3527
(dp3528
g53
(dp3529
sg62
g2991
sg55
(lp3530
g48
(g69
g50
NtRp3531
(dp3532
g53
(dp3533
g73
g74
ssg62
g3527
sg55
(lp3534
S'menu'
p3535
asbag48
(g69
g50
NtRp3536
(dp3537
g53
(dp3538
g80
g81
ssg62
g3527
sg55
(lp3539
S':'
asbag48
(g69
g50
NtRp3540
(dp3541
g53
(dp3542
sg62
g3527
sg55
(lp3543
g48
(g49
g50
NtRp3544
(dp3545
g53
(dp3546
g61
I5
ssg62
g3540
sg55
(lp3547
g48
(g57
g50
NtRp3548
(dp3549
g53
(dp3550
g61
I4
ssg62
Nsg55
(lp3551
g48
(g64
g50
NtRp3552
(dp3553
g53
(dp3554
sg62
g3548
sg55
(lp3555
g48
(g69
g50
NtRp3556
(dp3557
g53
(dp3558
sg62
g3552
sg55
(lp3559
g48
(g49
g50
NtRp3560
(dp3561
g53
(dp3562
g61
I4
ssg62
g3556
sg55
(lp3563
g48
(g57
g50
NtRp3564
(dp3565
g53
(dp3566
g61
I3
ssg62
Nsg55
(lp3567
g48
(g64
g50
NtRp3568
(dp3569
g53
(dp3570
sg62
g3564
sg55
(lp3571
g48
(g69
g50
NtRp3572
(dp3573
g53
(dp3574
sg62
g3568
sg55
(lp3575
g48
(g49
g50
NtRp3576
(dp3577
g53
(dp3578
g61
I3
ssg62
g3572
sg55
(lp3579
cgluon.languages
lazyT_unpickle
p3580
(S't\x04\x00\x00\x00Home'
tRp3581
asbasbasbag48
(g64
g50
NtRp3582
(dp3583
g53
(dp3584
sg62
g3564
sg55
(lp3585
g48
(g69
g50
NtRp3586
(dp3587
g53
(dp3588
sg62
g3582
sg55
(lp3589
g48
(g49
g50
NtRp3590
(dp3591
g53
(dp3592
g61
I3
ssg62
g3586
sg55
(lp3593
g91
asbasbasbag48
(g64
g50
NtRp3594
(dp3595
g53
(dp3596
sg62
g3564
sg55
(lp3597
g48
(g69
g50
NtRp3598
(dp3599
g53
(dp3600
sg62
g3594
sg55
(lp3601
g48
(g49
g50
NtRp3602
(dp3603
g53
(dp3604
g61
I3
ssg62
g3598
sg55
(lp3605
S'/xcpadmin/default/index'
p3606
asbasbasbag48
(g64
g50
NtRp3607
(dp3608
g53
(dp3609
sg62
g3564
sg55
(lp3610
g48
(g69
g50
NtRp3611
(dp3612
g53
(dp3613
sg62
g3607
sg55
(lp3614
g48
(g49
g50
NtRp3615
(dp3616
g53
(dp3617
g61
I3
ssg62
g3611
sg55
(lp3618
g48
(g57
g50
NtRp3619
(dp3620
g53
(dp3621
g61
I2
ssg62
Nsg55
(lp3622
sbasbasbasbasbasbasbasbag48
(g64
g50
NtRp3623
(dp3624
g53
(dp3625
sg62
g3548
sg55
(lp3626
g48
(g69
g50
NtRp3627
(dp3628
g53
(dp3629
sg62
g3623
sg55
(lp3630
g48
(g49
g50
NtRp3631
(dp3632
g53
(dp3633
g61
I4
ssg62
g3627
sg55
(lp3634
g48
(g57
g50
NtRp3635
(dp3636
g53
(dp3637
g61
I3
ssg62
Nsg55
(lp3638
g48
(g64
g50
NtRp3639
(dp3640
g53
(dp3641
sg62
g3635
sg55
(lp3642
g48
(g69
g50
NtRp3643
(dp3644
g53
(dp3645
sg62
g3639
sg55
(lp3646
g48
(g49
g50
NtRp3647
(dp3648
g53
(dp3649
g61
I3
ssg62
g3643
sg55
(lp3650
g48
(cgluon.html
SPAN
p3651
g50
NtRp3652
(dp3653
g53
(dp3654
g73
S'color:yellow'
p3655
ssg62
g48
(cgluon.html
A
p3656
g50
NtRp3657
(dp3658
g53
(dp3659
S'_onclick'
p3660
S'javascript:void(0);return false;'
p3661
sS'_href'
p3662
S'#'
ssg62
g48
(cgluon.html
LI
p3663
g50
NtRp3664
(dp3665
g53
(dp3666
S'_class'
p3667
S'web2py-menu-expand'
p3668
ssg62
g48
(cgluon.html
UL
p3669
g50
NtRp3670
(dp3671
g53
(dp3672
S'mobile'
p3673
I00
sS'li_class'
p3674
g3668
sg3667
S'sf-menu'
p3675
sS'ul_class'
p3676
S'web2py-menu-vertical'
p3677
sS'li_active'
p3678
S'web2py-menu-active'
p3679
ssg62
Nsg55
(lp3680
g48
(g3663
g50
NtRp3681
(dp3682
g53
(dp3683
sg62
g3670
sg55
(lp3684
g48
(g3656
g50
NtRp3685
(dp3686
g53
(dp3687
g3662
g3606
ssg62
g3681
sg55
(lp3688
g3581
asbasbag3664
asbsg55
(lp3689
g3657
ag48
(g3669
g50
NtRp3690
(dp3691
g53
(dp3692
g3667
g3677
ssg62
g3664
sg55
(lp3693
g48
(g3663
g50
NtRp3694
(dp3695
g53
(dp3696
sg62
g3690
sg55
(lp3697
g48
(g3656
g50
NtRp3698
(dp3699
g53
(dp3700
g3662
S'/admin/default/site'
p3701
ssg62
g3694
sg55
(lp3702
g3580
(S's\x08\x00\x00\x00My Sites'
tRp3703
asbasbag48
(g3663
g50
NtRp3704
(dp3705
g53
(dp3706
g3667
g3668
ssg62
g3690
sg55
(lp3707
g48
(g3656
g50
NtRp3708
(dp3709
g53
(dp3710
g3662
S'/admin/default/design/xcpadmin'
p3711
ssg62
g3704
sg55
(lp3712
g3580
(S's\x08\x00\x00\x00This App'
tRp3713
asbag48
(g3669
g50
NtRp3714
(dp3715
g53
(dp3716
g3667
g3677
ssg62
g3704
sg55
(lp3717
g48
(g3663
g50
NtRp3718
(dp3719
g53
(dp3720
sg62
g3714
sg55
(lp3721
g48
(g3656
g50
NtRp3722
(dp3723
g53
(dp3724
g3662
S'/admin/default/edit/xcpadmin/controllers/listvm.py'
p3725
ssg62
g3718
sg55
(lp3726
g3580
(S't\x0b\x00\x00\x00Controlador'
tRp3727
asbasbag48
(g3663
g50
NtRp3728
(dp3729
g53
(dp3730
sg62
g3714
sg55
(lp3731
g48
(g3656
g50
NtRp3732
(dp3733
g53
(dp3734
g3662
S'/admin/default/edit/xcpadmin/views/listvm/index.html'
p3735
ssg62
g3728
sg55
(lp3736
g3580
(S's\x0e\x00\x00\x00Visualiza\xc3\xa7\xc3\xa3o'
tRp3737
asbasbag48
(g3663
g50
NtRp3738
(dp3739
g53
(dp3740
sg62
g3714
sg55
(lp3741
g48
(g3656
g50
NtRp3742
(dp3743
g53
(dp3744
g3662
S'/admin/default/edit/xcpadmin/views/layout.html'
p3745
ssg62
g3738
sg55
(lp3746
g3580
(S't\x06\x00\x00\x00Layout'
tRp3747
asbasbag48
(g3663
g50
NtRp3748
(dp3749
g53
(dp3750
sg62
g3714
sg55
(lp3751
g48
(g3656
g50
NtRp3752
(dp3753
g53
(dp3754
g3662
S'/admin/default/edit/xcpadmin/static/css/web2py.css'
p3755
ssg62
g3748
sg55
(lp3756
g3580
(S't\n\x00\x00\x00Stylesheet'
tRp3757
asbasbag48
(g3663
g50
NtRp3758
(dp3759
g53
(dp3760
sg62
g3714
sg55
(lp3761
g48
(g3656
g50
NtRp3762
(dp3763
g53
(dp3764
g3662
S'/admin/default/edit/xcpadmin/models/db.py'
p3765
ssg62
g3758
sg55
(lp3766
g3580
(S's\t\x00\x00\x00Modelo BD'
tRp3767
asbasbag48
(g3663
g50
NtRp3768
(dp3769
g53
(dp3770
sg62
g3714
sg55
(lp3771
g48
(g3656
g50
NtRp3772
(dp3773
g53
(dp3774
g3662
S'/admin/default/edit/xcpadmin/models/menu.py'
p3775
ssg62
g3768
sg55
(lp3776
g3580
(S's\x0e\x00\x00\x00Modelo de Menu'
tRp3777
asbasbag48
(g3663
g50
NtRp3778
(dp3779
g53
(dp3780
sg62
g3714
sg55
(lp3781
g48
(g3656
g50
NtRp3782
(dp3783
g53
(dp3784
g3662
S'/xcpadmin/appadmin/index'
p3785
ssg62
g3778
sg55
(lp3786
g3580
(S's\x0e\x00\x00\x00Banco de dados'
tRp3787
asbasbag48
(g3663
g50
NtRp3788
(dp3789
g53
(dp3790
sg62
g3714
sg55
(lp3791
g48
(g3656
g50
NtRp3792
(dp3793
g53
(dp3794
g3662
S'/admin/default/errors/xcpadmin'
p3795
ssg62
g3788
sg55
(lp3796
g3580
(S't\x06\x00\x00\x00Errors'
tRp3797
asbasbag48
(g3663
g50
NtRp3798
(dp3799
g53
(dp3800
sg62
g3714
sg55
(lp3801
g48
(g3656
g50
NtRp3802
(dp3803
g53
(dp3804
g3662
S'/admin/default/about/xcpadmin'
p3805
ssg62
g3798
sg55
(lp3806
g3580
(S't\x05\x00\x00\x00About'
tRp3807
asbasbasbasbag48
(g3663
g50
NtRp3808
(dp3809
g53
(dp3810
g3667
g3668
ssg62
g3690
sg55
(lp3811
g48
(g3656
g50
NtRp3812
(dp3813
g53
(dp3814
g3662
S'http://www.web2py.com'
p3815
ssg62
g3808
sg55
(lp3816
S'web2py.com'
p3817
asbag48
(g3669
g50
NtRp3818
(dp3819
g53
(dp3820
g3667
g3677
ssg62
g3808
sg55
(lp3821
g48
(g3663
g50
NtRp3822
(dp3823
g53
(dp3824
sg62
g3818
sg55
(lp3825
g48
(g3656
g50
NtRp3826
(dp3827
g53
(dp3828
g3662
S'http://www.web2py.com/examples/default/download'
p3829
ssg62
g3822
sg55
(lp3830
g3580
(S't\x08\x00\x00\x00Download'
tRp3831
asbasbag48
(g3663
g50
NtRp3832
(dp3833
g53
(dp3834
sg62
g3818
sg55
(lp3835
g48
(g3656
g50
NtRp3836
(dp3837
g53
(dp3838
g3662
S'http://www.web2py.com/examples/default/support'
p3839
ssg62
g3832
sg55
(lp3840
g3580
(S't\x07\x00\x00\x00Support'
tRp3841
asbasbag48
(g3663
g50
NtRp3842
(dp3843
g53
(dp3844
sg62
g3818
sg55
(lp3845
g48
(g3656
g50
NtRp3846
(dp3847
g53
(dp3848
g3662
S'http://web2py.com/demo_admin'
p3849
ssg62
g3842
sg55
(lp3850
g3580
(S't\x04\x00\x00\x00Demo'
tRp3851
asbasbag48
(g3663
g50
NtRp3852
(dp3853
g53
(dp3854
sg62
g3818
sg55
(lp3855
g48
(g3656
g50
NtRp3856
(dp3857
g53
(dp3858
g3662
S'http://web2py.com/examples/default/examples'
p3859
ssg62
g3852
sg55
(lp3860
g3580
(S's\x0e\x00\x00\x00Quick Examples'
tRp3861
asbasbag48
(g3663
g50
NtRp3862
(dp3863
g53
(dp3864
sg62
g3818
sg55
(lp3865
g48
(g3656
g50
NtRp3866
(dp3867
g53
(dp3868
g3662
S'http://web2py.com/AlterEgo'
p3869
ssg62
g3862
sg55
(lp3870
g3580
(S't\x03\x00\x00\x00FAQ'
tRp3871
asbasbag48
(g3663
g50
NtRp3872
(dp3873
g53
(dp3874
sg62
g3818
sg55
(lp3875
g48
(g3656
g50
NtRp3876
(dp3877
g53
(dp3878
g3662
S'http://www.web2py.com/examples/default/videos/'
p3879
ssg62
g3872
sg55
(lp3880
g3580
(S't\x06\x00\x00\x00Videos'
tRp3881
asbasbag48
(g3663
g50
NtRp3882
(dp3883
g53
(dp3884
sg62
g3818
sg55
(lp3885
g48
(g3656
g50
NtRp3886
(dp3887
g53
(dp3888
g3662
S'http://web2py.com/appliances'
p3889
ssg62
g3882
sg55
(lp3890
g3580
(S's\x11\x00\x00\x00Free Applications'
tRp3891
asbasbag48
(g3663
g50
NtRp3892
(dp3893
g53
(dp3894
sg62
g3818
sg55
(lp3895
g48
(g3656
g50
NtRp3896
(dp3897
g53
(dp3898
g3662
S'http://web2py.com/plugins'
p3899
ssg62
g3892
sg55
(lp3900
g3580
(S't\x07\x00\x00\x00Plugins'
tRp3901
asbasbag48
(g3663
g50
NtRp3902
(dp3903
g53
(dp3904
sg62
g3818
sg55
(lp3905
g48
(g3656
g50
NtRp3906
(dp3907
g53
(dp3908
g3662
S'http://web2py.com/layouts'
p3909
ssg62
g3902
sg55
(lp3910
g3580
(S't\x07\x00\x00\x00Layouts'
tRp3911
asbasbag48
(g3663
g50
NtRp3912
(dp3913
g53
(dp3914
sg62
g3818
sg55
(lp3915
g48
(g3656
g50
NtRp3916
(dp3917
g53
(dp3918
g3662
S'http://web2pyslices.com/'
p3919
ssg62
g3912
sg55
(lp3920
g3580
(S't\x07\x00\x00\x00Recipes'
tRp3921
asbasbag48
(g3663
g50
NtRp3922
(dp3923
g53
(dp3924
sg62
g3818
sg55
(lp3925
g48
(g3656
g50
NtRp3926
(dp3927
g53
(dp3928
g3662
S'http://web2py.com/semantic'
p3929
ssg62
g3922
sg55
(lp3930
g3580
(S't\x08\x00\x00\x00Semantic'
tRp3931
asbasbasbasbag48
(g3663
g50
NtRp3932
(dp3933
g53
(dp3934
g3667
g3668
ssg62
g3690
sg55
(lp3935
g48
(g3656
g50
NtRp3936
(dp3937
g53
(dp3938
g3662
S'http://www.web2py.com/book'
p3939
ssg62
g3932
sg55
(lp3940
g3580
(S't\r\x00\x00\x00Documentation'
tRp3941
asbag48
(g3669
g50
NtRp3942
(dp3943
g53
(dp3944
g3667
g3677
ssg62
g3932
sg55
(lp3945
g48
(g3663
g50
NtRp3946
(dp3947
g53
(dp3948
sg62
g3942
sg55
(lp3949
g48
(g3656
g50
NtRp3950
(dp3951
g53
(dp3952
g3662
S'http://www.web2py.com/book/default/chapter/00'
p3953
ssg62
g3946
sg55
(lp3954
g3580
(S't\x07\x00\x00\x00Preface'
tRp3955
asbasbag48
(g3663
g50
NtRp3956
(dp3957
g53
(dp3958
sg62
g3942
sg55
(lp3959
g48
(g3656
g50
NtRp3960
(dp3961
g53
(dp3962
g3662
S'http://www.web2py.com/book/default/chapter/01'
p3963
ssg62
g3956
sg55
(lp3964
g3580
(S't\x0c\x00\x00\x00Introduction'
tRp3965
asbasbag48
(g3663
g50
NtRp3966
(dp3967
g53
(dp3968
sg62
g3942
sg55
(lp3969
g48
(g3656
g50
NtRp3970
(dp3971
g53
(dp3972
g3662
S'http://www.web2py.com/book/default/chapter/02'
p3973
ssg62
g3966
sg55
(lp3974
g3580
(S't\x06\x00\x00\x00Python'
tRp3975
asbasbag48
(g3663
g50
NtRp3976
(dp3977
g53
(dp3978
sg62
g3942
sg55
(lp3979
g48
(g3656
g50
NtRp3980
(dp3981
g53
(dp3982
g3662
S'http://www.web2py.com/book/default/chapter/03'
p3983
ssg62
g3976
sg55
(lp3984
g3580
(S't\x08\x00\x00\x00Overview'
tRp3985
asbasbag48
(g3663
g50
NtRp3986
(dp3987
g53
(dp3988
sg62
g3942
sg55
(lp3989
g48
(g3656
g50
NtRp3990
(dp3991
g53
(dp3992
g3662
S'http://www.web2py.com/book/default/chapter/04'
p3993
ssg62
g3986
sg55
(lp3994
g3580
(S's\x08\x00\x00\x00The Core'
tRp3995
asbasbag48
(g3663
g50
NtRp3996
(dp3997
g53
(dp3998
sg62
g3942
sg55
(lp3999
g48
(g3656
g50
NtRp4000
(dp4001
g53
(dp4002
g3662
S'http://www.web2py.com/book/default/chapter/05'
p4003
ssg62
g3996
sg55
(lp4004
g3580
(S's\t\x00\x00\x00The Views'
tRp4005
asbasbag48
(g3663
g50
NtRp4006
(dp4007
g53
(dp4008
sg62
g3942
sg55
(lp4009
g48
(g3656
g50
NtRp4010
(dp4011
g53
(dp4012
g3662
S'http://www.web2py.com/book/default/chapter/06'
p4013
ssg62
g4006
sg55
(lp4014
g3580
(S's\x0e\x00\x00\x00Banco de dados'
tRp4015
asbasbag48
(g3663
g50
NtRp4016
(dp4017
g53
(dp4018
sg62
g3942
sg55
(lp4019
g48
(g3656
g50
NtRp4020
(dp4021
g53
(dp4022
g3662
S'http://www.web2py.com/book/default/chapter/07'
p4023
ssg62
g4016
sg55
(lp4024
g3580
(S's\x14\x00\x00\x00Forms and Validators'
tRp4025
asbasbag48
(g3663
g50
NtRp4026
(dp4027
g53
(dp4028
sg62
g3942
sg55
(lp4029
g48
(g3656
g50
NtRp4030
(dp4031
g53
(dp4032
g3662
S'http://www.web2py.com/book/default/chapter/08'
p4033
ssg62
g4026
sg55
(lp4034
g3580
(S's\r\x00\x00\x00Email and SMS'
tRp4035
asbasbag48
(g3663
g50
NtRp4036
(dp4037
g53
(dp4038
sg62
g3942
sg55
(lp4039
g48
(g3656
g50
NtRp4040
(dp4041
g53
(dp4042
g3662
S'http://www.web2py.com/book/default/chapter/09'
p4043
ssg62
g4036
sg55
(lp4044
g3580
(S's\x0e\x00\x00\x00Access Control'
tRp4045
asbasbag48
(g3663
g50
NtRp4046
(dp4047
g53
(dp4048
sg62
g3942
sg55
(lp4049
g48
(g3656
g50
NtRp4050
(dp4051
g53
(dp4052
g3662
S'http://www.web2py.com/book/default/chapter/10'
p4053
ssg62
g4046
sg55
(lp4054
g3580
(S't\x08\x00\x00\x00Services'
tRp4055
asbasbag48
(g3663
g50
NtRp4056
(dp4057
g53
(dp4058
sg62
g3942
sg55
(lp4059
g48
(g3656
g50
NtRp4060
(dp4061
g53
(dp4062
g3662
S'http://www.web2py.com/book/default/chapter/11'
p4063
ssg62
g4056
sg55
(lp4064
g3580
(S's\x0c\x00\x00\x00Ajax Recipes'
tRp4065
asbasbag48
(g3663
g50
NtRp4066
(dp4067
g53
(dp4068
sg62
g3942
sg55
(lp4069
g48
(g3656
g50
NtRp4070
(dp4071
g53
(dp4072
g3662
S'http://www.web2py.com/book/default/chapter/12'
p4073
ssg62
g4066
sg55
(lp4074
g3580
(S's\x16\x00\x00\x00Components and Plugins'
tRp4075
asbasbag48
(g3663
g50
NtRp4076
(dp4077
g53
(dp4078
sg62
g3942
sg55
(lp4079
g48
(g3656
g50
NtRp4080
(dp4081
g53
(dp4082
g3662
S'http://www.web2py.com/book/default/chapter/13'
p4083
ssg62
g4076
sg55
(lp4084
g3580
(S's\x12\x00\x00\x00Deployment Recipes'
tRp4085
asbasbag48
(g3663
g50
NtRp4086
(dp4087
g53
(dp4088
sg62
g3942
sg55
(lp4089
g48
(g3656
g50
NtRp4090
(dp4091
g53
(dp4092
g3662
S'http://www.web2py.com/book/default/chapter/14'
p4093
ssg62
g4086
sg55
(lp4094
g3580
(S's\r\x00\x00\x00Other Recipes'
tRp4095
asbasbag48
(g3663
g50
NtRp4096
(dp4097
g53
(dp4098
sg62
g3942
sg55
(lp4099
g48
(g3656
g50
NtRp4100
(dp4101
g53
(dp4102
g3662
S'http://stores.lulu.com/web2py'
p4103
ssg62
g4096
sg55
(lp4104
g3580
(S's\r\x00\x00\x00Buy this book'
tRp4105
asbasbasbasbag48
(g3663
g50
NtRp4106
(dp4107
g53
(dp4108
g3667
g3668
ssg62
g3690
sg55
(lp4109
g48
(g3656
g50
NtRp4110
(dp4111
g53
(dp4112
g3660
g3661
sg3662
S'#'
ssg62
g4106
sg55
(lp4113
g3580
(S't\t\x00\x00\x00Community'
tRp4114
asbag48
(g3669
g50
NtRp4115
(dp4116
g53
(dp4117
g3667
g3677
ssg62
g4106
sg55
(lp4118
g48
(g3663
g50
NtRp4119
(dp4120
g53
(dp4121
sg62
g4115
sg55
(lp4122
g48
(g3656
g50
NtRp4123
(dp4124
g53
(dp4125
g3662
S'http://www.web2py.com/examples/default/usergroups'
p4126
ssg62
g4119
sg55
(lp4127
g3580
(S't\x06\x00\x00\x00Groups'
tRp4128
asbasbag48
(g3663
g50
NtRp4129
(dp4130
g53
(dp4131
sg62
g4115
sg55
(lp4132
g48
(g3656
g50
NtRp4133
(dp4134
g53
(dp4135
g3662
S'http://twitter.com/web2py'
p4136
ssg62
g4129
sg55
(lp4137
g3580
(S't\x07\x00\x00\x00Twitter'
tRp4138
asbasbag48
(g3663
g50
NtRp4139
(dp4140
g53
(dp4141
sg62
g4115
sg55
(lp4142
g48
(g3656
g50
NtRp4143
(dp4144
g53
(dp4145
g3662
S'http://webchat.freenode.net/?channels=web2py'
p4146
ssg62
g4139
sg55
(lp4147
g3580
(S's\t\x00\x00\x00Live Chat'
tRp4148
asbasbasbasbag48
(g3663
g50
NtRp4149
(dp4150
g53
(dp4151
g3667
g3668
ssg62
g3690
sg55
(lp4152
g48
(g3656
g50
NtRp4153
(dp4154
g53
(dp4155
g3660
g3661
sg3662
S'#'
ssg62
g4149
sg55
(lp4156
g3580
(S't\x07\x00\x00\x00Plugins'
tRp4157
asbag48
(g3669
g50
NtRp4158
(dp4159
g53
(dp4160
g3667
g3677
ssg62
g4149
sg55
(lp4161
g48
(g3663
g50
NtRp4162
(dp4163
g53
(dp4164
sg62
g4158
sg55
(lp4165
g48
(g3656
g50
NtRp4166
(dp4167
g53
(dp4168
g3662
S'http://web2py.com/examples/default/download'
p4169
ssg62
g4162
sg55
(lp4170
S'plugin_wiki'
p4171
asbasbag48
(g3663
g50
NtRp4172
(dp4173
g53
(dp4174
sg62
g4158
sg55
(lp4175
g48
(g3656
g50
NtRp4176
(dp4177
g53
(dp4178
g3662
g3899
ssg62
g4172
sg55
(lp4179
g3580
(S's\r\x00\x00\x00Other Plugins'
tRp4180
asbasbag48
(g3663
g50
NtRp4181
(dp4182
g53
(dp4183
sg62
g4158
sg55
(lp4184
g48
(g3656
g50
NtRp4185
(dp4186
g53
(dp4187
g3662
g3909
ssg62
g4181
sg55
(lp4188
g3580
(S's\x0e\x00\x00\x00Layout Plugins'
tRp4189
asbasbasbasbasbasbsg55
(lp4190
g3652
asbsg55
(lp4191
g3526
asbasbasbasbag48
(g64
g50
NtRp4192
(dp4193
g53
(dp4194
sg62
g3635
sg55
(lp4195
g48
(g69
g50
NtRp4196
(dp4197
g53
(dp4198
sg62
g4192
sg55
(lp4199
g48
(g49
g50
NtRp4200
(dp4201
g53
(dp4202
g61
I3
ssg62
g4196
sg55
(lp4203
g91
asbasbasbag48
(g64
g50
NtRp4204
(dp4205
g53
(dp4206
sg62
g3635
sg55
(lp4207
g48
(g69
g50
NtRp4208
(dp4209
g53
(dp4210
sg62
g4204
sg55
(lp4211
g48
(g49
g50
NtRp4212
(dp4213
g53
(dp4214
g61
I3
ssg62
g4208
sg55
(lp4215
S'None'
p4216
asbasbasbag48
(g64
g50
NtRp4217
(dp4218
g53
(dp4219
sg62
g3635
sg55
(lp4220
g48
(g69
g50
NtRp4221
(dp4222
g53
(dp4223
sg62
g4217
sg55
(lp4224
g48
(g49
g50
NtRp4225
(dp4226
g53
(dp4227
g61
I3
ssg62
g4221
sg55
(lp4228
g48
(g57
g50
NtRp4229
(dp4230
g53
(dp4231
g61
I2
ssg62
Nsg55
(lp4232
g48
(g64
g50
NtRp4233
(dp4234
g53
(dp4235
sg62
g4229
sg55
(lp4236
g48
(g69
g50
NtRp4237
(dp4238
g53
(dp4239
sg62
g4233
sg55
(lp4240
g48
(g49
g50
NtRp4241
(dp4242
g53
(dp4243
g61
I2
ssg62
g4237
sg55
(lp4244
g48
(g57
g50
NtRp4245
(dp4246
g53
(dp4247
g61
I1
ssg62
Nsg55
(lp4248
g48
(g64
g50
NtRp4249
(dp4250
g53
(dp4251
sg62
g4245
sg55
(lp4252
g48
(g69
g50
NtRp4253
(dp4254
g53
(dp4255
sg62
g4249
sg55
(lp4256
g48
(g49
g50
NtRp4257
(dp4258
g53
(dp4259
g61
I1
ssg62
g4253
sg55
(lp4260
g3703
asbasbasbag48
(g64
g50
NtRp4261
(dp4262
g53
(dp4263
sg62
g4245
sg55
(lp4264
g48
(g69
g50
NtRp4265
(dp4266
g53
(dp4267
sg62
g4261
sg55
(lp4268
g48
(g49
g50
NtRp4269
(dp4270
g53
(dp4271
g61
I1
ssg62
g4265
sg55
(lp4272
I00
asbasbasbag48
(g64
g50
NtRp4273
(dp4274
g53
(dp4275
sg62
g4245
sg55
(lp4276
g48
(g69
g50
NtRp4277
(dp4278
g53
(dp4279
sg62
g4273
sg55
(lp4280
g48
(g49
g50
NtRp4281
(dp4282
g53
(dp4283
g61
I1
ssg62
g4277
sg55
(lp4284
g3701
asbasbasbasbasbasbasbag48
(g64
g50
NtRp4285
(dp4286
g53
(dp4287
sg62
g4229
sg55
(lp4288
g48
(g69
g50
NtRp4289
(dp4290
g53
(dp4291
sg62
g4285
sg55
(lp4292
g48
(g49
g50
NtRp4293
(dp4294
g53
(dp4295
g61
I2
ssg62
g4289
sg55
(lp4296
g48
(g57
g50
NtRp4297
(dp4298
g53
(dp4299
g61
I1
ssg62
Nsg55
(lp4300
g48
(g64
g50
NtRp4301
(dp4302
g53
(dp4303
sg62
g4297
sg55
(lp4304
g48
(g69
g50
NtRp4305
(dp4306
g53
(dp4307
sg62
g4301
sg55
(lp4308
g48
(g49
g50
NtRp4309
(dp4310
g53
(dp4311
g61
I1
ssg62
g4305
sg55
(lp4312
g3713
asbasbasbag48
(g64
g50
NtRp4313
(dp4314
g53
(dp4315
sg62
g4297
sg55
(lp4316
g48
(g69
g50
NtRp4317
(dp4318
g53
(dp4319
sg62
g4313
sg55
(lp4320
g48
(g49
g50
NtRp4321
(dp4322
g53
(dp4323
g61
I1
ssg62
g4317
sg55
(lp4324
I00
asbasbasbag48
(g64
g50
NtRp4325
(dp4326
g53
(dp4327
sg62
g4297
sg55
(lp4328
g48
(g69
g50
NtRp4329
(dp4330
g53
(dp4331
sg62
g4325
sg55
(lp4332
g48
(g49
g50
NtRp4333
(dp4334
g53
(dp4335
g61
I1
ssg62
g4329
sg55
(lp4336
g3711
asbasbasbag48
(g64
g50
NtRp4337
(dp4338
g53
(dp4339
sg62
g4297
sg55
(lp4340
g48
(g69
g50
NtRp4341
(dp4342
g53
(dp4343
sg62
g4337
sg55
(lp4344
g48
(g49
g50
NtRp4345
(dp4346
g53
(dp4347
g61
I1
ssg62
g4341
sg55
(lp4348
(lp4349
(g3727
I00
g3725
tp4350
a(g3737
I00
g3735
tp4351
a(g3747
I00
g3745
tp4352
a(g3757
I00
g3755
tp4353
a(g3767
I00
g3765
tp4354
a(g3777
I00
g3775
tp4355
a(g3787
I00
g3785
tp4356
a(g3797
I00
g3795
tp4357
a(g3807
I00
g3805
tp4358
aasbasbasbasbasbasbasbag48
(g64
g50
NtRp4359
(dp4360
g53
(dp4361
sg62
g4229
sg55
(lp4362
g48
(g69
g50
NtRp4363
(dp4364
g53
(dp4365
sg62
g4359
sg55
(lp4366
g48
(g49
g50
NtRp4367
(dp4368
g53
(dp4369
g61
I2
ssg62
g4363
sg55
(lp4370
g48
(g57
g50
NtRp4371
(dp4372
g53
(dp4373
g61
I1
ssg62
Nsg55
(lp4374
g48
(g64
g50
NtRp4375
(dp4376
g53
(dp4377
sg62
g4371
sg55
(lp4378
g48
(g69
g50
NtRp4379
(dp4380
g53
(dp4381
sg62
g4375
sg55
(lp4382
g48
(g49
g50
NtRp4383
(dp4384
g53
(dp4385
g61
I1
ssg62
g4379
sg55
(lp4386
g3817
asbasbasbag48
(g64
g50
NtRp4387
(dp4388
g53
(dp4389
sg62
g4371
sg55
(lp4390
g48
(g69
g50
NtRp4391
(dp4392
g53
(dp4393
sg62
g4387
sg55
(lp4394
g48
(g49
g50
NtRp4395
(dp4396
g53
(dp4397
g61
I1
ssg62
g4391
sg55
(lp4398
I00
asbasbasbag48
(g64
g50
NtRp4399
(dp4400
g53
(dp4401
sg62
g4371
sg55
(lp4402
g48
(g69
g50
NtRp4403
(dp4404
g53
(dp4405
sg62
g4399
sg55
(lp4406
g48
(g49
g50
NtRp4407
(dp4408
g53
(dp4409
g61
I1
ssg62
g4403
sg55
(lp4410
g3815
asbasbasbag48
(g64
g50
NtRp4411
(dp4412
g53
(dp4413
sg62
g4371
sg55
(lp4414
g48
(g69
g50
NtRp4415
(dp4416
g53
(dp4417
sg62
g4411
sg55
(lp4418
g48
(g49
g50
NtRp4419
(dp4420
g53
(dp4421
g61
I1
ssg62
g4415
sg55
(lp4422
(lp4423
(g3831
I00
g3829
tp4424
a(g3841
I00
g3839
tp4425
a(g3851
I00
g3849
tp4426
a(g3861
I00
g3859
tp4427
a(g3871
I00
g3869
tp4428
a(g3881
I00
g3879
tp4429
a(g3891
I00
g3889
tp4430
a(g3901
I00
g3899
tp4431
a(g3911
I00
g3909
tp4432
a(g3921
I00
g3919
tp4433
a(g3931
I00
g3929
tp4434
aasbasbasbasbasbasbasbag48
(g64
g50
NtRp4435
(dp4436
g53
(dp4437
sg62
g4229
sg55
(lp4438
g48
(g69
g50
NtRp4439
(dp4440
g53
(dp4441
sg62
g4435
sg55
(lp4442
g48
(g49
g50
NtRp4443
(dp4444
g53
(dp4445
g61
I2
ssg62
g4439
sg55
(lp4446
g48
(g57
g50
NtRp4447
(dp4448
g53
(dp4449
g61
I1
ssg62
Nsg55
(lp4450
g48
(g64
g50
NtRp4451
(dp4452
g53
(dp4453
sg62
g4447
sg55
(lp4454
g48
(g69
g50
NtRp4455
(dp4456
g53
(dp4457
sg62
g4451
sg55
(lp4458
g48
(g49
g50
NtRp4459
(dp4460
g53
(dp4461
g61
I1
ssg62
g4455
sg55
(lp4462
g3941
asbasbasbag48
(g64
g50
NtRp4463
(dp4464
g53
(dp4465
sg62
g4447
sg55
(lp4466
g48
(g69
g50
NtRp4467
(dp4468
g53
(dp4469
sg62
g4463
sg55
(lp4470
g48
(g49
g50
NtRp4471
(dp4472
g53
(dp4473
g61
I1
ssg62
g4467
sg55
(lp4474
I00
asbasbasbag48
(g64
g50
NtRp4475
(dp4476
g53
(dp4477
sg62
g4447
sg55
(lp4478
g48
(g69
g50
NtRp4479
(dp4480
g53
(dp4481
sg62
g4475
sg55
(lp4482
g48
(g49
g50
NtRp4483
(dp4484
g53
(dp4485
g61
I1
ssg62
g4479
sg55
(lp4486
g3939
asbasbasbag48
(g64
g50
NtRp4487
(dp4488
g53
(dp4489
sg62
g4447
sg55
(lp4490
g48
(g69
g50
NtRp4491
(dp4492
g53
(dp4493
sg62
g4487
sg55
(lp4494
g48
(g49
g50
NtRp4495
(dp4496
g53
(dp4497
g61
I1
ssg62
g4491
sg55
(lp4498
(lp4499
(g3955
I00
g3953
tp4500
a(g3965
I00
g3963
tp4501
a(g3975
I00
g3973
tp4502
a(g3985
I00
g3983
tp4503
a(g3995
I00
g3993
tp4504
a(g4005
I00
g4003
tp4505
a(g4015
I00
g4013
tp4506
a(g4025
I00
g4023
tp4507
a(g4035
I00
g4033
tp4508
a(g4045
I00
g4043
tp4509
a(g4055
I00
g4053
tp4510
a(g4065
I00
g4063
tp4511
a(g4075
I00
g4073
tp4512
a(g4085
I00
g4083
tp4513
a(g4095
I00
g4093
tp4514
a(g4105
I00
g4103
tp4515
aasbasbasbasbasbasbasbag48
(g64
g50
NtRp4516
(dp4517
g53
(dp4518
sg62
g4229
sg55
(lp4519
g48
(g69
g50
NtRp4520
(dp4521
g53
(dp4522
sg62
g4516
sg55
(lp4523
g48
(g49
g50
NtRp4524
(dp4525
g53
(dp4526
g61
I2
ssg62
g4520
sg55
(lp4527
g48
(g57
g50
NtRp4528
(dp4529
g53
(dp4530
g61
I1
ssg62
Nsg55
(lp4531
g48
(g64
g50
NtRp4532
(dp4533
g53
(dp4534
sg62
g4528
sg55
(lp4535
g48
(g69
g50
NtRp4536
(dp4537
g53
(dp4538
sg62
g4532
sg55
(lp4539
g48
(g49
g50
NtRp4540
(dp4541
g53
(dp4542
g61
I1
ssg62
g4536
sg55
(lp4543
g4114
asbasbasbag48
(g64
g50
NtRp4544
(dp4545
g53
(dp4546
sg62
g4528
sg55
(lp4547
g48
(g69
g50
NtRp4548
(dp4549
g53
(dp4550
sg62
g4544
sg55
(lp4551
g48
(g49
g50
NtRp4552
(dp4553
g53
(dp4554
g61
I1
ssg62
g4548
sg55
(lp4555
I00
asbasbasbag48
(g64
g50
NtRp4556
(dp4557
g53
(dp4558
sg62
g4528
sg55
(lp4559
g48
(g69
g50
NtRp4560
(dp4561
g53
(dp4562
sg62
g4556
sg55
(lp4563
g48
(g49
g50
NtRp4564
(dp4565
g53
(dp4566
g61
I1
ssg62
g4560
sg55
(lp4567
Nasbasbasbag48
(g64
g50
NtRp4568
(dp4569
g53
(dp4570
sg62
g4528
sg55
(lp4571
g48
(g69
g50
NtRp4572
(dp4573
g53
(dp4574
sg62
g4568
sg55
(lp4575
g48
(g49
g50
NtRp4576
(dp4577
g53
(dp4578
g61
I1
ssg62
g4572
sg55
(lp4579
(lp4580
(g4128
I00
g4126
tp4581
a(g4138
I00
g4136
tp4582
a(g4148
I00
g4146
tp4583
aasbasbasbasbasbasbasbag48
(g64
g50
NtRp4584
(dp4585
g53
(dp4586
sg62
g4229
sg55
(lp4587
g48
(g69
g50
NtRp4588
(dp4589
g53
(dp4590
sg62
g4584
sg55
(lp4591
g48
(g49
g50
NtRp4592
(dp4593
g53
(dp4594
g61
I2
ssg62
g4588
sg55
(lp4595
g48
(g57
g50
NtRp4596
(dp4597
g53
(dp4598
g61
I1
ssg62
Nsg55
(lp4599
g48
(g64
g50
NtRp4600
(dp4601
g53
(dp4602
sg62
g4596
sg55
(lp4603
g48
(g69
g50
NtRp4604
(dp4605
g53
(dp4606
sg62
g4600
sg55
(lp4607
g48
(g49
g50
NtRp4608
(dp4609
g53
(dp4610
g61
I1
ssg62
g4604
sg55
(lp4611
g4157
asbasbasbag48
(g64
g50
NtRp4612
(dp4613
g53
(dp4614
sg62
g4596
sg55
(lp4615
g48
(g69
g50
NtRp4616
(dp4617
g53
(dp4618
sg62
g4612
sg55
(lp4619
g48
(g49
g50
NtRp4620
(dp4621
g53
(dp4622
g61
I1
ssg62
g4616
sg55
(lp4623
I00
asbasbasbag48
(g64
g50
NtRp4624
(dp4625
g53
(dp4626
sg62
g4596
sg55
(lp4627
g48
(g69
g50
NtRp4628
(dp4629
g53
(dp4630
sg62
g4624
sg55
(lp4631
g48
(g49
g50
NtRp4632
(dp4633
g53
(dp4634
g61
I1
ssg62
g4628
sg55
(lp4635
Nasbasbasbag48
(g64
g50
NtRp4636
(dp4637
g53
(dp4638
sg62
g4596
sg55
(lp4639
g48
(g69
g50
NtRp4640
(dp4641
g53
(dp4642
sg62
g4636
sg55
(lp4643
g48
(g49
g50
NtRp4644
(dp4645
g53
(dp4646
g61
I1
ssg62
g4640
sg55
(lp4647
(lp4648
(g4171
I00
g4169
tp4649
a(g4180
I00
g3899
tp4650
a(g4189
I00
g3909
tp4651
aasbasbasbasbasbasbasbasbasbasbasbasbasbasbasbasbasbasbasbag48
(g64
g50
NtRp4652
(dp4653
g53
(dp4654
sg62
g2991
sg55
(lp4655
g48
(g69
g50
NtRp4656
(dp4657
g53
(dp4658
g73
g74
ssg62
g4652
sg55
(lp4659
S'meta'
p4660
asbag48
(g69
g50
NtRp4661
(dp4662
g53
(dp4663
g80
g81
ssg62
g4652
sg55
(lp4664
S':'
asbag48
(g69
g50
NtRp4665
(dp4666
g53
(dp4667
sg62
g4652
sg55
(lp4668
g48
(g49
g50
NtRp4669
(dp4670
g53
(dp4671
g61
I5
ssg62
g4665
sg55
(lp4672
g48
(g57
g50
NtRp4673
(dp4674
g53
(dp4675
g61
I4
ssg62
Nsg55
(lp4676
g48
(g64
g50
NtRp4677
(dp4678
g53
(dp4679
sg62
g4673
sg55
(lp4680
g48
(g69
g50
NtRp4681
(dp4682
g53
(dp4683
g73
g74
ssg62
g4677
sg55
(lp4684
S'author'
p4685
asbag48
(g69
g50
NtRp4686
(dp4687
g53
(dp4688
g80
g81
ssg62
g4677
sg55
(lp4689
S':'
asbag48
(g69
g50
NtRp4690
(dp4691
g53
(dp4692
sg62
g4677
sg55
(lp4693
g48
(g49
g50
NtRp4694
(dp4695
g53
(dp4696
g61
I4
ssg62
g4690
sg55
(lp4697
S'Your Name <you@example.com>'
p4698
asbasbasbag48
(g64
g50
NtRp4699
(dp4700
g53
(dp4701
sg62
g4673
sg55
(lp4702
g48
(g69
g50
NtRp4703
(dp4704
g53
(dp4705
g73
g74
ssg62
g4699
sg55
(lp4706
S'copyright'
p4707
asbag48
(g69
g50
NtRp4708
(dp4709
g53
(dp4710
g80
g81
ssg62
g4699
sg55
(lp4711
S':'
asbag48
(g69
g50
NtRp4712
(dp4713
g53
(dp4714
sg62
g4699
sg55
(lp4715
g48
(g49
g50
NtRp4716
(dp4717
g53
(dp4718
g61
I4
ssg62
g4712
sg55
(lp4719
S'Copyright 2011'
p4720
asbasbasbag48
(g64
g50
NtRp4721
(dp4722
g53
(dp4723
sg62
g4673
sg55
(lp4724
g48
(g69
g50
NtRp4725
(dp4726
g53
(dp4727
g73
g74
ssg62
g4721
sg55
(lp4728
S'description'
p4729
asbag48
(g69
g50
NtRp4730
(dp4731
g53
(dp4732
g80
g81
ssg62
g4721
sg55
(lp4733
S':'
asbag48
(g69
g50
NtRp4734
(dp4735
g53
(dp4736
sg62
g4721
sg55
(lp4737
g48
(g49
g50
NtRp4738
(dp4739
g53
(dp4740
g61
I4
ssg62
g4734
sg55
(lp4741
S'a cool new app'
p4742
asbasbasbag48
(g64
g50
NtRp4743
(dp4744
g53
(dp4745
sg62
g4673
sg55
(lp4746
g48
(g69
g50
NtRp4747
(dp4748
g53
(dp4749
g73
g74
ssg62
g4743
sg55
(lp4750
S'generator'
p4751
asbag48
(g69
g50
NtRp4752
(dp4753
g53
(dp4754
g80
g81
ssg62
g4743
sg55
(lp4755
S':'
asbag48
(g69
g50
NtRp4756
(dp4757
g53
(dp4758
sg62
g4743
sg55
(lp4759
g48
(g49
g50
NtRp4760
(dp4761
g53
(dp4762
g61
I4
ssg62
g4756
sg55
(lp4763
S'Web2py Web Framework'
p4764
asbasbasbag48
(g64
g50
NtRp4765
(dp4766
g53
(dp4767
sg62
g4673
sg55
(lp4768
g48
(g69
g50
NtRp4769
(dp4770
g53
(dp4771
g73
g74
ssg62
g4765
sg55
(lp4772
S'keywords'
p4773
asbag48
(g69
g50
NtRp4774
(dp4775
g53
(dp4776
g80
g81
ssg62
g4765
sg55
(lp4777
S':'
asbag48
(g69
g50
NtRp4778
(dp4779
g53
(dp4780
sg62
g4765
sg55
(lp4781
g48
(g49
g50
NtRp4782
(dp4783
g53
(dp4784
g61
I4
ssg62
g4778
sg55
(lp4785
S'web2py, python, framework'
p4786
asbasbasbasbasbasbasbag48
(g64
g50
NtRp4787
(dp4788
g53
(dp4789
sg62
g2991
sg55
(lp4790
g48
(g69
g50
NtRp4791
(dp4792
g53
(dp4793
g73
g74
ssg62
g4787
sg55
(lp4794
S'postprocessing'
p4795
asbag48
(g69
g50
NtRp4796
(dp4797
g53
(dp4798
g80
g81
ssg62
g4787
sg55
(lp4799
S':'
asbag48
(g69
g50
NtRp4800
(dp4801
g53
(dp4802
sg62
g4787
sg55
(lp4803
g48
(g49
g50
NtRp4804
(dp4805
g53
(dp4806
g61
I5
ssg62
g4800
sg55
(lp4807
g48
(g57
g50
NtRp4808
(dp4809
g53
(dp4810
g61
I4
ssg62
Nsg55
(lp4811
sbasbasbasbag48
(g64
g50
NtRp4812
(dp4813
g53
(dp4814
sg62
g2991
sg55
(lp4815
g48
(g69
g50
NtRp4816
(dp4817
g53
(dp4818
g73
g74
ssg62
g4812
sg55
(lp4819
S'session_file'
p4820
asbag48
(g69
g50
NtRp4821
(dp4822
g53
(dp4823
g80
g81
ssg62
g4812
sg55
(lp4824
S':'
asbag48
(g69
g50
NtRp4825
(dp4826
g53
(dp4827
sg62
g4812
sg55
(lp4828
g48
(g49
g50
NtRp4829
(dp4830
g53
(dp4831
g61
I5
ssg62
g4825
sg55
(lp4832
S"<open file 'C:\\Users\\nilton\\Desktop\\scripts\\curso_de_python\\web2py\\applications\\xcpadmin\\sessions\\127.0.0.1-0cb88dcb-67b2-4748-8846-25f35503a0e7', mode 'rb+' at 0x063B6380>"
p4833
asbasbasbag48
(g64
g50
NtRp4834
(dp4835
g53
(dp4836
sg62
g2991
sg55
(lp4837
g48
(g69
g50
NtRp4838
(dp4839
g53
(dp4840
g73
g74
ssg62
g4834
sg55
(lp4841
S'session_filename'
p4842
asbag48
(g69
g50
NtRp4843
(dp4844
g53
(dp4845
g80
g81
ssg62
g4834
sg55
(lp4846
S':'
asbag48
(g69
g50
NtRp4847
(dp4848
g53
(dp4849
sg62
g4834
sg55
(lp4850
g48
(g49
g50
NtRp4851
(dp4852
g53
(dp4853
g61
I5
ssg62
g4847
sg55
(lp4854
S'C:\\Users\\nilton\\Desktop\\scripts\\curso_de_python\\web2py\\applications\\xcpadmin\\sessions\\127.0.0.1-0cb88dcb-67b2-4748-8846-25f35503a0e7'
p4855
asbasbasbag48
(g64
g50
NtRp4856
(dp4857
g53
(dp4858
sg62
g2991
sg55
(lp4859
g48
(g69
g50
NtRp4860
(dp4861
g53
(dp4862
g73
g74
ssg62
g4856
sg55
(lp4863
S'session_id'
p4864
asbag48
(g69
g50
NtRp4865
(dp4866
g53
(dp4867
g80
g81
ssg62
g4856
sg55
(lp4868
S':'
asbag48
(g69
g50
NtRp4869
(dp4870
g53
(dp4871
sg62
g4856
sg55
(lp4872
g48
(g49
g50
NtRp4873
(dp4874
g53
(dp4875
g61
I5
ssg62
g4869
sg55
(lp4876
S'127.0.0.1-0cb88dcb-67b2-4748-8846-25f35503a0e7'
p4877
asbasbasbag48
(g64
g50
NtRp4878
(dp4879
g53
(dp4880
sg62
g2991
sg55
(lp4881
g48
(g69
g50
NtRp4882
(dp4883
g53
(dp4884
g73
g74
ssg62
g4878
sg55
(lp4885
S'session_id_name'
p4886
asbag48
(g69
g50
NtRp4887
(dp4888
g53
(dp4889
g80
g81
ssg62
g4878
sg55
(lp4890
S':'
asbag48
(g69
g50
NtRp4891
(dp4892
g53
(dp4893
sg62
g4878
sg55
(lp4894
g48
(g49
g50
NtRp4895
(dp4896
g53
(dp4897
g61
I5
ssg62
g4891
sg55
(lp4898
g3048
asbasbasbag48
(g64
g50
NtRp4899
(dp4900
g53
(dp4901
sg62
g2991
sg55
(lp4902
g48
(g69
g50
NtRp4903
(dp4904
g53
(dp4905
g73
g74
ssg62
g4899
sg55
(lp4906
S'session_locked'
p4907
asbag48
(g69
g50
NtRp4908
(dp4909
g53
(dp4910
g80
g81
ssg62
g4899
sg55
(lp4911
S':'
asbag48
(g69
g50
NtRp4912
(dp4913
g53
(dp4914
sg62
g4899
sg55
(lp4915
g48
(g49
g50
NtRp4916
(dp4917
g53
(dp4918
g61
I5
ssg62
g4912
sg55
(lp4919
g1608
asbasbasbag48
(g64
g50
NtRp4920
(dp4921
g53
(dp4922
sg62
g2991
sg55
(lp4923
g48
(g69
g50
NtRp4924
(dp4925
g53
(dp4926
g73
g74
ssg62
g4920
sg55
(lp4927
S'session_new'
p4928
asbag48
(g69
g50
NtRp4929
(dp4930
g53
(dp4931
g80
g81
ssg62
g4920
sg55
(lp4932
S':'
asbag48
(g69
g50
NtRp4933
(dp4934
g53
(dp4935
sg62
g4920
sg55
(lp4936
g48
(g49
g50
NtRp4937
(dp4938
g53
(dp4939
g61
I5
ssg62
g4933
sg55
(lp4940
g91
asbasbasbag48
(g64
g50
NtRp4941
(dp4942
g53
(dp4943
sg62
g2991
sg55
(lp4944
g48
(g69
g50
NtRp4945
(dp4946
g53
(dp4947
g73
g74
ssg62
g4941
sg55
(lp4948
S'status'
p4949
asbag48
(g69
g50
NtRp4950
(dp4951
g53
(dp4952
g80
g81
ssg62
g4941
sg55
(lp4953
S':'
asbag48
(g69
g50
NtRp4954
(dp4955
g53
(dp4956
sg62
g4941
sg55
(lp4957
g48
(g49
g50
NtRp4958
(dp4959
g53
(dp4960
g61
I5
ssg62
g4954
sg55
(lp4961
S'200'
p4962
asbasbasbag48
(g64
g50
NtRp4963
(dp4964
g53
(dp4965
sg62
g2991
sg55
(lp4966
g48
(g69
g50
NtRp4967
(dp4968
g53
(dp4969
g73
g74
ssg62
g4963
sg55
(lp4970
S'subtitle'
p4971
asbag48
(g69
g50
NtRp4972
(dp4973
g53
(dp4974
g80
g81
ssg62
g4963
sg55
(lp4975
S':'
asbag48
(g69
g50
NtRp4976
(dp4977
g53
(dp4978
sg62
g4963
sg55
(lp4979
g48
(g49
g50
NtRp4980
(dp4981
g53
(dp4982
g61
I5
ssg62
g4976
sg55
(lp4983
g3580
(S's\x0f\x00\x00\x00Personalize-me!'
tRp4984
asbasbasbag48
(g64
g50
NtRp4985
(dp4986
g53
(dp4987
sg62
g2991
sg55
(lp4988
g48
(g69
g50
NtRp4989
(dp4990
g53
(dp4991
g73
g74
ssg62
g4985
sg55
(lp4992
S'title'
p4993
asbag48
(g69
g50
NtRp4994
(dp4995
g53
(dp4996
g80
g81
ssg62
g4985
sg55
(lp4997
S':'
asbag48
(g69
g50
NtRp4998
(dp4999
g53
(dp5000
sg62
g4985
sg55
(lp5001
g48
(g49
g50
NtRp5002
(dp5003
g53
(dp5004
g61
I5
ssg62
g4998
sg55
(lp5005
S'XCP ADMIN'
p5006
asbasbasbag48
(g64
g50
NtRp5007
(dp5008
g53
(dp5009
sg62
g2991
sg55
(lp5010
g48
(g69
g50
NtRp5011
(dp5012
g53
(dp5013
g73
g74
ssg62
g5007
sg55
(lp5014
g2272
asbag48
(g69
g50
NtRp5015
(dp5016
g53
(dp5017
g80
g81
ssg62
g5007
sg55
(lp5018
S':'
asbag48
(g69
g50
NtRp5019
(dp5020
g53
(dp5021
sg62
g5007
sg55
(lp5022
g48
(g49
g50
NtRp5023
(dp5024
g53
(dp5025
g61
I5
ssg62
g5019
sg55
(lp5026
g2285
asbasbasbag48
(g64
g50
NtRp5027
(dp5028
g53
(dp5029
sg62
g2991
sg55
(lp5030
g48
(g69
g50
NtRp5031
(dp5032
g53
(dp5033
g73
g74
ssg62
g5027
sg55
(lp5034
S'view'
p5035
asbag48
(g69
g50
NtRp5036
(dp5037
g53
(dp5038
g80
g81
ssg62
g5027
sg55
(lp5039
S':'
asbag48
(g69
g50
NtRp5040
(dp5041
g53
(dp5042
sg62
g5027
sg55
(lp5043
g48
(g49
g50
NtRp5044
(dp5045
g53
(dp5046
g61
I5
ssg62
g5040
sg55
(lp5047
S'listvm/index.html'
p5048
asbasbasbasbasbsS'locals'
p5049
(dp5050
S'Service'
p5051
S"<class 'gluon.tools.Service'>"
p5052
sS'OBJECT'
p5053
S"<class 'gluon.html.OBJECT'>"
p5054
sS'SQLDB'
p5055
S"<class 'gluon.dal.DAL'>"
p5056
sg2973
S'<Storage {\'_Session__hash\': "\\xab\'\\xce\\x9e\\x01\\x...wser\': {\'version\': \'9.0.1\', \'name\': \'Firefox\'}}}>'
p5057
sS'LINK'
p5058
S"<class 'gluon.html.LINK'>"
p5059
sS'BR'
p5060
S"<class 'gluon.html.BR'>"
p5061
sS'local_import'
p5062
S'<function <lambda> at 0x063860F0>'
p5063
sS'OPTGROUP'
p5064
S"<class 'gluon.html.OPTGROUP'>"
p5065
sS'vms'
p5066
S"['OpaqueRef:722b721c-93b5-7af4-1c47-228172d45012', 'OpaqueRef:452c299f-24bf-acaa-4091-18daefb54c01', 'OpaqueRef:af647471-d3d9-9ff6-1839-b7a062ed3731', 'OpaqueRef:05b77da1-c190-1b44-d521-ce662ec30786', 'OpaqueRef:9679e4cb-362d-7d53-da4d-743916c09b74', 'OpaqueRef:560a9a8e-80b2-62da-c74a-177466e90b46', 'OpaqueRef:8187ee5d-4085-6eed-fbb3-9618cc74783b', 'OpaqueRef:d79c9944-e5bd-dff2-1ed7-bda9edbb440f', 'OpaqueRef:56b6591d-38af-0ab5-0419-7d60bc7a8ea9', 'OpaqueRef:7d1f67cd-c08c-6a88-c05b-128ac07af596', 'OpaqueRef:f6ba1444-d420-ed74-7350-bbc2623c4f74', 'OpaqueRef:0edfebea-fbb1-303d-db5f-9d494bfaecb3', 'OpaqueRef:47b7c008-65e3-93f9-e035-9f4bfb222133', 'OpaqueRef:7ea4536e-8a45-c1c2-b5cc-f7b7740c6216', 'OpaqueRef:58cfc232-d419-cad3-0464-3734f532e042', 'OpaqueRef:3add3029-e520-f6b6-cf65-177cf05a3bf5', 'OpaqueRef:fa881468-48f0-b386-23ec-b58be3cea5b3', 'OpaqueRef:dc8d1df5-4c18-c6fa-e9ec-946a5a0ceca8', 'OpaqueRef:0590ced2-53a6-1337-7c82-27fb9068a13c', 'OpaqueRef:c3a8702e-7866-0ec2-d776-554c792bc481', ...]"
p5067
sS'PRE'
p5068
S"<class 'gluon.html.PRE'>"
p5069
sS'IS_INT_IN_RANGE'
p5070
S"<class 'gluon.validators.IS_INT_IN_RANGE'>"
p5071
sS'left_sidebar_enabled'
p5072
g91
sS'IS_LOWER'
p5073
S"<class 'gluon.validators.IS_LOWER'>"
p5074
sS'IS_STRONG'
p5075
S"<class 'gluon.validators.IS_STRONG'>"
p5076
sS'cache'
p5077
S'<gluon.cache.Cache object at 0x05EF9490>'
p5078
sS'IS_IN_DB'
p5079
S"<class 'gluon.validators.IS_IN_DB'>"
p5080
sS'TAG'
p5081
S'<gluon.html.__TAG__ object at 0x01EA6910>'
p5082
sS'SQLField'
p5083
S"<class 'gluon.dal.Field'>"
p5084
sS'mail'
p5085
S'<gluon.tools.Mail object at 0x05EF9B90>'
p5086
sS'BODY'
p5087
S"<class 'gluon.html.BODY'>"
p5088
sS'IS_DATE_IN_RANGE'
p5089
S"<class 'gluon.validators.IS_DATE_IN_RANGE'>"
p5090
sS'TH'
p5091
S"<class 'gluon.html.TH'>"
p5092
sS'URL'
p5093
S'<function URL at 0x01EEF870>'
p5094
sS'__file__'
p5095
S"r'C:\\Users\\nilton\\Desktop\\scripts\\curso_de_python\\web2py\\applications\\xcpadmin\\views\\listvm/index.html'"
p5096
sS'db'
p5097
S"<DAL {'auth_event': <Table {'origin': <gluon.dal...'_id': <gluon.dal.Field object at 0x05D287D0>}>}>"
p5098
sS'auth'
p5099
S'<gluon.tools.Auth object at 0x05EF91D0>'
p5100
sS'P'
S"<class 'gluon.html.P'>"
p5101
sS'TFOOT'
p5102
S"<class 'gluon.html.TFOOT'>"
p5103
sS'XHTML'
p5104
S"<class 'gluon.html.XHTML'>"
p5105
sS'ON'
p5106
g1608
sS'OL'
p5107
S"<class 'gluon.html.OL'>"
p5108
sS'TEXTAREA'
p5109
S"<class 'gluon.html.TEXTAREA'>"
p5110
sS'MENU'
p5111
S"<class 'gluon.html.MENU'>"
p5112
sS'LOAD'
p5113
S'<function LOAD at 0x0206FBB0>'
p5114
sS'CODE'
p5115
S"<class 'gluon.html.CODE'>"
p5116
sS'HTTP'
p5117
S"<class 'gluon.http.HTTP'>"
p5118
sS'HR'
p5119
S"<class 'gluon.html.HR'>"
p5120
sS'IS_DATETIME'
p5121
S"<class 'gluon.validators.IS_DATETIME'>"
p5122
sS'HEAD'
p5123
S"<class 'gluon.html.HEAD'>"
p5124
sS'LABEL'
p5125
S"<class 'gluon.html.LABEL'>"
p5126
sS'CLEANUP'
p5127
S"<class 'gluon.validators.CLEANUP'>"
p5128
sS'plugins'
p5129
S'<gluon.tools.PluginManager object at 0x0293B7B0>'
p5130
sS'SELECT'
p5131
S"<class 'gluon.html.SELECT'>"
p5132
sS'use_janrain'
p5133
S'<function use_janrain at 0x028848B0>'
p5134
sS'CENTER'
p5135
S"<class 'gluon.html.CENTER'>"
p5136
sS'prettydate'
p5137
S'<function prettydate at 0x028840B0>'
p5138
sS'Crud'
p5139
S"<class 'gluon.tools.Crud'>"
p5140
sS'Auth'
p5141
S"<class 'gluon.tools.Auth'>"
p5142
sS'__builtins__'
p5143
S"{'ArithmeticError': <type 'exceptions.ArithmeticError'>, 'AssertionError': <type 'exceptions.AssertionError'>, 'AttributeError': <type 'exceptions.AttributeError'>, 'BaseException': <type 'exceptions.BaseException'>, 'DeprecationWarning': <type 'exceptions.DeprecationWarning'>, 'EOFError': <type 'exceptions.EOFError'>, 'Ellipsis': Ellipsis, 'EnvironmentError': <type 'exceptions.EnvironmentError'>, 'Exception': <type 'exceptions.Exception'>, 'False': False, ...}"
p5144
sS'HTML'
p5145
S"<class 'gluon.html.HTML'>"
p5146
sS'SQLFORM'
p5147
S"<class 'gluon.sqlhtml.SQLFORM'>"
p5148
sS'EM'
p5149
S"<class 'gluon.html.EM'>"
p5150
sS'redirect'
p5151
S'<function redirect at 0x01B344B0>'
p5152
sS'FIELDSET'
p5153
S"<class 'gluon.html.FIELDSET'>"
p5154
sS'IS_EQUAL_TO'
p5155
S"<class 'gluon.validators.IS_EQUAL_TO'>"
p5156
sS'embed64'
p5157
S'<function embed64 at 0x01EF53B0>'
p5158
sS'IS_LIST_OF'
p5159
S"<class 'gluon.validators.IS_LIST_OF'>"
p5160
sS'INPUT'
p5161
S"<class 'gluon.html.INPUT'>"
p5162
sS'EMBED'
p5163
S"<class 'gluon.html.EMBED'>"
p5164
sS'_'
S'<function _ at 0x05E35430>'
p5165
sS'FORM'
p5166
S"<class 'gluon.html.FORM'>"
p5167
sS'H2'
p5168
S"<class 'gluon.html.H2'>"
p5169
sS'H3'
p5170
S"<class 'gluon.html.H3'>"
p5171
sS'BUTTON'
p5172
S"<class 'gluon.html.BUTTON'>"
p5173
sS'H1'
p5174
S"<class 'gluon.html.H1'>"
p5175
sS'H6'
p5176
S"<class 'gluon.html.H6'>"
p5177
sS'H4'
p5178
S"<class 'gluon.html.H4'>"
p5179
sS'H5'
p5180
S"<class 'gluon.html.H5'>"
p5181
sS'UL'
p5182
S"<class 'gluon.html.UL'>"
p5183
sS'IS_UPPER'
p5184
S"<class 'gluon.validators.IS_UPPER'>"
p5185
sS'xmlescape'
p5186
S'<function xmlescape at 0x01EEF830>'
p5187
sS'IS_TIME'
p5188
S"<class 'gluon.validators.IS_TIME'>"
p5189
sS'OPTION'
p5190
S"<class 'gluon.html.OPTION'>"
p5191
sS'TITLE'
p5192
S"<class 'gluon.html.TITLE'>"
p5193
sS'CRYPT'
p5194
S"<class 'gluon.validators.CRYPT'>"
p5195
sS'IS_EMPTY_OR'
p5196
S"<class 'gluon.validators.IS_EMPTY_OR'>"
p5197
sS'MARKMIN'
p5198
S"<class 'gluon.html.MARKMIN'>"
p5199
sS'table'
p5200
S"{'OpaqueRef:138424fa-12b7-8e35-09f0-7a693768d955': {'HVM_boot_params': {'order': 'dc'}, 'HVM_boot_policy': '', 'HVM_shadow_multiplier': 1.0, 'PCI_bus': '', 'PV_args': 'console=tty0 xencons=tty', 'PV_bootloader': 'pygrub', 'PV_bootloader_args': '', 'PV_kernel': '', 'PV_legacy_args': '', 'PV_ramdisk': '', ...}, 'OpaqueRef:372578d3-e16f-bf81-47c0-12e8507194a7': {'HVM_boot_params': {'order': 'dc'}, 'HVM_boot_policy': '', 'HVM_shadow_multiplier': 1.0, 'PCI_bus': '', 'PV_args': 'console=tty0 xencons=tty', 'PV_bootloader': 'pygrub', 'PV_bootloader_args': '', 'PV_kernel': '', 'PV_legacy_args': '', 'PV_ramdisk': '', ...}, 'OpaqueRef:58cfc232-d419-cad3-0464-3734f532e042': {'HVM_boot_params': {'order': 'dc'}, 'HVM_boot_policy': '', 'HVM_shadow_multiplier': 1.0, 'PCI_bus': '', 'PV_args': 'console=tty0 xencons=tty', 'PV_bootloader': 'pygrub', 'PV_bootloader_args': '', 'PV_kernel': '', 'PV_legacy_args': '', 'PV_ramdisk': '', ...}, 'OpaqueRef:b6282fa5-ba6b-96c7-de67-8feb77667464': {'HVM_boot_params': {'order': 'dc'}, 'HVM_boot_policy': '', 'HVM_shadow_multiplier': 1.0, 'PCI_bus': '', 'PV_args': 'console=tty0 xencons=tty', 'PV_bootloader': 'pygrub', 'PV_bootloader_args': '', 'PV_kernel': '', 'PV_legacy_args': '', 'PV_ramdisk': '', ...}, 'OpaqueRef:b63044f5-4f79-9e20-5a15-ba3452f96813': {'HVM_boot_params': {'order': 'dc'}, 'HVM_boot_policy': '', 'HVM_shadow_multiplier': 1.0, 'PCI_bus': '', 'PV_args': 'console=tty0 xencons=tty', 'PV_bootloader': 'pygrub', 'PV_bootloader_args': '', 'PV_kernel': '', 'PV_legacy_args': '', 'PV_ramdisk': '', ...}, 'OpaqueRef:ca6b788f-864c-5174-8047-0bdd15e05783': {'HVM_boot_params': {'order': 'dc'}, 'HVM_boot_policy': 'BIOS order', 'HVM_shadow_multiplier': 1.0, 'PCI_bus': '', 'PV_args': '', 'PV_bootloader': '', 'PV_bootloader_args': '', 'PV_kernel': '', 'PV_legacy_args': '', 'PV_ramdisk': '', ...}, 'OpaqueRef:ed16ec99-5676-919e-2e79-663d5ede7ca4': {'HVM_boot_params': {}, 'HVM_boot_policy': '', 'HVM_shadow_multiplier': 1.0, 'PCI_bus': '', 'PV_args': 'console=ttyS0 xencons=ttyS', 'PV_bootloader': 'pygrub', 'PV_bootloader_args': '', 'PV_kernel': '', 'PV_legacy_args': '', 'PV_ramdisk': '', ...}, 'OpaqueRef:f7d3e324-53d2-723a-c6e2-307debcd3078': {'HVM_boot_params': {'order': 'dc'}, 'HVM_boot_policy': '', 'HVM_shadow_multiplier': 1.0, 'PCI_bus': '', 'PV_args': 'console=tty0 xencons=tty', 'PV_bootloader': 'pygrub', 'PV_bootloader_args': '', 'PV_kernel': '', 'PV_legacy_args': '', 'PV_ramdisk': '', ...}}"
p5201
sS'COL'
p5202
S"<class 'gluon.html.COL'>"
p5203
sS'service'
p5204
S'<gluon.tools.Service object at 0x05D28CF0>'
p5205
sS'SCRIPT'
p5206
S"<class 'gluon.html.SCRIPT'>"
p5207
sS'is_mobile'
p5208
g91
sS'TABLE'
p5209
S"<class 'gluon.html.TABLE'>"
p5210
sS'IS_IPV4'
p5211
S"<class 'gluon.validators.IS_IPV4'>"
p5212
sS'IS_LENGTH'
p5213
S"<class 'gluon.validators.IS_LENGTH'>"
p5214
sS'XML'
p5215
S"<class 'gluon.html.XML'>"
p5216
sS'B'
S"<class 'gluon.html.B'>"
p5217
sS'IMG'
p5218
S"<class 'gluon.html.IMG'>"
p5219
sS'SQLTABLE'
p5220
S"<class 'gluon.sqlhtml.SQLTABLE'>"
p5221
sS'IS_MATCH'
p5222
S"<class 'gluon.validators.IS_MATCH'>"
p5223
sS'IS_ALPHANUMERIC'
p5224
S"<class 'gluon.validators.IS_ALPHANUMERIC'>"
p5225
sS'SPAN'
p5226
S"<class 'gluon.html.SPAN'>"
p5227
sS'IS_SLUG'
p5228
S"<class 'gluon.validators.IS_SLUG'>"
p5229
sS'BEAUTIFY'
p5230
S"<class 'gluon.html.BEAUTIFY'>"
p5231
sS'META'
p5232
S"<class 'gluon.html.META'>"
p5233
sS'IS_DATE'
p5234
S"<class 'gluon.validators.IS_DATE'>"
p5235
sS'IS_EMAIL'
p5236
S"<class 'gluon.validators.IS_EMAIL'>"
p5237
sS'IS_NOT_EMPTY'
p5238
S"<class 'gluon.validators.IS_NOT_EMPTY'>"
p5239
sS'IS_FLOAT_IN_RANGE'
p5240
S"<class 'gluon.validators.IS_FLOAT_IN_RANGE'>"
p5241
sS'TBODY'
p5242
S"<class 'gluon.html.TBODY'>"
p5243
sS'CAT'
p5244
S"<class 'gluon.html.CAT'>"
p5245
sS'Field'
p5246
S"<class 'gluon.dal.Field'>"
p5247
sS'middle_columns'
p5248
S"'sixteen'"
p5249
sS'DIV'
p5250
S"<class 'gluon.html.DIV'>"
p5251
sS'LEGEND'
p5252
S"<class 'gluon.html.LEGEND'>"
p5253
sS'COLGROUP'
p5254
S"<class 'gluon.html.COLGROUP'>"
p5255
sS'DAL'
p5256
S"<class 'gluon.dal.DAL'>"
p5257
sS'TT'
p5258
S"<class 'gluon.html.TT'>"
p5259
sS'TR'
p5260
S"<class 'gluon.html.TR'>"
p5261
sS'LI'
p5262
S"<class 'gluon.html.LI'>"
p5263
sS'right_sidebar_enabled'
p5264
g91
sS'IFRAME'
p5265
S"<class 'gluon.html.IFRAME'>"
p5266
sS'TD'
p5267
S"<class 'gluon.html.TD'>"
p5268
sS'PluginManager'
p5269
S"<class 'gluon.tools.PluginManager'>"
p5270
sS'IS_URL'
p5271
S"<class 'gluon.validators.IS_URL'>"
p5272
sS'A'
S"<class 'gluon.html.A'>"
p5273
sS'STYLE'
p5274
S"<class 'gluon.html.STYLE'>"
p5275
sS'IS_DATETIME_IN_RANGE'
p5276
S"<class 'gluon.validators.IS_DATETIME_IN_RANGE'>"
p5277
sS'IS_IMAGE'
p5278
S"<class 'gluon.validators.IS_IMAGE'>"
p5279
sS'I'
S"<class 'gluon.html.I'>"
p5280
sS'crud'
p5281
S'<gluon.tools.Crud object at 0x05D286D0>'
p5282
sS'IS_NOT_IN_DB'
p5283
S"<class 'gluon.validators.IS_NOT_IN_DB'>"
p5284
sg2986
S"<Storage {'body': <cStringIO.StringO object at 0...da> at 0x06393630>, 'view': 'listvm/index.html'}>"
p5285
sS'THEAD'
p5286
S"<class 'gluon.html.THEAD'>"
p5287
sS'IS_NULL_OR'
p5288
S"<class 'gluon.validators.IS_EMPTY_OR'>"
p5289
sg47
S"<Storage {'body': <cStringIO.StringO object at 0..._vars': <Storage {}>, 'post_vars': <Storage {}>}>"
p5290
sS'IS_EXPR'
p5291
S"<class 'gluon.validators.IS_EXPR'>"
p5292
sS'T'
S'<gluon.languages.translator object at 0x05EF93F0>'
p5293
sS'IS_IN_SET'
p5294
S"<class 'gluon.validators.IS_IN_SET'>"
p5295
sS'IS_UPLOAD_FILENAME'
p5296
S"<class 'gluon.validators.IS_UPLOAD_FILENAME'>"
p5297
sS'IS_DECIMAL_IN_RANGE'
p5298
S"<class 'gluon.validators.IS_DECIMAL_IN_RANGE'>"
p5299
sssS'traceback'
p5300
S'Traceback (most recent call last):\n  File "gluon/restricted.py", line 204, in restricted\n  File "C:\\Users\\nilton\\Desktop\\scripts\\curso_de_python\\web2py\\applications\\xcpadmin\\views\\listvm/index.html", line 76, in <module>\nKeyError: 0\n'
p5301
s.