(dp1
S'output'
p2
S"<type 'exceptions.TypeError'> string indices must be integers"
p3
sS'layer'
p4
S'C:\\Users\\nilton\\Desktop\\scripts\\curso_de_python\\web2py\\applications\\xcpadmin\\views\\listvm/index.html'
p5
sS'code'
p6
S'response.write(\'<!DOCTYPE html>\\n<!-- paulirish.com/2008/conditional-stylesheets-vs-css-hacks-answer-neither/ -->\\n<!--[if lt IE 7]><html class="ie ie6 ie-lte9 ie-lte8 ie-lte7 no-js" lang="\', escape=False)\nresponse.write(T.accepted_language or \'en\')\nresponse.write(\'"> <![endif]-->\\n<!--[if IE 7]><html class="ie ie7 ie-lte9 ie-lte8 ie-lte7 no-js" lang="\', escape=False)\nresponse.write(T.accepted_language or \'en\')\nresponse.write(\'"> <![endif]-->\\n<!--[if IE 8]><html class="ie ie8 ie-lte9 ie-lte8 no-js" lang="\', escape=False)\nresponse.write(T.accepted_language or \'en\')\nresponse.write(\'"> <![endif]-->\\n<!--[if IE 9]><html class="ie9 ie-lte9 no-js" lang="\', escape=False)\nresponse.write(T.accepted_language or \'en\')\nresponse.write(\'"> <![endif]-->\\n<!--[if (gt IE 9)|!(IE)]><!--> <html class="no-js" lang="\', escape=False)\nresponse.write(T.accepted_language or \'en\')\nresponse.write(\'"> <!--<![endif]-->\\n<head>\\n  <meta charset="utf-8" />\\n  <!-- www.phpied.com/conditional-comments-block-downloads/ -->\\n  <!-- Always force latest IE rendering engine\\n\\t   (even in intranet) & Chrome Frame\\n\\t   Remove this if you use the .htaccess -->\\n  <!--[if IE]>\\n    <meta http-equiv="X-UA-Compatible" content="IE=edge\', escape=False)\nresponse.write(not request.is_local and \',chrome=1\' or \'\')\nresponse.write(\'">\\n  <![endif]-->\\n  \\n  <title>\', escape=False)\nresponse.write(response.title or request.application)\nresponse.write(\'</title>\\n  \\n  <!-- http://dev.w3.org/html5/markup/meta.name.html -->\\n  <meta name="application-name" content="\', escape=False)\nresponse.write(request.application)\nresponse.write(\'" />\\n  \\n  <!-- Speaking of Google, don\\\'t forget to set your site up:\\n\\t   http://google.com/webmasters -->\\n  <meta name="google-site-verification" content="" />\\n\\n  <!--  Mobile Viewport Fix\\n\\t  j.mp/mobileviewport & davidbcalhoun.com/2010/viewport-metatag\\n\\t  device-width: Occupy full width of the screen in its current orientation\\n\\t  initial-scale = 1.0 retains dimensions instead of zooming out if page height > device height\\n\\t  user-scalable = yes allows the user to zoom in -->\\n  <meta name="viewport" content="width=device-width, initial-scale=1.0, user-scalable=yes">\\n  \\n  <!-- Place favicon.ico and apple-touch-icon.png in the root of your domain and delete these references -->\\n  <link rel="shortcut icon" href="\', escape=False)\nresponse.write(URL(\'static\',\'favicon.ico\'))\nresponse.write(\'" type="image/x-icon">\\n  <link rel="apple-touch-icon" href="\', escape=False)\nresponse.write(URL(\'static\',\'favicon.png\'))\nresponse.write(\'">\\n\\n  <!-- All JavaScript at the bottom, except for Modernizr which enables \\n\\t   HTML5 elements & feature detects -->\\n  <script src="\', escape=False)\nresponse.write(URL(\'static\',\'js/modernizr.custom.js\'))\nresponse.write(\'"></script>  \\n\\n  <!-- include stylesheets -->\\n  \', escape=False)\nresponse.files.append(URL(\'static\',\'css/skeleton.css\'))\nresponse.files.append(URL(\'static\',\'css/web2py.css\'))\nresponse.files.append(URL(\'static\',\'css/superfish.css\'))\nresponse.files.append(URL(\'static\',\'js/superfish.js\'))\nresponse.write(\'\\n\\n  \', escape=False)\nresponse.write(\'<script type="text/javascript"><!--\\n    // These variables are used by the web2py_ajax_init function in web2py_ajax.js (which is loaded below).\\n    var w2p_ajax_confirm_message = "\', escape=False)\nresponse.write(T(\'Are you sure you want to delete this object?\'))\nresponse.write(\'";\\n    var w2p_ajax_date_format = "\', escape=False)\nresponse.write(T(\'%Y-%m-%d\'))\nresponse.write(\'";\\n    var w2p_ajax_datetime_format = "\', escape=False)\nresponse.write(T(\'%Y-%m-%d %H:%M:%S\'))\nresponse.write(\'";\\n    //--></script>\\n\', escape=False)\nresponse.files.insert(0,URL(\'static\',\'js/jquery.js\'))\nresponse.files.insert(1,URL(\'static\',\'css/calendar.css\'))\nresponse.files.insert(2,URL(\'static\',\'js/calendar.js\'))\nresponse.files.insert(3,URL(\'static\',\'js/web2py.js\'))\nresponse.include_meta()\nresponse.include_files()\nresponse.write(\'\\n\', escape=False)\nresponse.write(\'\\n\\n  <script type="text/javascript">\\n    jQuery(function(){ jQuery(\\\'ul.sf-menu\\\').supersubs({minWidth:12,maxWidth:30,extraWidth:3}).superfish(); });\\n  </script>\\n\\n  \', escape=False)\n# using sidebars need to know what sidebar you want to use\nleft_sidebar_enabled = globals().get(\'left_sidebar_enabled\',False)\nright_sidebar_enabled = globals().get(\'right_sidebar_enabled\',False)\nmiddle_columns = {0:\'sixteen\',1:\'twelve\',2:\'eight\'}[\n(left_sidebar_enabled and 1 or 0)+(right_sidebar_enabled and 1 or 0)]\nresponse.write(\'\\n\\n  <!-- uncomment here to load jquery-ui\\n  <link rel="stylesheet" href="http://ajax.googleapis.com/ajax/libs/jqueryui/1.8.16/themes/base/jquery-ui.css" type="text/css" media="all" />\\n  <script src="http://ajax.googleapis.com/ajax/libs/jqueryui/1.8.16/jquery-ui.min.js" type="text/javascript"></script>\\n  uncomment to load jquery-ui //-->\\n</head>\\n<body>\\n  <div class="wrapper"><!-- for sticky footer -->\\n  \\n    <div class="topbar">\\n      <div class="container">    \\n        <div class="sixteen columns">\\n          <div id="navbar">\', escape=False)\nresponse.write(\'auth\' in globals() and auth.navbar(separators=(\' \',\' | \',\'\')))\nresponse.write(\'</div>\\n          \', escape=False)\nis_mobile=request.user_agent().is_mobile\nresponse.write(\'\\n          <div id="menu">\', escape=False)\nresponse.write(MENU(response.menu, _class=\'mobile-menu\' if is_mobile else \'sf-menu\',mobile=is_mobile))\nresponse.write(\'\\n          </div>\\n        </div>\\n      </div>\\n    </div><!-- topbar -->\\n    \\n    <div class="flash">\', escape=False)\nresponse.write(response.flash or \'\')\nresponse.write(\'</div>\\n    \\n    <div class="header">\\n      <div class="container">         \\n        <div class="sixteen columns">\\n          <h1 class="remove-bottom" style="margin-top: .5em;">\\n          \', escape=False)\nresponse.write(response.title or request.application)\nresponse.write(\'\\n          </h1>\\n          <h5>\', escape=False)\nresponse.write(response.subtitle or \'\')\nresponse.write(\'</h5>\\n        </div>\\n        <div class="sixteen columns">\\n          <div class="statusbar clearfix">\\n            \', escape=False)\nresponse.write(\'\\n            <div class="breadcrumbs">\', escape=False)\nresponse.write(request.function.replace(\'_\', \' \').title())\nresponse.write(\'</div>\\n            \', escape=False)\nresponse.write(\'\\n            <!-- AddToAny BEGIN -->\\n            <div style="float:right; padding-top: .25em;" class="a2a_kit a2a_default_style">\\n            <a class="a2a_dd" href="http://www.addtoany.com/share_save">Share</a></div>\\n            <script type="text/javascript" src="http://static.addtoany.com/menu/page.js"></script>\\n            <!-- AddToAny END -->\\n          </div>\\n        </div>\\n      </div>\\n    </div>\\n\\n    <div class="main">\\n      <div class="container">                 \\n        \', escape=False)\nif left_sidebar_enabled:\n    response.write(\'\\n        <div class="four columns left-sidebar">\\n          \', escape=False)\n    response.write(\'\\n          <h3>Left Sidebar</h3>\\n          <p></p>\\n          \', escape=False)\n    response.write(\'\\n        </div>\\n        \', escape=False)\n    pass\nresponse.write(\'\\n        \\n        <div class="\', escape=False)\nresponse.write(middle_columns)\nresponse.write(\' columns center">\\n          \', escape=False)\nresponse.write(\'\\n          \', escape=False)\nresponse.write(\'\\r\\n<h3>LIST VMs</h3>\\r\\n\\r\\n\\r\\n\\r\\n<table class="blahblahblah">\\r\\n<th> \', escape=False)\nT("Title")\nresponse.write(\' </th>\\r\\n<th> \', escape=False)\nT("Location")\nresponse.write(\' </th>\\r\\n\', escape=False)\nfor row in table:\n    response.write(\'\\r\\n<tr> \\r\\n<td>\', escape=False)\n    response.write(row["name_label"])\n    response.write(\' </td>\\r\\n</tr>\\r\\n\', escape=False)\n    pass\nresponse.write(\'\\r\\n</table>\\r\\n\', escape=False)\nresponse.write(\'\\n          \', escape=False)\nresponse.write(\'\\n        </div>\\n        \\n        \', escape=False)\nif right_sidebar_enabled:\n    response.write(\'\\n        <div class="four columns">\\n          \', escape=False)\n    response.write(\'\\n          <h3>Right Sidebar</h3>\\n          <p></p>\\n          \', escape=False)\n    response.write(\'\\n        </div>    \\n        \', escape=False)\n    pass\nresponse.write(\'\\n        \\n      </div><!-- container -->\\n    </div><!-- main -->\\n    \\n    <div class="push"></div>\\n  </div><!-- wrapper -->\\n\\n  <div class="footer">\\n    <div class="container">    \\n      <div class="sixteen columns">\\n        \', escape=False)\nresponse.write(\' <!-- this is default footer -->\\n        <div class="footer-content clearfix">\\n          <div class="copyright">\', escape=False)\nresponse.write(T(\'Copyright\'))\nresponse.write(\' &#169; 2011</div>\\n          <div style="float: right;">\\n            <a href="http://www.web2py.com/">\\n            <img style="padding-bottom: 0;" src="\', escape=False)\nresponse.write(URL(\'static\',\'images/poweredby.png\'))\nresponse.write(\'"/>\\n            </a>\\n          </div>\\n        </div>\\n        \', escape=False)\nresponse.write(\'\\t\\n      </div>\\n    </div><!-- container -->\\n  </div><!-- footer -->\\n  \\n  <!--[if lt IE 7 ]>\\n\\t<script src="\', escape=False)\nresponse.write(URL(\'static\',\'js/dd_belatedpng.js\'))\nresponse.write(\'"></script>\\n\\t<script> DD_belatedPNG.fix(\\\'img, .png_bg\\\'); //fix any <img> or .png_bg background-images </script>\\n\\t<![endif]-->\\n  \', escape=False)\nif response.google_analytics_id:\n    response.write(\'<script type="text/javascript"> var _gaq = _gaq || []; _gaq.push([\\\'_setAccount\\\', \\\'\', escape=False)\n    response.write(response.google_analytics_id)\n    response.write("\']); _gaq.push([\'_trackPageview\']); (function() { var ga = document.createElement(\'script\'); ga.type = \'text/javascript\'; ga.async = true; ga.src = (\'https:\' == document.location.protocol ? \'https://ssl\' : \'http://www\') + \'.google-analytics.com/ga.js\'; var s = document.getElementsByTagName(\'script\')[0]; s.parentNode.insertBefore(ga, s); })(); </script> ", escape=False)\n    pass\nresponse.write(\'\\n</body>\\n</html>\\n\', escape=False)'
p7
sS'snapshot'
p8
(dp9
S'exception'
p10
(dp11
S'__hash__'
p12
S"<method-wrapper '__hash__' of exceptions.TypeError object at 0x06102698>"
p13
sS'__setattr__'
p14
S"<method-wrapper '__setattr__' of exceptions.TypeError object at 0x06102698>"
p15
sS'__reduce_ex__'
p16
S'<built-in method __reduce_ex__ of exceptions.TypeError object at 0x06102698>'
p17
sS'__getslice__'
p18
S"<method-wrapper '__getslice__' of exceptions.TypeError object at 0x06102698>"
p19
sS'__getitem__'
p20
S"<method-wrapper '__getitem__' of exceptions.TypeError object at 0x06102698>"
p21
sS'__setstate__'
p22
S'<built-in method __setstate__ of exceptions.TypeError object at 0x06102698>'
p23
sS'__reduce__'
p24
S'<built-in method __reduce__ of exceptions.TypeError object at 0x06102698>'
p25
sS'__str__'
p26
S"<method-wrapper '__str__' of exceptions.TypeError object at 0x06102698>"
p27
sS'args'
p28
S"('string indices must be integers',)"
p29
sS'__getattribute__'
p30
S"<method-wrapper '__getattribute__' of exceptions.TypeError object at 0x06102698>"
p31
sS'__class__'
p32
S"<type 'exceptions.TypeError'>"
p33
sS'__delattr__'
p34
S"<method-wrapper '__delattr__' of exceptions.TypeError object at 0x06102698>"
p35
sS'__repr__'
p36
S"<method-wrapper '__repr__' of exceptions.TypeError object at 0x06102698>"
p37
sS'__dict__'
p38
S'{}'
p39
sS'__doc__'
p40
S"'Inappropriate argument type.'"
p41
sS'__init__'
p42
S"<method-wrapper '__init__' of exceptions.TypeError object at 0x06102698>"
p43
sS'__new__'
p44
S'<built-in method __new__ of type object at 0x1E1CCD78>'
p45
ssS'evalue'
p46
S'string indices must be integers'
p47
sS'request'
p48
ccopy_reg
_reconstructor
p49
(cgluon.html
BEAUTIFY
p50
c__builtin__
object
p51
NtRp52
(dp53
S'attributes'
p54
(dp55
sS'components'
p56
(lp57
g49
(cgluon.html
TABLE
p58
g51
NtRp59
(dp60
g54
(dp61
S'level'
p62
I5
ssS'parent'
p63
Nsg56
(lp64
g49
(cgluon.html
TR
p65
g51
NtRp66
(dp67
g54
(dp68
sg63
g59
sg56
(lp69
g49
(cgluon.html
TD
p70
g51
NtRp71
(dp72
g54
(dp73
S'_style'
p74
S'font-weight:bold;vertical-align:top'
p75
ssg63
g66
sg56
(lp76
S'ajax'
p77
asbag49
(g70
g51
NtRp78
(dp79
g54
(dp80
S'_valign'
p81
S'top'
p82
ssg63
g66
sg56
(lp83
S':'
asbag49
(g70
g51
NtRp84
(dp85
g54
(dp86
sg63
g66
sg56
(lp87
g49
(g50
g51
NtRp88
(dp89
g54
(dp90
g62
I5
ssg63
g84
sg56
(lp91
S'False'
p92
asbasbasbag49
(g65
g51
NtRp93
(dp94
g54
(dp95
sg63
g59
sg56
(lp96
g49
(g70
g51
NtRp97
(dp98
g54
(dp99
g74
g75
ssg63
g93
sg56
(lp100
S'application'
p101
asbag49
(g70
g51
NtRp102
(dp103
g54
(dp104
g81
g82
ssg63
g93
sg56
(lp105
S':'
asbag49
(g70
g51
NtRp106
(dp107
g54
(dp108
sg63
g93
sg56
(lp109
g49
(g50
g51
NtRp110
(dp111
g54
(dp112
g62
I5
ssg63
g106
sg56
(lp113
S'xcpadmin'
p114
asbasbasbag49
(g65
g51
NtRp115
(dp116
g54
(dp117
sg63
g59
sg56
(lp118
g49
(g70
g51
NtRp119
(dp120
g54
(dp121
g74
g75
ssg63
g115
sg56
(lp122
g28
asbag49
(g70
g51
NtRp123
(dp124
g54
(dp125
g81
g82
ssg63
g115
sg56
(lp126
S':'
asbag49
(g70
g51
NtRp127
(dp128
g54
(dp129
sg63
g115
sg56
(lp130
g49
(g50
g51
NtRp131
(dp132
g54
(dp133
g62
I5
ssg63
g127
sg56
(lp134
g49
(g58
g51
NtRp135
(dp136
g54
(dp137
g62
I4
ssg63
Nsg56
(lp138
sbasbasbasbag49
(g65
g51
NtRp139
(dp140
g54
(dp141
sg63
g59
sg56
(lp142
g49
(g70
g51
NtRp143
(dp144
g54
(dp145
g74
g75
ssg63
g139
sg56
(lp146
S'body'
p147
asbag49
(g70
g51
NtRp148
(dp149
g54
(dp150
g81
g82
ssg63
g139
sg56
(lp151
S':'
asbag49
(g70
g51
NtRp152
(dp153
g54
(dp154
sg63
g139
sg56
(lp155
g49
(g50
g51
NtRp156
(dp157
g54
(dp158
g62
I5
ssg63
g152
sg56
(lp159
S'<cStringIO.StringO object at 0x05B906C0>'
p160
asbasbasbag49
(g65
g51
NtRp161
(dp162
g54
(dp163
sg63
g59
sg56
(lp164
g49
(g70
g51
NtRp165
(dp166
g54
(dp167
g74
g75
ssg63
g161
sg56
(lp168
S'client'
p169
asbag49
(g70
g51
NtRp170
(dp171
g54
(dp172
g81
g82
ssg63
g161
sg56
(lp173
S':'
asbag49
(g70
g51
NtRp174
(dp175
g54
(dp176
sg63
g161
sg56
(lp177
g49
(g50
g51
NtRp178
(dp179
g54
(dp180
g62
I5
ssg63
g174
sg56
(lp181
S'127.0.0.1'
p182
asbasbasbag49
(g65
g51
NtRp183
(dp184
g54
(dp185
sg63
g59
sg56
(lp186
g49
(g70
g51
NtRp187
(dp188
g54
(dp189
g74
g75
ssg63
g183
sg56
(lp190
S'controller'
p191
asbag49
(g70
g51
NtRp192
(dp193
g54
(dp194
g81
g82
ssg63
g183
sg56
(lp195
S':'
asbag49
(g70
g51
NtRp196
(dp197
g54
(dp198
sg63
g183
sg56
(lp199
g49
(g50
g51
NtRp200
(dp201
g54
(dp202
g62
I5
ssg63
g196
sg56
(lp203
S'listvm'
p204
asbasbasbag49
(g65
g51
NtRp205
(dp206
g54
(dp207
sg63
g59
sg56
(lp208
g49
(g70
g51
NtRp209
(dp210
g54
(dp211
g74
g75
ssg63
g205
sg56
(lp212
S'cookies'
p213
asbag49
(g70
g51
NtRp214
(dp215
g54
(dp216
g81
g82
ssg63
g205
sg56
(lp217
S':'
asbag49
(g70
g51
NtRp218
(dp219
g54
(dp220
sg63
g205
sg56
(lp221
g49
(g50
g51
NtRp222
(dp223
g54
(dp224
g62
I5
ssg63
g218
sg56
(lp225
g49
(g58
g51
NtRp226
(dp227
g54
(dp228
g62
I4
ssg63
Nsg56
(lp229
g49
(g65
g51
NtRp230
(dp231
g54
(dp232
sg63
g226
sg56
(lp233
g49
(g70
g51
NtRp234
(dp235
g54
(dp236
g74
g75
ssg63
g230
sg56
(lp237
S'session_id_admin'
p238
asbag49
(g70
g51
NtRp239
(dp240
g54
(dp241
g81
g82
ssg63
g230
sg56
(lp242
S':'
asbag49
(g70
g51
NtRp243
(dp244
g54
(dp245
sg63
g230
sg56
(lp246
g49
(g50
g51
NtRp247
(dp248
g54
(dp249
g62
I4
ssg63
g243
sg56
(lp250
g49
(g58
g51
NtRp251
(dp252
g54
(dp253
g62
I3
ssg63
Nsg56
(lp254
g49
(g65
g51
NtRp255
(dp256
g54
(dp257
sg63
g251
sg56
(lp258
g49
(g70
g51
NtRp259
(dp260
g54
(dp261
g74
g75
ssg63
g255
sg56
(lp262
S'comment'
p263
asbag49
(g70
g51
NtRp264
(dp265
g54
(dp266
g81
g82
ssg63
g255
sg56
(lp267
S':'
asbag49
(g70
g51
NtRp268
(dp269
g54
(dp270
sg63
g255
sg56
(lp271
g49
(g50
g51
NtRp272
(dp273
g54
(dp274
g62
I3
ssg63
g268
sg56
(lp275
S''
asbasbasbag49
(g65
g51
NtRp276
(dp277
g54
(dp278
sg63
g251
sg56
(lp279
g49
(g70
g51
NtRp280
(dp281
g54
(dp282
g74
g75
ssg63
g276
sg56
(lp283
S'domain'
p284
asbag49
(g70
g51
NtRp285
(dp286
g54
(dp287
g81
g82
ssg63
g276
sg56
(lp288
S':'
asbag49
(g70
g51
NtRp289
(dp290
g54
(dp291
sg63
g276
sg56
(lp292
g49
(g50
g51
NtRp293
(dp294
g54
(dp295
g62
I3
ssg63
g289
sg56
(lp296
S''
asbasbasbag49
(g65
g51
NtRp297
(dp298
g54
(dp299
sg63
g251
sg56
(lp300
g49
(g70
g51
NtRp301
(dp302
g54
(dp303
g74
g75
ssg63
g297
sg56
(lp304
S'expires'
p305
asbag49
(g70
g51
NtRp306
(dp307
g54
(dp308
g81
g82
ssg63
g297
sg56
(lp309
S':'
asbag49
(g70
g51
NtRp310
(dp311
g54
(dp312
sg63
g297
sg56
(lp313
g49
(g50
g51
NtRp314
(dp315
g54
(dp316
g62
I3
ssg63
g310
sg56
(lp317
S''
asbasbasbag49
(g65
g51
NtRp318
(dp319
g54
(dp320
sg63
g251
sg56
(lp321
g49
(g70
g51
NtRp322
(dp323
g54
(dp324
g74
g75
ssg63
g318
sg56
(lp325
S'max-age'
p326
asbag49
(g70
g51
NtRp327
(dp328
g54
(dp329
g81
g82
ssg63
g318
sg56
(lp330
S':'
asbag49
(g70
g51
NtRp331
(dp332
g54
(dp333
sg63
g318
sg56
(lp334
g49
(g50
g51
NtRp335
(dp336
g54
(dp337
g62
I3
ssg63
g331
sg56
(lp338
S''
asbasbasbag49
(g65
g51
NtRp339
(dp340
g54
(dp341
sg63
g251
sg56
(lp342
g49
(g70
g51
NtRp343
(dp344
g54
(dp345
g74
g75
ssg63
g339
sg56
(lp346
S'path'
p347
asbag49
(g70
g51
NtRp348
(dp349
g54
(dp350
g81
g82
ssg63
g339
sg56
(lp351
S':'
asbag49
(g70
g51
NtRp352
(dp353
g54
(dp354
sg63
g339
sg56
(lp355
g49
(g50
g51
NtRp356
(dp357
g54
(dp358
g62
I3
ssg63
g352
sg56
(lp359
S''
asbasbasbag49
(g65
g51
NtRp360
(dp361
g54
(dp362
sg63
g251
sg56
(lp363
g49
(g70
g51
NtRp364
(dp365
g54
(dp366
g74
g75
ssg63
g360
sg56
(lp367
S'secure'
p368
asbag49
(g70
g51
NtRp369
(dp370
g54
(dp371
g81
g82
ssg63
g360
sg56
(lp372
S':'
asbag49
(g70
g51
NtRp373
(dp374
g54
(dp375
sg63
g360
sg56
(lp376
g49
(g50
g51
NtRp377
(dp378
g54
(dp379
g62
I3
ssg63
g373
sg56
(lp380
S''
asbasbasbag49
(g65
g51
NtRp381
(dp382
g54
(dp383
sg63
g251
sg56
(lp384
g49
(g70
g51
NtRp385
(dp386
g54
(dp387
g74
g75
ssg63
g381
sg56
(lp388
S'version'
p389
asbag49
(g70
g51
NtRp390
(dp391
g54
(dp392
g81
g82
ssg63
g381
sg56
(lp393
S':'
asbag49
(g70
g51
NtRp394
(dp395
g54
(dp396
sg63
g381
sg56
(lp397
g49
(g50
g51
NtRp398
(dp399
g54
(dp400
g62
I3
ssg63
g394
sg56
(lp401
S''
asbasbasbasbasbasbasbag49
(g65
g51
NtRp402
(dp403
g54
(dp404
sg63
g226
sg56
(lp405
g49
(g70
g51
NtRp406
(dp407
g54
(dp408
g74
g75
ssg63
g402
sg56
(lp409
S'session_id_welcome'
p410
asbag49
(g70
g51
NtRp411
(dp412
g54
(dp413
g81
g82
ssg63
g402
sg56
(lp414
S':'
asbag49
(g70
g51
NtRp415
(dp416
g54
(dp417
sg63
g402
sg56
(lp418
g49
(g50
g51
NtRp419
(dp420
g54
(dp421
g62
I4
ssg63
g415
sg56
(lp422
g49
(g58
g51
NtRp423
(dp424
g54
(dp425
g62
I3
ssg63
Nsg56
(lp426
g49
(g65
g51
NtRp427
(dp428
g54
(dp429
sg63
g423
sg56
(lp430
g49
(g70
g51
NtRp431
(dp432
g54
(dp433
g74
g75
ssg63
g427
sg56
(lp434
g263
asbag49
(g70
g51
NtRp435
(dp436
g54
(dp437
g81
g82
ssg63
g427
sg56
(lp438
S':'
asbag49
(g70
g51
NtRp439
(dp440
g54
(dp441
sg63
g427
sg56
(lp442
g49
(g50
g51
NtRp443
(dp444
g54
(dp445
g62
I3
ssg63
g439
sg56
(lp446
S''
asbasbasbag49
(g65
g51
NtRp447
(dp448
g54
(dp449
sg63
g423
sg56
(lp450
g49
(g70
g51
NtRp451
(dp452
g54
(dp453
g74
g75
ssg63
g447
sg56
(lp454
g284
asbag49
(g70
g51
NtRp455
(dp456
g54
(dp457
g81
g82
ssg63
g447
sg56
(lp458
S':'
asbag49
(g70
g51
NtRp459
(dp460
g54
(dp461
sg63
g447
sg56
(lp462
g49
(g50
g51
NtRp463
(dp464
g54
(dp465
g62
I3
ssg63
g459
sg56
(lp466
S''
asbasbasbag49
(g65
g51
NtRp467
(dp468
g54
(dp469
sg63
g423
sg56
(lp470
g49
(g70
g51
NtRp471
(dp472
g54
(dp473
g74
g75
ssg63
g467
sg56
(lp474
g305
asbag49
(g70
g51
NtRp475
(dp476
g54
(dp477
g81
g82
ssg63
g467
sg56
(lp478
S':'
asbag49
(g70
g51
NtRp479
(dp480
g54
(dp481
sg63
g467
sg56
(lp482
g49
(g50
g51
NtRp483
(dp484
g54
(dp485
g62
I3
ssg63
g479
sg56
(lp486
S''
asbasbasbag49
(g65
g51
NtRp487
(dp488
g54
(dp489
sg63
g423
sg56
(lp490
g49
(g70
g51
NtRp491
(dp492
g54
(dp493
g74
g75
ssg63
g487
sg56
(lp494
g326
asbag49
(g70
g51
NtRp495
(dp496
g54
(dp497
g81
g82
ssg63
g487
sg56
(lp498
S':'
asbag49
(g70
g51
NtRp499
(dp500
g54
(dp501
sg63
g487
sg56
(lp502
g49
(g50
g51
NtRp503
(dp504
g54
(dp505
g62
I3
ssg63
g499
sg56
(lp506
S''
asbasbasbag49
(g65
g51
NtRp507
(dp508
g54
(dp509
sg63
g423
sg56
(lp510
g49
(g70
g51
NtRp511
(dp512
g54
(dp513
g74
g75
ssg63
g507
sg56
(lp514
g347
asbag49
(g70
g51
NtRp515
(dp516
g54
(dp517
g81
g82
ssg63
g507
sg56
(lp518
S':'
asbag49
(g70
g51
NtRp519
(dp520
g54
(dp521
sg63
g507
sg56
(lp522
g49
(g50
g51
NtRp523
(dp524
g54
(dp525
g62
I3
ssg63
g519
sg56
(lp526
S''
asbasbasbag49
(g65
g51
NtRp527
(dp528
g54
(dp529
sg63
g423
sg56
(lp530
g49
(g70
g51
NtRp531
(dp532
g54
(dp533
g74
g75
ssg63
g527
sg56
(lp534
g368
asbag49
(g70
g51
NtRp535
(dp536
g54
(dp537
g81
g82
ssg63
g527
sg56
(lp538
S':'
asbag49
(g70
g51
NtRp539
(dp540
g54
(dp541
sg63
g527
sg56
(lp542
g49
(g50
g51
NtRp543
(dp544
g54
(dp545
g62
I3
ssg63
g539
sg56
(lp546
S''
asbasbasbag49
(g65
g51
NtRp547
(dp548
g54
(dp549
sg63
g423
sg56
(lp550
g49
(g70
g51
NtRp551
(dp552
g54
(dp553
g74
g75
ssg63
g547
sg56
(lp554
g389
asbag49
(g70
g51
NtRp555
(dp556
g54
(dp557
g81
g82
ssg63
g547
sg56
(lp558
S':'
asbag49
(g70
g51
NtRp559
(dp560
g54
(dp561
sg63
g547
sg56
(lp562
g49
(g50
g51
NtRp563
(dp564
g54
(dp565
g62
I3
ssg63
g559
sg56
(lp566
S''
asbasbasbasbasbasbasbag49
(g65
g51
NtRp567
(dp568
g54
(dp569
sg63
g226
sg56
(lp570
g49
(g70
g51
NtRp571
(dp572
g54
(dp573
g74
g75
ssg63
g567
sg56
(lp574
S'session_id_xcpadmin'
p575
asbag49
(g70
g51
NtRp576
(dp577
g54
(dp578
g81
g82
ssg63
g567
sg56
(lp579
S':'
asbag49
(g70
g51
NtRp580
(dp581
g54
(dp582
sg63
g567
sg56
(lp583
g49
(g50
g51
NtRp584
(dp585
g54
(dp586
g62
I4
ssg63
g580
sg56
(lp587
g49
(g58
g51
NtRp588
(dp589
g54
(dp590
g62
I3
ssg63
Nsg56
(lp591
g49
(g65
g51
NtRp592
(dp593
g54
(dp594
sg63
g588
sg56
(lp595
g49
(g70
g51
NtRp596
(dp597
g54
(dp598
g74
g75
ssg63
g592
sg56
(lp599
g263
asbag49
(g70
g51
NtRp600
(dp601
g54
(dp602
g81
g82
ssg63
g592
sg56
(lp603
S':'
asbag49
(g70
g51
NtRp604
(dp605
g54
(dp606
sg63
g592
sg56
(lp607
g49
(g50
g51
NtRp608
(dp609
g54
(dp610
g62
I3
ssg63
g604
sg56
(lp611
S''
asbasbasbag49
(g65
g51
NtRp612
(dp613
g54
(dp614
sg63
g588
sg56
(lp615
g49
(g70
g51
NtRp616
(dp617
g54
(dp618
g74
g75
ssg63
g612
sg56
(lp619
g284
asbag49
(g70
g51
NtRp620
(dp621
g54
(dp622
g81
g82
ssg63
g612
sg56
(lp623
S':'
asbag49
(g70
g51
NtRp624
(dp625
g54
(dp626
sg63
g612
sg56
(lp627
g49
(g50
g51
NtRp628
(dp629
g54
(dp630
g62
I3
ssg63
g624
sg56
(lp631
S''
asbasbasbag49
(g65
g51
NtRp632
(dp633
g54
(dp634
sg63
g588
sg56
(lp635
g49
(g70
g51
NtRp636
(dp637
g54
(dp638
g74
g75
ssg63
g632
sg56
(lp639
g305
asbag49
(g70
g51
NtRp640
(dp641
g54
(dp642
g81
g82
ssg63
g632
sg56
(lp643
S':'
asbag49
(g70
g51
NtRp644
(dp645
g54
(dp646
sg63
g632
sg56
(lp647
g49
(g50
g51
NtRp648
(dp649
g54
(dp650
g62
I3
ssg63
g644
sg56
(lp651
S''
asbasbasbag49
(g65
g51
NtRp652
(dp653
g54
(dp654
sg63
g588
sg56
(lp655
g49
(g70
g51
NtRp656
(dp657
g54
(dp658
g74
g75
ssg63
g652
sg56
(lp659
g326
asbag49
(g70
g51
NtRp660
(dp661
g54
(dp662
g81
g82
ssg63
g652
sg56
(lp663
S':'
asbag49
(g70
g51
NtRp664
(dp665
g54
(dp666
sg63
g652
sg56
(lp667
g49
(g50
g51
NtRp668
(dp669
g54
(dp670
g62
I3
ssg63
g664
sg56
(lp671
S''
asbasbasbag49
(g65
g51
NtRp672
(dp673
g54
(dp674
sg63
g588
sg56
(lp675
g49
(g70
g51
NtRp676
(dp677
g54
(dp678
g74
g75
ssg63
g672
sg56
(lp679
g347
asbag49
(g70
g51
NtRp680
(dp681
g54
(dp682
g81
g82
ssg63
g672
sg56
(lp683
S':'
asbag49
(g70
g51
NtRp684
(dp685
g54
(dp686
sg63
g672
sg56
(lp687
g49
(g50
g51
NtRp688
(dp689
g54
(dp690
g62
I3
ssg63
g684
sg56
(lp691
S''
asbasbasbag49
(g65
g51
NtRp692
(dp693
g54
(dp694
sg63
g588
sg56
(lp695
g49
(g70
g51
NtRp696
(dp697
g54
(dp698
g74
g75
ssg63
g692
sg56
(lp699
g368
asbag49
(g70
g51
NtRp700
(dp701
g54
(dp702
g81
g82
ssg63
g692
sg56
(lp703
S':'
asbag49
(g70
g51
NtRp704
(dp705
g54
(dp706
sg63
g692
sg56
(lp707
g49
(g50
g51
NtRp708
(dp709
g54
(dp710
g62
I3
ssg63
g704
sg56
(lp711
S''
asbasbasbag49
(g65
g51
NtRp712
(dp713
g54
(dp714
sg63
g588
sg56
(lp715
g49
(g70
g51
NtRp716
(dp717
g54
(dp718
g74
g75
ssg63
g712
sg56
(lp719
g389
asbag49
(g70
g51
NtRp720
(dp721
g54
(dp722
g81
g82
ssg63
g712
sg56
(lp723
S':'
asbag49
(g70
g51
NtRp724
(dp725
g54
(dp726
sg63
g712
sg56
(lp727
g49
(g50
g51
NtRp728
(dp729
g54
(dp730
g62
I3
ssg63
g724
sg56
(lp731
S''
asbasbasbasbasbasbasbasbasbasbasbag49
(g65
g51
NtRp732
(dp733
g54
(dp734
sg63
g59
sg56
(lp735
g49
(g70
g51
NtRp736
(dp737
g54
(dp738
g74
g75
ssg63
g732
sg56
(lp739
S'env'
p740
asbag49
(g70
g51
NtRp741
(dp742
g54
(dp743
g81
g82
ssg63
g732
sg56
(lp744
S':'
asbag49
(g70
g51
NtRp745
(dp746
g54
(dp747
sg63
g732
sg56
(lp748
g49
(g50
g51
NtRp749
(dp750
g54
(dp751
g62
I5
ssg63
g745
sg56
(lp752
g49
(g58
g51
NtRp753
(dp754
g54
(dp755
g62
I4
ssg63
Nsg56
(lp756
g49
(g65
g51
NtRp757
(dp758
g54
(dp759
sg63
g753
sg56
(lp760
g49
(g70
g51
NtRp761
(dp762
g54
(dp763
g74
g75
ssg63
g757
sg56
(lp764
S'app_folders'
p765
asbag49
(g70
g51
NtRp766
(dp767
g54
(dp768
g81
g82
ssg63
g757
sg56
(lp769
S':'
asbag49
(g70
g51
NtRp770
(dp771
g54
(dp772
sg63
g757
sg56
(lp773
g49
(g50
g51
NtRp774
(dp775
g54
(dp776
g62
I4
ssg63
g770
sg56
(lp777
S"set(['C:\\\\Users\\\\nilton\\\\Desktop\\\\scripts\\\\curso_de_python\\\\web2py\\\\applications\\\\admin\\\\', 'C:\\\\Users\\\\nilton\\\\Desktop\\\\scripts\\\\curso_de_python\\\\web2py\\\\applications\\\\xcpadmin\\\\', 'C:\\\\Users\\\\nilton\\\\Desktop\\\\scripts\\\\curso_de_python\\\\web2py\\\\applications\\\\welcome\\\\'])"
p778
asbasbasbag49
(g65
g51
NtRp779
(dp780
g54
(dp781
sg63
g753
sg56
(lp782
g49
(g70
g51
NtRp783
(dp784
g54
(dp785
g74
g75
ssg63
g779
sg56
(lp786
S'applications_parent'
p787
asbag49
(g70
g51
NtRp788
(dp789
g54
(dp790
g81
g82
ssg63
g779
sg56
(lp791
S':'
asbag49
(g70
g51
NtRp792
(dp793
g54
(dp794
sg63
g779
sg56
(lp795
g49
(g50
g51
NtRp796
(dp797
g54
(dp798
g62
I4
ssg63
g792
sg56
(lp799
S'C:\\Users\\nilton\\Desktop\\scripts\\curso_de_python\\web2py'
p800
asbasbasbag49
(g65
g51
NtRp801
(dp802
g54
(dp803
sg63
g753
sg56
(lp804
g49
(g70
g51
NtRp805
(dp806
g54
(dp807
g74
g75
ssg63
g801
sg56
(lp808
S'cmd_args'
p809
asbag49
(g70
g51
NtRp810
(dp811
g54
(dp812
g81
g82
ssg63
g801
sg56
(lp813
S':'
asbag49
(g70
g51
NtRp814
(dp815
g54
(dp816
sg63
g801
sg56
(lp817
g49
(g50
g51
NtRp818
(dp819
g54
(dp820
g62
I4
ssg63
g814
sg56
(lp821
g49
(g58
g51
NtRp822
(dp823
g54
(dp824
g62
I3
ssg63
Nsg56
(lp825
sbasbasbasbag49
(g65
g51
NtRp826
(dp827
g54
(dp828
sg63
g753
sg56
(lp829
g49
(g70
g51
NtRp830
(dp831
g54
(dp832
g74
g75
ssg63
g826
sg56
(lp833
S'cmd_options'
p834
asbag49
(g70
g51
NtRp835
(dp836
g54
(dp837
g81
g82
ssg63
g826
sg56
(lp838
S':'
asbag49
(g70
g51
NtRp839
(dp840
g54
(dp841
sg63
g826
sg56
(lp842
g49
(g50
g51
NtRp843
(dp844
g54
(dp845
g62
I4
ssg63
g839
sg56
(lp846
S"<Values at 0x27674b8: {'verbose': False, 'ip': '127.0.0.1', 'shutdown_timeout': 5, 'taskbar': False, 'nocron': False, 'pid_filename': 'httpserver.pid', 'maxthreads': None, 'softcron': False, 'server_name': 'nilton-NOT', 'bpython': False, 'nogui': False, 'port': 8000, 'extcron': False, 'debuglevel': 30, 'test': None, 'folder': 'C:\\\\Users\\\\nilton\\\\Desktop\\\\scripts\\\\curso_de_python\\\\web2py', 'config': '', 'import_models': False, 'winservice': '', 'shell': None, 'run': '', 'log_filename': 'httpserver.log', 'args': [''], 'socket_timeout': 1, 'ssl_ca_certificate': None, 'scheduler': None, 'profiler_filename': None, 'ssl_private_key': '', 'password': '<ask>', 'request_queue_size': 5, 'ssl_certificate': '', 'cronjob': False, 'numthreads': None, 'quiet': False, 'interfaces': None, 'minthreads': None, 'timeout': 10, 'plain': False, 'nobanner': False}>"
p847
asbasbasbag49
(g65
g51
NtRp848
(dp849
g54
(dp850
sg63
g753
sg56
(lp851
g49
(g70
g51
NtRp852
(dp853
g54
(dp854
g74
g75
ssg63
g848
sg56
(lp855
S'db_sessions'
p856
asbag49
(g70
g51
NtRp857
(dp858
g54
(dp859
g81
g82
ssg63
g848
sg56
(lp860
S':'
asbag49
(g70
g51
NtRp861
(dp862
g54
(dp863
sg63
g848
sg56
(lp864
g49
(g50
g51
NtRp865
(dp866
g54
(dp867
g62
I4
ssg63
g861
sg56
(lp868
S'set([])'
p869
asbasbasbag49
(g65
g51
NtRp870
(dp871
g54
(dp872
sg63
g753
sg56
(lp873
g49
(g70
g51
NtRp874
(dp875
g54
(dp876
g74
g75
ssg63
g870
sg56
(lp877
S'debugging'
p878
asbag49
(g70
g51
NtRp879
(dp880
g54
(dp881
g81
g82
ssg63
g870
sg56
(lp882
S':'
asbag49
(g70
g51
NtRp883
(dp884
g54
(dp885
sg63
g870
sg56
(lp886
g49
(g50
g51
NtRp887
(dp888
g54
(dp889
g62
I4
ssg63
g883
sg56
(lp890
g92
asbasbasbag49
(g65
g51
NtRp891
(dp892
g54
(dp893
sg63
g753
sg56
(lp894
g49
(g70
g51
NtRp895
(dp896
g54
(dp897
g74
g75
ssg63
g891
sg56
(lp898
S'gluon_parent'
p899
asbag49
(g70
g51
NtRp900
(dp901
g54
(dp902
g81
g82
ssg63
g891
sg56
(lp903
S':'
asbag49
(g70
g51
NtRp904
(dp905
g54
(dp906
sg63
g891
sg56
(lp907
g49
(g50
g51
NtRp908
(dp909
g54
(dp910
g62
I4
ssg63
g904
sg56
(lp911
S'C:\\Users\\nilton\\Desktop\\scripts\\curso_de_python\\web2py'
p912
asbasbasbag49
(g65
g51
NtRp913
(dp914
g54
(dp915
sg63
g753
sg56
(lp916
g49
(g70
g51
NtRp917
(dp918
g54
(dp919
g74
g75
ssg63
g913
sg56
(lp920
S'http_accept'
p921
asbag49
(g70
g51
NtRp922
(dp923
g54
(dp924
g81
g82
ssg63
g913
sg56
(lp925
S':'
asbag49
(g70
g51
NtRp926
(dp927
g54
(dp928
sg63
g913
sg56
(lp929
g49
(g50
g51
NtRp930
(dp931
g54
(dp932
g62
I4
ssg63
g926
sg56
(lp933
S'text/html,application/xhtml+xml,application/xml;q=0.9,*/*;q=0.8'
p934
asbasbasbag49
(g65
g51
NtRp935
(dp936
g54
(dp937
sg63
g753
sg56
(lp938
g49
(g70
g51
NtRp939
(dp940
g54
(dp941
g74
g75
ssg63
g935
sg56
(lp942
S'http_accept_charset'
p943
asbag49
(g70
g51
NtRp944
(dp945
g54
(dp946
g81
g82
ssg63
g935
sg56
(lp947
S':'
asbag49
(g70
g51
NtRp948
(dp949
g54
(dp950
sg63
g935
sg56
(lp951
g49
(g50
g51
NtRp952
(dp953
g54
(dp954
g62
I4
ssg63
g948
sg56
(lp955
S'ISO-8859-1,utf-8;q=0.7,*;q=0.7'
p956
asbasbasbag49
(g65
g51
NtRp957
(dp958
g54
(dp959
sg63
g753
sg56
(lp960
g49
(g70
g51
NtRp961
(dp962
g54
(dp963
g74
g75
ssg63
g957
sg56
(lp964
S'http_accept_encoding'
p965
asbag49
(g70
g51
NtRp966
(dp967
g54
(dp968
g81
g82
ssg63
g957
sg56
(lp969
S':'
asbag49
(g70
g51
NtRp970
(dp971
g54
(dp972
sg63
g957
sg56
(lp973
g49
(g50
g51
NtRp974
(dp975
g54
(dp976
g62
I4
ssg63
g970
sg56
(lp977
S'gzip, deflate'
p978
asbasbasbag49
(g65
g51
NtRp979
(dp980
g54
(dp981
sg63
g753
sg56
(lp982
g49
(g70
g51
NtRp983
(dp984
g54
(dp985
g74
g75
ssg63
g979
sg56
(lp986
S'http_accept_language'
p987
asbag49
(g70
g51
NtRp988
(dp989
g54
(dp990
g81
g82
ssg63
g979
sg56
(lp991
S':'
asbag49
(g70
g51
NtRp992
(dp993
g54
(dp994
sg63
g979
sg56
(lp995
g49
(g50
g51
NtRp996
(dp997
g54
(dp998
g62
I4
ssg63
g992
sg56
(lp999
S'pt-br,pt;q=0.8,en-us;q=0.5,en;q=0.3'
p1000
asbasbasbag49
(g65
g51
NtRp1001
(dp1002
g54
(dp1003
sg63
g753
sg56
(lp1004
g49
(g70
g51
NtRp1005
(dp1006
g54
(dp1007
g74
g75
ssg63
g1001
sg56
(lp1008
S'http_cache_control'
p1009
asbag49
(g70
g51
NtRp1010
(dp1011
g54
(dp1012
g81
g82
ssg63
g1001
sg56
(lp1013
S':'
asbag49
(g70
g51
NtRp1014
(dp1015
g54
(dp1016
sg63
g1001
sg56
(lp1017
g49
(g50
g51
NtRp1018
(dp1019
g54
(dp1020
g62
I4
ssg63
g1014
sg56
(lp1021
S'max-age=0'
p1022
asbasbasbag49
(g65
g51
NtRp1023
(dp1024
g54
(dp1025
sg63
g753
sg56
(lp1026
g49
(g70
g51
NtRp1027
(dp1028
g54
(dp1029
g74
g75
ssg63
g1023
sg56
(lp1030
S'http_connection'
p1031
asbag49
(g70
g51
NtRp1032
(dp1033
g54
(dp1034
g81
g82
ssg63
g1023
sg56
(lp1035
S':'
asbag49
(g70
g51
NtRp1036
(dp1037
g54
(dp1038
sg63
g1023
sg56
(lp1039
g49
(g50
g51
NtRp1040
(dp1041
g54
(dp1042
g62
I4
ssg63
g1036
sg56
(lp1043
S'keep-alive'
p1044
asbasbasbag49
(g65
g51
NtRp1045
(dp1046
g54
(dp1047
sg63
g753
sg56
(lp1048
g49
(g70
g51
NtRp1049
(dp1050
g54
(dp1051
g74
g75
ssg63
g1045
sg56
(lp1052
S'http_cookie'
p1053
asbag49
(g70
g51
NtRp1054
(dp1055
g54
(dp1056
g81
g82
ssg63
g1045
sg56
(lp1057
S':'
asbag49
(g70
g51
NtRp1058
(dp1059
g54
(dp1060
sg63
g1045
sg56
(lp1061
g49
(g50
g51
NtRp1062
(dp1063
g54
(dp1064
g62
I4
ssg63
g1058
sg56
(lp1065
S'session_id_welcome=127.0.0.1-e2ee4819-196b-48ee-b9a6-c158d9c6823f; session_id_xcpadmin=127.0.0.1-0cb88dcb-67b2-4748-8846-25f35503a0e7; session_id_admin=127.0.0.1-4133fdb4-b4c5-4fa8-b713-fdd8b0e34bbb'
p1066
asbasbasbag49
(g65
g51
NtRp1067
(dp1068
g54
(dp1069
sg63
g753
sg56
(lp1070
g49
(g70
g51
NtRp1071
(dp1072
g54
(dp1073
g74
g75
ssg63
g1067
sg56
(lp1074
S'http_host'
p1075
asbag49
(g70
g51
NtRp1076
(dp1077
g54
(dp1078
g81
g82
ssg63
g1067
sg56
(lp1079
S':'
asbag49
(g70
g51
NtRp1080
(dp1081
g54
(dp1082
sg63
g1067
sg56
(lp1083
g49
(g50
g51
NtRp1084
(dp1085
g54
(dp1086
g62
I4
ssg63
g1080
sg56
(lp1087
S'127.0.0.1:8000'
p1088
asbasbasbag49
(g65
g51
NtRp1089
(dp1090
g54
(dp1091
sg63
g753
sg56
(lp1092
g49
(g70
g51
NtRp1093
(dp1094
g54
(dp1095
g74
g75
ssg63
g1089
sg56
(lp1096
S'http_user_agent'
p1097
asbag49
(g70
g51
NtRp1098
(dp1099
g54
(dp1100
g81
g82
ssg63
g1089
sg56
(lp1101
S':'
asbag49
(g70
g51
NtRp1102
(dp1103
g54
(dp1104
sg63
g1089
sg56
(lp1105
g49
(g50
g51
NtRp1106
(dp1107
g54
(dp1108
g62
I4
ssg63
g1102
sg56
(lp1109
S'Mozilla/5.0 (Windows NT 6.1; rv:9.0.1) Gecko/20100101 Firefox/9.0.1'
p1110
asbasbasbag49
(g65
g51
NtRp1111
(dp1112
g54
(dp1113
sg63
g753
sg56
(lp1114
g49
(g70
g51
NtRp1115
(dp1116
g54
(dp1117
g74
g75
ssg63
g1111
sg56
(lp1118
S'is_jython'
p1119
asbag49
(g70
g51
NtRp1120
(dp1121
g54
(dp1122
g81
g82
ssg63
g1111
sg56
(lp1123
S':'
asbag49
(g70
g51
NtRp1124
(dp1125
g54
(dp1126
sg63
g1111
sg56
(lp1127
g49
(g50
g51
NtRp1128
(dp1129
g54
(dp1130
g62
I4
ssg63
g1124
sg56
(lp1131
g92
asbasbasbag49
(g65
g51
NtRp1132
(dp1133
g54
(dp1134
sg63
g753
sg56
(lp1135
g49
(g70
g51
NtRp1136
(dp1137
g54
(dp1138
g74
g75
ssg63
g1132
sg56
(lp1139
S'is_pypy'
p1140
asbag49
(g70
g51
NtRp1141
(dp1142
g54
(dp1143
g81
g82
ssg63
g1132
sg56
(lp1144
S':'
asbag49
(g70
g51
NtRp1145
(dp1146
g54
(dp1147
sg63
g1132
sg56
(lp1148
g49
(g50
g51
NtRp1149
(dp1150
g54
(dp1151
g62
I4
ssg63
g1145
sg56
(lp1152
g92
asbasbasbag49
(g65
g51
NtRp1153
(dp1154
g54
(dp1155
sg63
g753
sg56
(lp1156
g49
(g70
g51
NtRp1157
(dp1158
g54
(dp1159
g74
g75
ssg63
g1153
sg56
(lp1160
S'path_info'
p1161
asbag49
(g70
g51
NtRp1162
(dp1163
g54
(dp1164
g81
g82
ssg63
g1153
sg56
(lp1165
S':'
asbag49
(g70
g51
NtRp1166
(dp1167
g54
(dp1168
sg63
g1153
sg56
(lp1169
g49
(g50
g51
NtRp1170
(dp1171
g54
(dp1172
g62
I4
ssg63
g1166
sg56
(lp1173
S'/xcpadmin/listvm'
p1174
asbasbasbag49
(g65
g51
NtRp1175
(dp1176
g54
(dp1177
sg63
g753
sg56
(lp1178
g49
(g70
g51
NtRp1179
(dp1180
g54
(dp1181
g74
g75
ssg63
g1175
sg56
(lp1182
S'query_string'
p1183
asbag49
(g70
g51
NtRp1184
(dp1185
g54
(dp1186
g81
g82
ssg63
g1175
sg56
(lp1187
S':'
asbag49
(g70
g51
NtRp1188
(dp1189
g54
(dp1190
sg63
g1175
sg56
(lp1191
g49
(g50
g51
NtRp1192
(dp1193
g54
(dp1194
g62
I4
ssg63
g1188
sg56
(lp1195
S''
asbasbasbag49
(g65
g51
NtRp1196
(dp1197
g54
(dp1198
sg63
g753
sg56
(lp1199
g49
(g70
g51
NtRp1200
(dp1201
g54
(dp1202
g74
g75
ssg63
g1196
sg56
(lp1203
S'remote_addr'
p1204
asbag49
(g70
g51
NtRp1205
(dp1206
g54
(dp1207
g81
g82
ssg63
g1196
sg56
(lp1208
S':'
asbag49
(g70
g51
NtRp1209
(dp1210
g54
(dp1211
sg63
g1196
sg56
(lp1212
g49
(g50
g51
NtRp1213
(dp1214
g54
(dp1215
g62
I4
ssg63
g1209
sg56
(lp1216
g182
asbasbasbag49
(g65
g51
NtRp1217
(dp1218
g54
(dp1219
sg63
g753
sg56
(lp1220
g49
(g70
g51
NtRp1221
(dp1222
g54
(dp1223
g74
g75
ssg63
g1217
sg56
(lp1224
S'remote_port'
p1225
asbag49
(g70
g51
NtRp1226
(dp1227
g54
(dp1228
g81
g82
ssg63
g1217
sg56
(lp1229
S':'
asbag49
(g70
g51
NtRp1230
(dp1231
g54
(dp1232
sg63
g1217
sg56
(lp1233
g49
(g50
g51
NtRp1234
(dp1235
g54
(dp1236
g62
I4
ssg63
g1230
sg56
(lp1237
S'51077'
p1238
asbasbasbag49
(g65
g51
NtRp1239
(dp1240
g54
(dp1241
sg63
g753
sg56
(lp1242
g49
(g70
g51
NtRp1243
(dp1244
g54
(dp1245
g74
g75
ssg63
g1239
sg56
(lp1246
S'request_method'
p1247
asbag49
(g70
g51
NtRp1248
(dp1249
g54
(dp1250
g81
g82
ssg63
g1239
sg56
(lp1251
S':'
asbag49
(g70
g51
NtRp1252
(dp1253
g54
(dp1254
sg63
g1239
sg56
(lp1255
g49
(g50
g51
NtRp1256
(dp1257
g54
(dp1258
g62
I4
ssg63
g1252
sg56
(lp1259
S'GET'
p1260
asbasbasbag49
(g65
g51
NtRp1261
(dp1262
g54
(dp1263
sg63
g753
sg56
(lp1264
g49
(g70
g51
NtRp1265
(dp1266
g54
(dp1267
g74
g75
ssg63
g1261
sg56
(lp1268
S'script_name'
p1269
asbag49
(g70
g51
NtRp1270
(dp1271
g54
(dp1272
g81
g82
ssg63
g1261
sg56
(lp1273
S':'
asbag49
(g70
g51
NtRp1274
(dp1275
g54
(dp1276
sg63
g1261
sg56
(lp1277
g49
(g50
g51
NtRp1278
(dp1279
g54
(dp1280
g62
I4
ssg63
g1274
sg56
(lp1281
S''
asbasbasbag49
(g65
g51
NtRp1282
(dp1283
g54
(dp1284
sg63
g753
sg56
(lp1285
g49
(g70
g51
NtRp1286
(dp1287
g54
(dp1288
g74
g75
ssg63
g1282
sg56
(lp1289
S'server_name'
p1290
asbag49
(g70
g51
NtRp1291
(dp1292
g54
(dp1293
g81
g82
ssg63
g1282
sg56
(lp1294
S':'
asbag49
(g70
g51
NtRp1295
(dp1296
g54
(dp1297
sg63
g1282
sg56
(lp1298
g49
(g50
g51
NtRp1299
(dp1300
g54
(dp1301
g62
I4
ssg63
g1295
sg56
(lp1302
S'nilton-NOT'
p1303
asbasbasbag49
(g65
g51
NtRp1304
(dp1305
g54
(dp1306
sg63
g753
sg56
(lp1307
g49
(g70
g51
NtRp1308
(dp1309
g54
(dp1310
g74
g75
ssg63
g1304
sg56
(lp1311
S'server_port'
p1312
asbag49
(g70
g51
NtRp1313
(dp1314
g54
(dp1315
g81
g82
ssg63
g1304
sg56
(lp1316
S':'
asbag49
(g70
g51
NtRp1317
(dp1318
g54
(dp1319
sg63
g1304
sg56
(lp1320
g49
(g50
g51
NtRp1321
(dp1322
g54
(dp1323
g62
I4
ssg63
g1317
sg56
(lp1324
S'8000'
p1325
asbasbasbag49
(g65
g51
NtRp1326
(dp1327
g54
(dp1328
sg63
g753
sg56
(lp1329
g49
(g70
g51
NtRp1330
(dp1331
g54
(dp1332
g74
g75
ssg63
g1326
sg56
(lp1333
S'server_protocol'
p1334
asbag49
(g70
g51
NtRp1335
(dp1336
g54
(dp1337
g81
g82
ssg63
g1326
sg56
(lp1338
S':'
asbag49
(g70
g51
NtRp1339
(dp1340
g54
(dp1341
sg63
g1326
sg56
(lp1342
g49
(g50
g51
NtRp1343
(dp1344
g54
(dp1345
g62
I4
ssg63
g1339
sg56
(lp1346
S'HTTP/1.1'
p1347
asbasbasbag49
(g65
g51
NtRp1348
(dp1349
g54
(dp1350
sg63
g753
sg56
(lp1351
g49
(g70
g51
NtRp1352
(dp1353
g54
(dp1354
g74
g75
ssg63
g1348
sg56
(lp1355
S'server_software'
p1356
asbag49
(g70
g51
NtRp1357
(dp1358
g54
(dp1359
g81
g82
ssg63
g1348
sg56
(lp1360
S':'
asbag49
(g70
g51
NtRp1361
(dp1362
g54
(dp1363
sg63
g1348
sg56
(lp1364
g49
(g50
g51
NtRp1365
(dp1366
g54
(dp1367
g62
I4
ssg63
g1361
sg56
(lp1368
S'Rocket 1.2.4'
p1369
asbasbasbag49
(g65
g51
NtRp1370
(dp1371
g54
(dp1372
sg63
g753
sg56
(lp1373
g49
(g70
g51
NtRp1374
(dp1375
g54
(dp1376
g74
g75
ssg63
g1370
sg56
(lp1377
S'web2py_crontype'
p1378
asbag49
(g70
g51
NtRp1379
(dp1380
g54
(dp1381
g81
g82
ssg63
g1370
sg56
(lp1382
S':'
asbag49
(g70
g51
NtRp1383
(dp1384
g54
(dp1385
sg63
g1370
sg56
(lp1386
g49
(g50
g51
NtRp1387
(dp1388
g54
(dp1389
g62
I4
ssg63
g1383
sg56
(lp1390
S'hard'
p1391
asbasbasbag49
(g65
g51
NtRp1392
(dp1393
g54
(dp1394
sg63
g753
sg56
(lp1395
g49
(g70
g51
NtRp1396
(dp1397
g54
(dp1398
g74
g75
ssg63
g1392
sg56
(lp1399
S'web2py_path'
p1400
asbag49
(g70
g51
NtRp1401
(dp1402
g54
(dp1403
g81
g82
ssg63
g1392
sg56
(lp1404
S':'
asbag49
(g70
g51
NtRp1405
(dp1406
g54
(dp1407
sg63
g1392
sg56
(lp1408
g49
(g50
g51
NtRp1409
(dp1410
g54
(dp1411
g62
I4
ssg63
g1405
sg56
(lp1412
g800
asbasbasbag49
(g65
g51
NtRp1413
(dp1414
g54
(dp1415
sg63
g753
sg56
(lp1416
g49
(g70
g51
NtRp1417
(dp1418
g54
(dp1419
g74
g75
ssg63
g1413
sg56
(lp1420
S'web2py_version'
p1421
asbag49
(g70
g51
NtRp1422
(dp1423
g54
(dp1424
g81
g82
ssg63
g1413
sg56
(lp1425
S':'
asbag49
(g70
g51
NtRp1426
(dp1427
g54
(dp1428
sg63
g1413
sg56
(lp1429
g49
(g50
g51
NtRp1430
(dp1431
g54
(dp1432
g62
I4
ssg63
g1426
sg56
(lp1433
g49
(g58
g51
NtRp1434
(dp1435
g54
(dp1436
g62
I3
ssg63
Nsg56
(lp1437
g49
(g65
g51
NtRp1438
(dp1439
g54
(dp1440
sg63
g1434
sg56
(lp1441
g49
(g70
g51
NtRp1442
(dp1443
g54
(dp1444
sg63
g1438
sg56
(lp1445
g49
(g50
g51
NtRp1446
(dp1447
g54
(dp1448
g62
I3
ssg63
g1442
sg56
(lp1449
S'1'
asbasbasbag49
(g65
g51
NtRp1450
(dp1451
g54
(dp1452
sg63
g1434
sg56
(lp1453
g49
(g70
g51
NtRp1454
(dp1455
g54
(dp1456
sg63
g1450
sg56
(lp1457
g49
(g50
g51
NtRp1458
(dp1459
g54
(dp1460
g62
I3
ssg63
g1454
sg56
(lp1461
S'99'
p1462
asbasbasbag49
(g65
g51
NtRp1463
(dp1464
g54
(dp1465
sg63
g1434
sg56
(lp1466
g49
(g70
g51
NtRp1467
(dp1468
g54
(dp1469
sg63
g1463
sg56
(lp1470
g49
(g50
g51
NtRp1471
(dp1472
g54
(dp1473
g62
I3
ssg63
g1467
sg56
(lp1474
S'4'
asbasbasbag49
(g65
g51
NtRp1475
(dp1476
g54
(dp1477
sg63
g1434
sg56
(lp1478
g49
(g70
g51
NtRp1479
(dp1480
g54
(dp1481
sg63
g1475
sg56
(lp1482
g49
(g50
g51
NtRp1483
(dp1484
g54
(dp1485
g62
I3
ssg63
g1479
sg56
(lp1486
S'datetime.datetime(2011, 12, 14, 14, 46, 14)'
p1487
asbasbasbag49
(g65
g51
NtRp1488
(dp1489
g54
(dp1490
sg63
g1434
sg56
(lp1491
g49
(g70
g51
NtRp1492
(dp1493
g54
(dp1494
sg63
g1488
sg56
(lp1495
g49
(g50
g51
NtRp1496
(dp1497
g54
(dp1498
g62
I3
ssg63
g1492
sg56
(lp1499
S'stable'
p1500
asbasbasbasbasbasbasbag49
(g65
g51
NtRp1501
(dp1502
g54
(dp1503
sg63
g753
sg56
(lp1504
g49
(g70
g51
NtRp1505
(dp1506
g54
(dp1507
g74
g75
ssg63
g1501
sg56
(lp1508
S'wsgi_errors'
p1509
asbag49
(g70
g51
NtRp1510
(dp1511
g54
(dp1512
g81
g82
ssg63
g1501
sg56
(lp1513
S':'
asbag49
(g70
g51
NtRp1514
(dp1515
g54
(dp1516
sg63
g1501
sg56
(lp1517
g49
(g50
g51
NtRp1518
(dp1519
g54
(dp1520
g62
I4
ssg63
g1514
sg56
(lp1521
S'<__main__.Stderr object at 0x0124A670>'
p1522
asbasbasbag49
(g65
g51
NtRp1523
(dp1524
g54
(dp1525
sg63
g753
sg56
(lp1526
g49
(g70
g51
NtRp1527
(dp1528
g54
(dp1529
g74
g75
ssg63
g1523
sg56
(lp1530
S'wsgi_file_wrapper'
p1531
asbag49
(g70
g51
NtRp1532
(dp1533
g54
(dp1534
g81
g82
ssg63
g1523
sg56
(lp1535
S':'
asbag49
(g70
g51
NtRp1536
(dp1537
g54
(dp1538
sg63
g1523
sg56
(lp1539
g49
(g50
g51
NtRp1540
(dp1541
g54
(dp1542
g62
I4
ssg63
g1536
sg56
(lp1543
S'<class wsgiref.util.FileWrapper at 0x01BDBBA0>'
p1544
asbasbasbag49
(g65
g51
NtRp1545
(dp1546
g54
(dp1547
sg63
g753
sg56
(lp1548
g49
(g70
g51
NtRp1549
(dp1550
g54
(dp1551
g74
g75
ssg63
g1545
sg56
(lp1552
S'wsgi_input'
p1553
asbag49
(g70
g51
NtRp1554
(dp1555
g54
(dp1556
g81
g82
ssg63
g1545
sg56
(lp1557
S':'
asbag49
(g70
g51
NtRp1558
(dp1559
g54
(dp1560
sg63
g1545
sg56
(lp1561
g49
(g50
g51
NtRp1562
(dp1563
g54
(dp1564
g62
I4
ssg63
g1558
sg56
(lp1565
S'<socket._fileobject object at 0x05E28A70>'
p1566
asbasbasbag49
(g65
g51
NtRp1567
(dp1568
g54
(dp1569
sg63
g753
sg56
(lp1570
g49
(g70
g51
NtRp1571
(dp1572
g54
(dp1573
g74
g75
ssg63
g1567
sg56
(lp1574
S'wsgi_multiprocess'
p1575
asbag49
(g70
g51
NtRp1576
(dp1577
g54
(dp1578
g81
g82
ssg63
g1567
sg56
(lp1579
S':'
asbag49
(g70
g51
NtRp1580
(dp1581
g54
(dp1582
sg63
g1567
sg56
(lp1583
g49
(g50
g51
NtRp1584
(dp1585
g54
(dp1586
g62
I4
ssg63
g1580
sg56
(lp1587
g92
asbasbasbag49
(g65
g51
NtRp1588
(dp1589
g54
(dp1590
sg63
g753
sg56
(lp1591
g49
(g70
g51
NtRp1592
(dp1593
g54
(dp1594
g74
g75
ssg63
g1588
sg56
(lp1595
S'wsgi_multithread'
p1596
asbag49
(g70
g51
NtRp1597
(dp1598
g54
(dp1599
g81
g82
ssg63
g1588
sg56
(lp1600
S':'
asbag49
(g70
g51
NtRp1601
(dp1602
g54
(dp1603
sg63
g1588
sg56
(lp1604
g49
(g50
g51
NtRp1605
(dp1606
g54
(dp1607
g62
I4
ssg63
g1601
sg56
(lp1608
S'True'
p1609
asbasbasbag49
(g65
g51
NtRp1610
(dp1611
g54
(dp1612
sg63
g753
sg56
(lp1613
g49
(g70
g51
NtRp1614
(dp1615
g54
(dp1616
g74
g75
ssg63
g1610
sg56
(lp1617
S'wsgi_run_once'
p1618
asbag49
(g70
g51
NtRp1619
(dp1620
g54
(dp1621
g81
g82
ssg63
g1610
sg56
(lp1622
S':'
asbag49
(g70
g51
NtRp1623
(dp1624
g54
(dp1625
sg63
g1610
sg56
(lp1626
g49
(g50
g51
NtRp1627
(dp1628
g54
(dp1629
g62
I4
ssg63
g1623
sg56
(lp1630
g92
asbasbasbag49
(g65
g51
NtRp1631
(dp1632
g54
(dp1633
sg63
g753
sg56
(lp1634
g49
(g70
g51
NtRp1635
(dp1636
g54
(dp1637
g74
g75
ssg63
g1631
sg56
(lp1638
S'wsgi_url_scheme'
p1639
asbag49
(g70
g51
NtRp1640
(dp1641
g54
(dp1642
g81
g82
ssg63
g1631
sg56
(lp1643
S':'
asbag49
(g70
g51
NtRp1644
(dp1645
g54
(dp1646
sg63
g1631
sg56
(lp1647
g49
(g50
g51
NtRp1648
(dp1649
g54
(dp1650
g62
I4
ssg63
g1644
sg56
(lp1651
S'http'
p1652
asbasbasbag49
(g65
g51
NtRp1653
(dp1654
g54
(dp1655
sg63
g753
sg56
(lp1656
g49
(g70
g51
NtRp1657
(dp1658
g54
(dp1659
g74
g75
ssg63
g1653
sg56
(lp1660
S'wsgi_version'
p1661
asbag49
(g70
g51
NtRp1662
(dp1663
g54
(dp1664
g81
g82
ssg63
g1653
sg56
(lp1665
S':'
asbag49
(g70
g51
NtRp1666
(dp1667
g54
(dp1668
sg63
g1653
sg56
(lp1669
g49
(g50
g51
NtRp1670
(dp1671
g54
(dp1672
g62
I4
ssg63
g1666
sg56
(lp1673
g49
(g58
g51
NtRp1674
(dp1675
g54
(dp1676
g62
I3
ssg63
Nsg56
(lp1677
g49
(g65
g51
NtRp1678
(dp1679
g54
(dp1680
sg63
g1674
sg56
(lp1681
g49
(g70
g51
NtRp1682
(dp1683
g54
(dp1684
sg63
g1678
sg56
(lp1685
g49
(g50
g51
NtRp1686
(dp1687
g54
(dp1688
g62
I3
ssg63
g1682
sg56
(lp1689
S'1'
asbasbasbag49
(g65
g51
NtRp1690
(dp1691
g54
(dp1692
sg63
g1674
sg56
(lp1693
g49
(g70
g51
NtRp1694
(dp1695
g54
(dp1696
sg63
g1690
sg56
(lp1697
g49
(g50
g51
NtRp1698
(dp1699
g54
(dp1700
g62
I3
ssg63
g1694
sg56
(lp1701
S'0'
asbasbasbasbasbasbasbasbasbasbasbag49
(g65
g51
NtRp1702
(dp1703
g54
(dp1704
sg63
g59
sg56
(lp1705
g49
(g70
g51
NtRp1706
(dp1707
g54
(dp1708
g74
g75
ssg63
g1702
sg56
(lp1709
S'extension'
p1710
asbag49
(g70
g51
NtRp1711
(dp1712
g54
(dp1713
g81
g82
ssg63
g1702
sg56
(lp1714
S':'
asbag49
(g70
g51
NtRp1715
(dp1716
g54
(dp1717
sg63
g1702
sg56
(lp1718
g49
(g50
g51
NtRp1719
(dp1720
g54
(dp1721
g62
I5
ssg63
g1715
sg56
(lp1722
S'html'
p1723
asbasbasbag49
(g65
g51
NtRp1724
(dp1725
g54
(dp1726
sg63
g59
sg56
(lp1727
g49
(g70
g51
NtRp1728
(dp1729
g54
(dp1730
g74
g75
ssg63
g1724
sg56
(lp1731
S'folder'
p1732
asbag49
(g70
g51
NtRp1733
(dp1734
g54
(dp1735
g81
g82
ssg63
g1724
sg56
(lp1736
S':'
asbag49
(g70
g51
NtRp1737
(dp1738
g54
(dp1739
sg63
g1724
sg56
(lp1740
g49
(g50
g51
NtRp1741
(dp1742
g54
(dp1743
g62
I5
ssg63
g1737
sg56
(lp1744
S'C:\\Users\\nilton\\Desktop\\scripts\\curso_de_python\\web2py\\applications\\xcpadmin\\'
p1745
asbasbasbag49
(g65
g51
NtRp1746
(dp1747
g54
(dp1748
sg63
g59
sg56
(lp1749
g49
(g70
g51
NtRp1750
(dp1751
g54
(dp1752
g74
g75
ssg63
g1746
sg56
(lp1753
S'function'
p1754
asbag49
(g70
g51
NtRp1755
(dp1756
g54
(dp1757
g81
g82
ssg63
g1746
sg56
(lp1758
S':'
asbag49
(g70
g51
NtRp1759
(dp1760
g54
(dp1761
sg63
g1746
sg56
(lp1762
g49
(g50
g51
NtRp1763
(dp1764
g54
(dp1765
g62
I5
ssg63
g1759
sg56
(lp1766
S'index'
p1767
asbasbasbag49
(g65
g51
NtRp1768
(dp1769
g54
(dp1770
sg63
g59
sg56
(lp1771
g49
(g70
g51
NtRp1772
(dp1773
g54
(dp1774
g74
g75
ssg63
g1768
sg56
(lp1775
S'get_vars'
p1776
asbag49
(g70
g51
NtRp1777
(dp1778
g54
(dp1779
g81
g82
ssg63
g1768
sg56
(lp1780
S':'
asbag49
(g70
g51
NtRp1781
(dp1782
g54
(dp1783
sg63
g1768
sg56
(lp1784
g49
(g50
g51
NtRp1785
(dp1786
g54
(dp1787
g62
I5
ssg63
g1781
sg56
(lp1788
g49
(g58
g51
NtRp1789
(dp1790
g54
(dp1791
g62
I4
ssg63
Nsg56
(lp1792
sbasbasbasbag49
(g65
g51
NtRp1793
(dp1794
g54
(dp1795
sg63
g59
sg56
(lp1796
g49
(g70
g51
NtRp1797
(dp1798
g54
(dp1799
g74
g75
ssg63
g1793
sg56
(lp1800
S'global_settings'
p1801
asbag49
(g70
g51
NtRp1802
(dp1803
g54
(dp1804
g81
g82
ssg63
g1793
sg56
(lp1805
S':'
asbag49
(g70
g51
NtRp1806
(dp1807
g54
(dp1808
sg63
g1793
sg56
(lp1809
g49
(g50
g51
NtRp1810
(dp1811
g54
(dp1812
g62
I5
ssg63
g1806
sg56
(lp1813
g49
(g58
g51
NtRp1814
(dp1815
g54
(dp1816
g62
I4
ssg63
Nsg56
(lp1817
g49
(g65
g51
NtRp1818
(dp1819
g54
(dp1820
sg63
g1814
sg56
(lp1821
g49
(g70
g51
NtRp1822
(dp1823
g54
(dp1824
g74
g75
ssg63
g1818
sg56
(lp1825
g765
asbag49
(g70
g51
NtRp1826
(dp1827
g54
(dp1828
g81
g82
ssg63
g1818
sg56
(lp1829
S':'
asbag49
(g70
g51
NtRp1830
(dp1831
g54
(dp1832
sg63
g1818
sg56
(lp1833
g49
(g50
g51
NtRp1834
(dp1835
g54
(dp1836
g62
I4
ssg63
g1830
sg56
(lp1837
S"set(['C:\\\\Users\\\\nilton\\\\Desktop\\\\scripts\\\\curso_de_python\\\\web2py\\\\applications\\\\admin\\\\', 'C:\\\\Users\\\\nilton\\\\Desktop\\\\scripts\\\\curso_de_python\\\\web2py\\\\applications\\\\xcpadmin\\\\', 'C:\\\\Users\\\\nilton\\\\Desktop\\\\scripts\\\\curso_de_python\\\\web2py\\\\applications\\\\welcome\\\\'])"
p1838
asbasbasbag49
(g65
g51
NtRp1839
(dp1840
g54
(dp1841
sg63
g1814
sg56
(lp1842
g49
(g70
g51
NtRp1843
(dp1844
g54
(dp1845
g74
g75
ssg63
g1839
sg56
(lp1846
g787
asbag49
(g70
g51
NtRp1847
(dp1848
g54
(dp1849
g81
g82
ssg63
g1839
sg56
(lp1850
S':'
asbag49
(g70
g51
NtRp1851
(dp1852
g54
(dp1853
sg63
g1839
sg56
(lp1854
g49
(g50
g51
NtRp1855
(dp1856
g54
(dp1857
g62
I4
ssg63
g1851
sg56
(lp1858
g800
asbasbasbag49
(g65
g51
NtRp1859
(dp1860
g54
(dp1861
sg63
g1814
sg56
(lp1862
g49
(g70
g51
NtRp1863
(dp1864
g54
(dp1865
g74
g75
ssg63
g1859
sg56
(lp1866
g809
asbag49
(g70
g51
NtRp1867
(dp1868
g54
(dp1869
g81
g82
ssg63
g1859
sg56
(lp1870
S':'
asbag49
(g70
g51
NtRp1871
(dp1872
g54
(dp1873
sg63
g1859
sg56
(lp1874
g49
(g50
g51
NtRp1875
(dp1876
g54
(dp1877
g62
I4
ssg63
g1871
sg56
(lp1878
g49
(g58
g51
NtRp1879
(dp1880
g54
(dp1881
g62
I3
ssg63
Nsg56
(lp1882
sbasbasbasbag49
(g65
g51
NtRp1883
(dp1884
g54
(dp1885
sg63
g1814
sg56
(lp1886
g49
(g70
g51
NtRp1887
(dp1888
g54
(dp1889
g74
g75
ssg63
g1883
sg56
(lp1890
g834
asbag49
(g70
g51
NtRp1891
(dp1892
g54
(dp1893
g81
g82
ssg63
g1883
sg56
(lp1894
S':'
asbag49
(g70
g51
NtRp1895
(dp1896
g54
(dp1897
sg63
g1883
sg56
(lp1898
g49
(g50
g51
NtRp1899
(dp1900
g54
(dp1901
g62
I4
ssg63
g1895
sg56
(lp1902
S"<Values at 0x27674b8: {'verbose': False, 'ip': '127.0.0.1', 'shutdown_timeout': 5, 'taskbar': False, 'nocron': False, 'pid_filename': 'httpserver.pid', 'maxthreads': None, 'softcron': False, 'server_name': 'nilton-NOT', 'bpython': False, 'nogui': False, 'port': 8000, 'extcron': False, 'debuglevel': 30, 'test': None, 'folder': 'C:\\\\Users\\\\nilton\\\\Desktop\\\\scripts\\\\curso_de_python\\\\web2py', 'config': '', 'import_models': False, 'winservice': '', 'shell': None, 'run': '', 'log_filename': 'httpserver.log', 'args': [''], 'socket_timeout': 1, 'ssl_ca_certificate': None, 'scheduler': None, 'profiler_filename': None, 'ssl_private_key': '', 'password': '<ask>', 'request_queue_size': 5, 'ssl_certificate': '', 'cronjob': False, 'numthreads': None, 'quiet': False, 'interfaces': None, 'minthreads': None, 'timeout': 10, 'plain': False, 'nobanner': False}>"
p1903
asbasbasbag49
(g65
g51
NtRp1904
(dp1905
g54
(dp1906
sg63
g1814
sg56
(lp1907
g49
(g70
g51
NtRp1908
(dp1909
g54
(dp1910
g74
g75
ssg63
g1904
sg56
(lp1911
g856
asbag49
(g70
g51
NtRp1912
(dp1913
g54
(dp1914
g81
g82
ssg63
g1904
sg56
(lp1915
S':'
asbag49
(g70
g51
NtRp1916
(dp1917
g54
(dp1918
sg63
g1904
sg56
(lp1919
g49
(g50
g51
NtRp1920
(dp1921
g54
(dp1922
g62
I4
ssg63
g1916
sg56
(lp1923
S'set([])'
p1924
asbasbasbag49
(g65
g51
NtRp1925
(dp1926
g54
(dp1927
sg63
g1814
sg56
(lp1928
g49
(g70
g51
NtRp1929
(dp1930
g54
(dp1931
g74
g75
ssg63
g1925
sg56
(lp1932
g878
asbag49
(g70
g51
NtRp1933
(dp1934
g54
(dp1935
g81
g82
ssg63
g1925
sg56
(lp1936
S':'
asbag49
(g70
g51
NtRp1937
(dp1938
g54
(dp1939
sg63
g1925
sg56
(lp1940
g49
(g50
g51
NtRp1941
(dp1942
g54
(dp1943
g62
I4
ssg63
g1937
sg56
(lp1944
g92
asbasbasbag49
(g65
g51
NtRp1945
(dp1946
g54
(dp1947
sg63
g1814
sg56
(lp1948
g49
(g70
g51
NtRp1949
(dp1950
g54
(dp1951
g74
g75
ssg63
g1945
sg56
(lp1952
g899
asbag49
(g70
g51
NtRp1953
(dp1954
g54
(dp1955
g81
g82
ssg63
g1945
sg56
(lp1956
S':'
asbag49
(g70
g51
NtRp1957
(dp1958
g54
(dp1959
sg63
g1945
sg56
(lp1960
g49
(g50
g51
NtRp1961
(dp1962
g54
(dp1963
g62
I4
ssg63
g1957
sg56
(lp1964
g912
asbasbasbag49
(g65
g51
NtRp1965
(dp1966
g54
(dp1967
sg63
g1814
sg56
(lp1968
g49
(g70
g51
NtRp1969
(dp1970
g54
(dp1971
g74
g75
ssg63
g1965
sg56
(lp1972
g1119
asbag49
(g70
g51
NtRp1973
(dp1974
g54
(dp1975
g81
g82
ssg63
g1965
sg56
(lp1976
S':'
asbag49
(g70
g51
NtRp1977
(dp1978
g54
(dp1979
sg63
g1965
sg56
(lp1980
g49
(g50
g51
NtRp1981
(dp1982
g54
(dp1983
g62
I4
ssg63
g1977
sg56
(lp1984
g92
asbasbasbag49
(g65
g51
NtRp1985
(dp1986
g54
(dp1987
sg63
g1814
sg56
(lp1988
g49
(g70
g51
NtRp1989
(dp1990
g54
(dp1991
g74
g75
ssg63
g1985
sg56
(lp1992
g1140
asbag49
(g70
g51
NtRp1993
(dp1994
g54
(dp1995
g81
g82
ssg63
g1985
sg56
(lp1996
S':'
asbag49
(g70
g51
NtRp1997
(dp1998
g54
(dp1999
sg63
g1985
sg56
(lp2000
g49
(g50
g51
NtRp2001
(dp2002
g54
(dp2003
g62
I4
ssg63
g1997
sg56
(lp2004
g92
asbasbasbag49
(g65
g51
NtRp2005
(dp2006
g54
(dp2007
sg63
g1814
sg56
(lp2008
g49
(g70
g51
NtRp2009
(dp2010
g54
(dp2011
g74
g75
ssg63
g2005
sg56
(lp2012
g1378
asbag49
(g70
g51
NtRp2013
(dp2014
g54
(dp2015
g81
g82
ssg63
g2005
sg56
(lp2016
S':'
asbag49
(g70
g51
NtRp2017
(dp2018
g54
(dp2019
sg63
g2005
sg56
(lp2020
g49
(g50
g51
NtRp2021
(dp2022
g54
(dp2023
g62
I4
ssg63
g2017
sg56
(lp2024
g1391
asbasbasbag49
(g65
g51
NtRp2025
(dp2026
g54
(dp2027
sg63
g1814
sg56
(lp2028
g49
(g70
g51
NtRp2029
(dp2030
g54
(dp2031
g74
g75
ssg63
g2025
sg56
(lp2032
g1421
asbag49
(g70
g51
NtRp2033
(dp2034
g54
(dp2035
g81
g82
ssg63
g2025
sg56
(lp2036
S':'
asbag49
(g70
g51
NtRp2037
(dp2038
g54
(dp2039
sg63
g2025
sg56
(lp2040
g49
(g50
g51
NtRp2041
(dp2042
g54
(dp2043
g62
I4
ssg63
g2037
sg56
(lp2044
g49
(g58
g51
NtRp2045
(dp2046
g54
(dp2047
g62
I3
ssg63
Nsg56
(lp2048
g49
(g65
g51
NtRp2049
(dp2050
g54
(dp2051
sg63
g2045
sg56
(lp2052
g49
(g70
g51
NtRp2053
(dp2054
g54
(dp2055
sg63
g2049
sg56
(lp2056
g49
(g50
g51
NtRp2057
(dp2058
g54
(dp2059
g62
I3
ssg63
g2053
sg56
(lp2060
S'1'
asbasbasbag49
(g65
g51
NtRp2061
(dp2062
g54
(dp2063
sg63
g2045
sg56
(lp2064
g49
(g70
g51
NtRp2065
(dp2066
g54
(dp2067
sg63
g2061
sg56
(lp2068
g49
(g50
g51
NtRp2069
(dp2070
g54
(dp2071
g62
I3
ssg63
g2065
sg56
(lp2072
S'99'
p2073
asbasbasbag49
(g65
g51
NtRp2074
(dp2075
g54
(dp2076
sg63
g2045
sg56
(lp2077
g49
(g70
g51
NtRp2078
(dp2079
g54
(dp2080
sg63
g2074
sg56
(lp2081
g49
(g50
g51
NtRp2082
(dp2083
g54
(dp2084
g62
I3
ssg63
g2078
sg56
(lp2085
S'4'
asbasbasbag49
(g65
g51
NtRp2086
(dp2087
g54
(dp2088
sg63
g2045
sg56
(lp2089
g49
(g70
g51
NtRp2090
(dp2091
g54
(dp2092
sg63
g2086
sg56
(lp2093
g49
(g50
g51
NtRp2094
(dp2095
g54
(dp2096
g62
I3
ssg63
g2090
sg56
(lp2097
S'datetime.datetime(2011, 12, 14, 14, 46, 14)'
p2098
asbasbasbag49
(g65
g51
NtRp2099
(dp2100
g54
(dp2101
sg63
g2045
sg56
(lp2102
g49
(g70
g51
NtRp2103
(dp2104
g54
(dp2105
sg63
g2099
sg56
(lp2106
g49
(g50
g51
NtRp2107
(dp2108
g54
(dp2109
g62
I3
ssg63
g2103
sg56
(lp2110
g1500
asbasbasbasbasbasbasbasbasbasbasbag49
(g65
g51
NtRp2111
(dp2112
g54
(dp2113
sg63
g59
sg56
(lp2114
g49
(g70
g51
NtRp2115
(dp2116
g54
(dp2117
g74
g75
ssg63
g2111
sg56
(lp2118
S'is_https'
p2119
asbag49
(g70
g51
NtRp2120
(dp2121
g54
(dp2122
g81
g82
ssg63
g2111
sg56
(lp2123
S':'
asbag49
(g70
g51
NtRp2124
(dp2125
g54
(dp2126
sg63
g2111
sg56
(lp2127
g49
(g50
g51
NtRp2128
(dp2129
g54
(dp2130
g62
I5
ssg63
g2124
sg56
(lp2131
g92
asbasbasbag49
(g65
g51
NtRp2132
(dp2133
g54
(dp2134
sg63
g59
sg56
(lp2135
g49
(g70
g51
NtRp2136
(dp2137
g54
(dp2138
g74
g75
ssg63
g2132
sg56
(lp2139
S'is_local'
p2140
asbag49
(g70
g51
NtRp2141
(dp2142
g54
(dp2143
g81
g82
ssg63
g2132
sg56
(lp2144
S':'
asbag49
(g70
g51
NtRp2145
(dp2146
g54
(dp2147
sg63
g2132
sg56
(lp2148
g49
(g50
g51
NtRp2149
(dp2150
g54
(dp2151
g62
I5
ssg63
g2145
sg56
(lp2152
g1609
asbasbasbag49
(g65
g51
NtRp2153
(dp2154
g54
(dp2155
sg63
g59
sg56
(lp2156
g49
(g70
g51
NtRp2157
(dp2158
g54
(dp2159
g74
g75
ssg63
g2153
sg56
(lp2160
S'is_restful'
p2161
asbag49
(g70
g51
NtRp2162
(dp2163
g54
(dp2164
g81
g82
ssg63
g2153
sg56
(lp2165
S':'
asbag49
(g70
g51
NtRp2166
(dp2167
g54
(dp2168
sg63
g2153
sg56
(lp2169
g49
(g50
g51
NtRp2170
(dp2171
g54
(dp2172
g62
I5
ssg63
g2166
sg56
(lp2173
g92
asbasbasbag49
(g65
g51
NtRp2174
(dp2175
g54
(dp2176
sg63
g59
sg56
(lp2177
g49
(g70
g51
NtRp2178
(dp2179
g54
(dp2180
g74
g75
ssg63
g2174
sg56
(lp2181
S'now'
p2182
asbag49
(g70
g51
NtRp2183
(dp2184
g54
(dp2185
g81
g82
ssg63
g2174
sg56
(lp2186
S':'
asbag49
(g70
g51
NtRp2187
(dp2188
g54
(dp2189
sg63
g2174
sg56
(lp2190
g49
(g50
g51
NtRp2191
(dp2192
g54
(dp2193
g62
I5
ssg63
g2187
sg56
(lp2194
S'datetime.datetime(2012, 1, 24, 12, 10, 18, 922000)'
p2195
asbasbasbag49
(g65
g51
NtRp2196
(dp2197
g54
(dp2198
sg63
g59
sg56
(lp2199
g49
(g70
g51
NtRp2200
(dp2201
g54
(dp2202
g74
g75
ssg63
g2196
sg56
(lp2203
S'post_vars'
p2204
asbag49
(g70
g51
NtRp2205
(dp2206
g54
(dp2207
g81
g82
ssg63
g2196
sg56
(lp2208
S':'
asbag49
(g70
g51
NtRp2209
(dp2210
g54
(dp2211
sg63
g2196
sg56
(lp2212
g49
(g50
g51
NtRp2213
(dp2214
g54
(dp2215
g62
I5
ssg63
g2209
sg56
(lp2216
g49
(g58
g51
NtRp2217
(dp2218
g54
(dp2219
g62
I4
ssg63
Nsg56
(lp2220
sbasbasbasbag49
(g65
g51
NtRp2221
(dp2222
g54
(dp2223
sg63
g59
sg56
(lp2224
g49
(g70
g51
NtRp2225
(dp2226
g54
(dp2227
g74
g75
ssg63
g2221
sg56
(lp2228
S'url'
p2229
asbag49
(g70
g51
NtRp2230
(dp2231
g54
(dp2232
g81
g82
ssg63
g2221
sg56
(lp2233
S':'
asbag49
(g70
g51
NtRp2234
(dp2235
g54
(dp2236
sg63
g2221
sg56
(lp2237
g49
(g50
g51
NtRp2238
(dp2239
g54
(dp2240
g62
I5
ssg63
g2234
sg56
(lp2241
S'/xcpadmin/listvm/index'
p2242
asbasbasbag49
(g65
g51
NtRp2243
(dp2244
g54
(dp2245
sg63
g59
sg56
(lp2246
g49
(g70
g51
NtRp2247
(dp2248
g54
(dp2249
g74
g75
ssg63
g2243
sg56
(lp2250
S'utcnow'
p2251
asbag49
(g70
g51
NtRp2252
(dp2253
g54
(dp2254
g81
g82
ssg63
g2243
sg56
(lp2255
S':'
asbag49
(g70
g51
NtRp2256
(dp2257
g54
(dp2258
sg63
g2243
sg56
(lp2259
g49
(g50
g51
NtRp2260
(dp2261
g54
(dp2262
g62
I5
ssg63
g2256
sg56
(lp2263
S'datetime.datetime(2012, 1, 24, 14, 10, 18, 922000)'
p2264
asbasbasbag49
(g65
g51
NtRp2265
(dp2266
g54
(dp2267
sg63
g59
sg56
(lp2268
g49
(g70
g51
NtRp2269
(dp2270
g54
(dp2271
g74
g75
ssg63
g2265
sg56
(lp2272
S'uuid'
p2273
asbag49
(g70
g51
NtRp2274
(dp2275
g54
(dp2276
g81
g82
ssg63
g2265
sg56
(lp2277
S':'
asbag49
(g70
g51
NtRp2278
(dp2279
g54
(dp2280
sg63
g2265
sg56
(lp2281
g49
(g50
g51
NtRp2282
(dp2283
g54
(dp2284
g62
I5
ssg63
g2278
sg56
(lp2285
S'xcpadmin/127.0.0.1.2012-01-24.12-10-18.68459ced-3c2a-40d6-b961-dae1258719ff'
p2286
asbasbasbag49
(g65
g51
NtRp2287
(dp2288
g54
(dp2289
sg63
g59
sg56
(lp2290
g49
(g70
g51
NtRp2291
(dp2292
g54
(dp2293
g74
g75
ssg63
g2287
sg56
(lp2294
S'vars'
p2295
asbag49
(g70
g51
NtRp2296
(dp2297
g54
(dp2298
g81
g82
ssg63
g2287
sg56
(lp2299
S':'
asbag49
(g70
g51
NtRp2300
(dp2301
g54
(dp2302
sg63
g2287
sg56
(lp2303
g49
(g50
g51
NtRp2304
(dp2305
g54
(dp2306
g62
I5
ssg63
g2300
sg56
(lp2307
g49
(g58
g51
NtRp2308
(dp2309
g54
(dp2310
g62
I4
ssg63
Nsg56
(lp2311
sbasbasbasbag49
(g65
g51
NtRp2312
(dp2313
g54
(dp2314
sg63
g59
sg56
(lp2315
g49
(g70
g51
NtRp2316
(dp2317
g54
(dp2318
g74
g75
ssg63
g2312
sg56
(lp2319
S'wsgi'
p2320
asbag49
(g70
g51
NtRp2321
(dp2322
g54
(dp2323
g81
g82
ssg63
g2312
sg56
(lp2324
S':'
asbag49
(g70
g51
NtRp2325
(dp2326
g54
(dp2327
sg63
g2312
sg56
(lp2328
g49
(g50
g51
NtRp2329
(dp2330
g54
(dp2331
g62
I5
ssg63
g2325
sg56
(lp2332
g49
(g58
g51
NtRp2333
(dp2334
g54
(dp2335
g62
I4
ssg63
Nsg56
(lp2336
g49
(g65
g51
NtRp2337
(dp2338
g54
(dp2339
sg63
g2333
sg56
(lp2340
g49
(g70
g51
NtRp2341
(dp2342
g54
(dp2343
g74
g75
ssg63
g2337
sg56
(lp2344
S'environ'
p2345
asbag49
(g70
g51
NtRp2346
(dp2347
g54
(dp2348
g81
g82
ssg63
g2337
sg56
(lp2349
S':'
asbag49
(g70
g51
NtRp2350
(dp2351
g54
(dp2352
sg63
g2337
sg56
(lp2353
g49
(g50
g51
NtRp2354
(dp2355
g54
(dp2356
g62
I4
ssg63
g2350
sg56
(lp2357
g49
(g58
g51
NtRp2358
(dp2359
g54
(dp2360
g62
I3
ssg63
Nsg56
(lp2361
g49
(g65
g51
NtRp2362
(dp2363
g54
(dp2364
sg63
g2358
sg56
(lp2365
g49
(g70
g51
NtRp2366
(dp2367
g54
(dp2368
g74
g75
ssg63
g2362
sg56
(lp2369
S'HTTP_ACCEPT'
p2370
asbag49
(g70
g51
NtRp2371
(dp2372
g54
(dp2373
g81
g82
ssg63
g2362
sg56
(lp2374
S':'
asbag49
(g70
g51
NtRp2375
(dp2376
g54
(dp2377
sg63
g2362
sg56
(lp2378
g49
(g50
g51
NtRp2379
(dp2380
g54
(dp2381
g62
I3
ssg63
g2375
sg56
(lp2382
g934
asbasbasbag49
(g65
g51
NtRp2383
(dp2384
g54
(dp2385
sg63
g2358
sg56
(lp2386
g49
(g70
g51
NtRp2387
(dp2388
g54
(dp2389
g74
g75
ssg63
g2383
sg56
(lp2390
S'HTTP_ACCEPT_CHARSET'
p2391
asbag49
(g70
g51
NtRp2392
(dp2393
g54
(dp2394
g81
g82
ssg63
g2383
sg56
(lp2395
S':'
asbag49
(g70
g51
NtRp2396
(dp2397
g54
(dp2398
sg63
g2383
sg56
(lp2399
g49
(g50
g51
NtRp2400
(dp2401
g54
(dp2402
g62
I3
ssg63
g2396
sg56
(lp2403
g956
asbasbasbag49
(g65
g51
NtRp2404
(dp2405
g54
(dp2406
sg63
g2358
sg56
(lp2407
g49
(g70
g51
NtRp2408
(dp2409
g54
(dp2410
g74
g75
ssg63
g2404
sg56
(lp2411
S'HTTP_ACCEPT_ENCODING'
p2412
asbag49
(g70
g51
NtRp2413
(dp2414
g54
(dp2415
g81
g82
ssg63
g2404
sg56
(lp2416
S':'
asbag49
(g70
g51
NtRp2417
(dp2418
g54
(dp2419
sg63
g2404
sg56
(lp2420
g49
(g50
g51
NtRp2421
(dp2422
g54
(dp2423
g62
I3
ssg63
g2417
sg56
(lp2424
g978
asbasbasbag49
(g65
g51
NtRp2425
(dp2426
g54
(dp2427
sg63
g2358
sg56
(lp2428
g49
(g70
g51
NtRp2429
(dp2430
g54
(dp2431
g74
g75
ssg63
g2425
sg56
(lp2432
S'HTTP_ACCEPT_LANGUAGE'
p2433
asbag49
(g70
g51
NtRp2434
(dp2435
g54
(dp2436
g81
g82
ssg63
g2425
sg56
(lp2437
S':'
asbag49
(g70
g51
NtRp2438
(dp2439
g54
(dp2440
sg63
g2425
sg56
(lp2441
g49
(g50
g51
NtRp2442
(dp2443
g54
(dp2444
g62
I3
ssg63
g2438
sg56
(lp2445
g1000
asbasbasbag49
(g65
g51
NtRp2446
(dp2447
g54
(dp2448
sg63
g2358
sg56
(lp2449
g49
(g70
g51
NtRp2450
(dp2451
g54
(dp2452
g74
g75
ssg63
g2446
sg56
(lp2453
S'HTTP_CACHE_CONTROL'
p2454
asbag49
(g70
g51
NtRp2455
(dp2456
g54
(dp2457
g81
g82
ssg63
g2446
sg56
(lp2458
S':'
asbag49
(g70
g51
NtRp2459
(dp2460
g54
(dp2461
sg63
g2446
sg56
(lp2462
g49
(g50
g51
NtRp2463
(dp2464
g54
(dp2465
g62
I3
ssg63
g2459
sg56
(lp2466
g1022
asbasbasbag49
(g65
g51
NtRp2467
(dp2468
g54
(dp2469
sg63
g2358
sg56
(lp2470
g49
(g70
g51
NtRp2471
(dp2472
g54
(dp2473
g74
g75
ssg63
g2467
sg56
(lp2474
S'HTTP_CONNECTION'
p2475
asbag49
(g70
g51
NtRp2476
(dp2477
g54
(dp2478
g81
g82
ssg63
g2467
sg56
(lp2479
S':'
asbag49
(g70
g51
NtRp2480
(dp2481
g54
(dp2482
sg63
g2467
sg56
(lp2483
g49
(g50
g51
NtRp2484
(dp2485
g54
(dp2486
g62
I3
ssg63
g2480
sg56
(lp2487
g1044
asbasbasbag49
(g65
g51
NtRp2488
(dp2489
g54
(dp2490
sg63
g2358
sg56
(lp2491
g49
(g70
g51
NtRp2492
(dp2493
g54
(dp2494
g74
g75
ssg63
g2488
sg56
(lp2495
S'HTTP_COOKIE'
p2496
asbag49
(g70
g51
NtRp2497
(dp2498
g54
(dp2499
g81
g82
ssg63
g2488
sg56
(lp2500
S':'
asbag49
(g70
g51
NtRp2501
(dp2502
g54
(dp2503
sg63
g2488
sg56
(lp2504
g49
(g50
g51
NtRp2505
(dp2506
g54
(dp2507
g62
I3
ssg63
g2501
sg56
(lp2508
g1066
asbasbasbag49
(g65
g51
NtRp2509
(dp2510
g54
(dp2511
sg63
g2358
sg56
(lp2512
g49
(g70
g51
NtRp2513
(dp2514
g54
(dp2515
g74
g75
ssg63
g2509
sg56
(lp2516
S'HTTP_HOST'
p2517
asbag49
(g70
g51
NtRp2518
(dp2519
g54
(dp2520
g81
g82
ssg63
g2509
sg56
(lp2521
S':'
asbag49
(g70
g51
NtRp2522
(dp2523
g54
(dp2524
sg63
g2509
sg56
(lp2525
g49
(g50
g51
NtRp2526
(dp2527
g54
(dp2528
g62
I3
ssg63
g2522
sg56
(lp2529
g1088
asbasbasbag49
(g65
g51
NtRp2530
(dp2531
g54
(dp2532
sg63
g2358
sg56
(lp2533
g49
(g70
g51
NtRp2534
(dp2535
g54
(dp2536
g74
g75
ssg63
g2530
sg56
(lp2537
S'HTTP_USER_AGENT'
p2538
asbag49
(g70
g51
NtRp2539
(dp2540
g54
(dp2541
g81
g82
ssg63
g2530
sg56
(lp2542
S':'
asbag49
(g70
g51
NtRp2543
(dp2544
g54
(dp2545
sg63
g2530
sg56
(lp2546
g49
(g50
g51
NtRp2547
(dp2548
g54
(dp2549
g62
I3
ssg63
g2543
sg56
(lp2550
g1110
asbasbasbag49
(g65
g51
NtRp2551
(dp2552
g54
(dp2553
sg63
g2358
sg56
(lp2554
g49
(g70
g51
NtRp2555
(dp2556
g54
(dp2557
g74
g75
ssg63
g2551
sg56
(lp2558
S'PATH_INFO'
p2559
asbag49
(g70
g51
NtRp2560
(dp2561
g54
(dp2562
g81
g82
ssg63
g2551
sg56
(lp2563
S':'
asbag49
(g70
g51
NtRp2564
(dp2565
g54
(dp2566
sg63
g2551
sg56
(lp2567
g49
(g50
g51
NtRp2568
(dp2569
g54
(dp2570
g62
I3
ssg63
g2564
sg56
(lp2571
g1174
asbasbasbag49
(g65
g51
NtRp2572
(dp2573
g54
(dp2574
sg63
g2358
sg56
(lp2575
g49
(g70
g51
NtRp2576
(dp2577
g54
(dp2578
g74
g75
ssg63
g2572
sg56
(lp2579
S'QUERY_STRING'
p2580
asbag49
(g70
g51
NtRp2581
(dp2582
g54
(dp2583
g81
g82
ssg63
g2572
sg56
(lp2584
S':'
asbag49
(g70
g51
NtRp2585
(dp2586
g54
(dp2587
sg63
g2572
sg56
(lp2588
g49
(g50
g51
NtRp2589
(dp2590
g54
(dp2591
g62
I3
ssg63
g2585
sg56
(lp2592
S''
asbasbasbag49
(g65
g51
NtRp2593
(dp2594
g54
(dp2595
sg63
g2358
sg56
(lp2596
g49
(g70
g51
NtRp2597
(dp2598
g54
(dp2599
g74
g75
ssg63
g2593
sg56
(lp2600
S'REMOTE_ADDR'
p2601
asbag49
(g70
g51
NtRp2602
(dp2603
g54
(dp2604
g81
g82
ssg63
g2593
sg56
(lp2605
S':'
asbag49
(g70
g51
NtRp2606
(dp2607
g54
(dp2608
sg63
g2593
sg56
(lp2609
g49
(g50
g51
NtRp2610
(dp2611
g54
(dp2612
g62
I3
ssg63
g2606
sg56
(lp2613
g182
asbasbasbag49
(g65
g51
NtRp2614
(dp2615
g54
(dp2616
sg63
g2358
sg56
(lp2617
g49
(g70
g51
NtRp2618
(dp2619
g54
(dp2620
g74
g75
ssg63
g2614
sg56
(lp2621
S'REMOTE_PORT'
p2622
asbag49
(g70
g51
NtRp2623
(dp2624
g54
(dp2625
g81
g82
ssg63
g2614
sg56
(lp2626
S':'
asbag49
(g70
g51
NtRp2627
(dp2628
g54
(dp2629
sg63
g2614
sg56
(lp2630
g49
(g50
g51
NtRp2631
(dp2632
g54
(dp2633
g62
I3
ssg63
g2627
sg56
(lp2634
g1238
asbasbasbag49
(g65
g51
NtRp2635
(dp2636
g54
(dp2637
sg63
g2358
sg56
(lp2638
g49
(g70
g51
NtRp2639
(dp2640
g54
(dp2641
g74
g75
ssg63
g2635
sg56
(lp2642
S'REQUEST_METHOD'
p2643
asbag49
(g70
g51
NtRp2644
(dp2645
g54
(dp2646
g81
g82
ssg63
g2635
sg56
(lp2647
S':'
asbag49
(g70
g51
NtRp2648
(dp2649
g54
(dp2650
sg63
g2635
sg56
(lp2651
g49
(g50
g51
NtRp2652
(dp2653
g54
(dp2654
g62
I3
ssg63
g2648
sg56
(lp2655
g1260
asbasbasbag49
(g65
g51
NtRp2656
(dp2657
g54
(dp2658
sg63
g2358
sg56
(lp2659
g49
(g70
g51
NtRp2660
(dp2661
g54
(dp2662
g74
g75
ssg63
g2656
sg56
(lp2663
S'SCRIPT_NAME'
p2664
asbag49
(g70
g51
NtRp2665
(dp2666
g54
(dp2667
g81
g82
ssg63
g2656
sg56
(lp2668
S':'
asbag49
(g70
g51
NtRp2669
(dp2670
g54
(dp2671
sg63
g2656
sg56
(lp2672
g49
(g50
g51
NtRp2673
(dp2674
g54
(dp2675
g62
I3
ssg63
g2669
sg56
(lp2676
S''
asbasbasbag49
(g65
g51
NtRp2677
(dp2678
g54
(dp2679
sg63
g2358
sg56
(lp2680
g49
(g70
g51
NtRp2681
(dp2682
g54
(dp2683
g74
g75
ssg63
g2677
sg56
(lp2684
S'SERVER_NAME'
p2685
asbag49
(g70
g51
NtRp2686
(dp2687
g54
(dp2688
g81
g82
ssg63
g2677
sg56
(lp2689
S':'
asbag49
(g70
g51
NtRp2690
(dp2691
g54
(dp2692
sg63
g2677
sg56
(lp2693
g49
(g50
g51
NtRp2694
(dp2695
g54
(dp2696
g62
I3
ssg63
g2690
sg56
(lp2697
g1303
asbasbasbag49
(g65
g51
NtRp2698
(dp2699
g54
(dp2700
sg63
g2358
sg56
(lp2701
g49
(g70
g51
NtRp2702
(dp2703
g54
(dp2704
g74
g75
ssg63
g2698
sg56
(lp2705
S'SERVER_PORT'
p2706
asbag49
(g70
g51
NtRp2707
(dp2708
g54
(dp2709
g81
g82
ssg63
g2698
sg56
(lp2710
S':'
asbag49
(g70
g51
NtRp2711
(dp2712
g54
(dp2713
sg63
g2698
sg56
(lp2714
g49
(g50
g51
NtRp2715
(dp2716
g54
(dp2717
g62
I3
ssg63
g2711
sg56
(lp2718
g1325
asbasbasbag49
(g65
g51
NtRp2719
(dp2720
g54
(dp2721
sg63
g2358
sg56
(lp2722
g49
(g70
g51
NtRp2723
(dp2724
g54
(dp2725
g74
g75
ssg63
g2719
sg56
(lp2726
S'SERVER_PROTOCOL'
p2727
asbag49
(g70
g51
NtRp2728
(dp2729
g54
(dp2730
g81
g82
ssg63
g2719
sg56
(lp2731
S':'
asbag49
(g70
g51
NtRp2732
(dp2733
g54
(dp2734
sg63
g2719
sg56
(lp2735
g49
(g50
g51
NtRp2736
(dp2737
g54
(dp2738
g62
I3
ssg63
g2732
sg56
(lp2739
g1347
asbasbasbag49
(g65
g51
NtRp2740
(dp2741
g54
(dp2742
sg63
g2358
sg56
(lp2743
g49
(g70
g51
NtRp2744
(dp2745
g54
(dp2746
g74
g75
ssg63
g2740
sg56
(lp2747
S'SERVER_SOFTWARE'
p2748
asbag49
(g70
g51
NtRp2749
(dp2750
g54
(dp2751
g81
g82
ssg63
g2740
sg56
(lp2752
S':'
asbag49
(g70
g51
NtRp2753
(dp2754
g54
(dp2755
sg63
g2740
sg56
(lp2756
g49
(g50
g51
NtRp2757
(dp2758
g54
(dp2759
g62
I3
ssg63
g2753
sg56
(lp2760
g1369
asbasbasbag49
(g65
g51
NtRp2761
(dp2762
g54
(dp2763
sg63
g2358
sg56
(lp2764
g49
(g70
g51
NtRp2765
(dp2766
g54
(dp2767
g74
g75
ssg63
g2761
sg56
(lp2768
S'wsgi.errors'
p2769
asbag49
(g70
g51
NtRp2770
(dp2771
g54
(dp2772
g81
g82
ssg63
g2761
sg56
(lp2773
S':'
asbag49
(g70
g51
NtRp2774
(dp2775
g54
(dp2776
sg63
g2761
sg56
(lp2777
g49
(g50
g51
NtRp2778
(dp2779
g54
(dp2780
g62
I3
ssg63
g2774
sg56
(lp2781
S'<__main__.Stderr object at 0x0124A670>'
p2782
asbasbasbag49
(g65
g51
NtRp2783
(dp2784
g54
(dp2785
sg63
g2358
sg56
(lp2786
g49
(g70
g51
NtRp2787
(dp2788
g54
(dp2789
g74
g75
ssg63
g2783
sg56
(lp2790
S'wsgi.file_wrapper'
p2791
asbag49
(g70
g51
NtRp2792
(dp2793
g54
(dp2794
g81
g82
ssg63
g2783
sg56
(lp2795
S':'
asbag49
(g70
g51
NtRp2796
(dp2797
g54
(dp2798
sg63
g2783
sg56
(lp2799
g49
(g50
g51
NtRp2800
(dp2801
g54
(dp2802
g62
I3
ssg63
g2796
sg56
(lp2803
S'<class wsgiref.util.FileWrapper at 0x01BDBBA0>'
p2804
asbasbasbag49
(g65
g51
NtRp2805
(dp2806
g54
(dp2807
sg63
g2358
sg56
(lp2808
g49
(g70
g51
NtRp2809
(dp2810
g54
(dp2811
g74
g75
ssg63
g2805
sg56
(lp2812
S'wsgi.input'
p2813
asbag49
(g70
g51
NtRp2814
(dp2815
g54
(dp2816
g81
g82
ssg63
g2805
sg56
(lp2817
S':'
asbag49
(g70
g51
NtRp2818
(dp2819
g54
(dp2820
sg63
g2805
sg56
(lp2821
g49
(g50
g51
NtRp2822
(dp2823
g54
(dp2824
g62
I3
ssg63
g2818
sg56
(lp2825
S'<cStringIO.StringO object at 0x05B906C0>'
p2826
asbasbasbag49
(g65
g51
NtRp2827
(dp2828
g54
(dp2829
sg63
g2358
sg56
(lp2830
g49
(g70
g51
NtRp2831
(dp2832
g54
(dp2833
g74
g75
ssg63
g2827
sg56
(lp2834
S'wsgi.multiprocess'
p2835
asbag49
(g70
g51
NtRp2836
(dp2837
g54
(dp2838
g81
g82
ssg63
g2827
sg56
(lp2839
S':'
asbag49
(g70
g51
NtRp2840
(dp2841
g54
(dp2842
sg63
g2827
sg56
(lp2843
g49
(g50
g51
NtRp2844
(dp2845
g54
(dp2846
g62
I3
ssg63
g2840
sg56
(lp2847
g92
asbasbasbag49
(g65
g51
NtRp2848
(dp2849
g54
(dp2850
sg63
g2358
sg56
(lp2851
g49
(g70
g51
NtRp2852
(dp2853
g54
(dp2854
g74
g75
ssg63
g2848
sg56
(lp2855
S'wsgi.multithread'
p2856
asbag49
(g70
g51
NtRp2857
(dp2858
g54
(dp2859
g81
g82
ssg63
g2848
sg56
(lp2860
S':'
asbag49
(g70
g51
NtRp2861
(dp2862
g54
(dp2863
sg63
g2848
sg56
(lp2864
g49
(g50
g51
NtRp2865
(dp2866
g54
(dp2867
g62
I3
ssg63
g2861
sg56
(lp2868
g1609
asbasbasbag49
(g65
g51
NtRp2869
(dp2870
g54
(dp2871
sg63
g2358
sg56
(lp2872
g49
(g70
g51
NtRp2873
(dp2874
g54
(dp2875
g74
g75
ssg63
g2869
sg56
(lp2876
S'wsgi.run_once'
p2877
asbag49
(g70
g51
NtRp2878
(dp2879
g54
(dp2880
g81
g82
ssg63
g2869
sg56
(lp2881
S':'
asbag49
(g70
g51
NtRp2882
(dp2883
g54
(dp2884
sg63
g2869
sg56
(lp2885
g49
(g50
g51
NtRp2886
(dp2887
g54
(dp2888
g62
I3
ssg63
g2882
sg56
(lp2889
g92
asbasbasbag49
(g65
g51
NtRp2890
(dp2891
g54
(dp2892
sg63
g2358
sg56
(lp2893
g49
(g70
g51
NtRp2894
(dp2895
g54
(dp2896
g74
g75
ssg63
g2890
sg56
(lp2897
S'wsgi.url_scheme'
p2898
asbag49
(g70
g51
NtRp2899
(dp2900
g54
(dp2901
g81
g82
ssg63
g2890
sg56
(lp2902
S':'
asbag49
(g70
g51
NtRp2903
(dp2904
g54
(dp2905
sg63
g2890
sg56
(lp2906
g49
(g50
g51
NtRp2907
(dp2908
g54
(dp2909
g62
I3
ssg63
g2903
sg56
(lp2910
g1652
asbasbasbag49
(g65
g51
NtRp2911
(dp2912
g54
(dp2913
sg63
g2358
sg56
(lp2914
g49
(g70
g51
NtRp2915
(dp2916
g54
(dp2917
g74
g75
ssg63
g2911
sg56
(lp2918
S'wsgi.version'
p2919
asbag49
(g70
g51
NtRp2920
(dp2921
g54
(dp2922
g81
g82
ssg63
g2911
sg56
(lp2923
S':'
asbag49
(g70
g51
NtRp2924
(dp2925
g54
(dp2926
sg63
g2911
sg56
(lp2927
g49
(g50
g51
NtRp2928
(dp2929
g54
(dp2930
g62
I3
ssg63
g2924
sg56
(lp2931
S'1'
asbasbasbasbasbasbasbasbasbasbasbasbasbsS'frames'
p2932
(lp2933
(dp2934
S'file'
p2935
S'C:\\Users\\nilton\\Desktop\\scripts\\curso_de_python\\web2py\\gluon\\restricted.py'
p2936
sS'dump'
p2937
(dp2938
sS'lnum'
p2939
I204
sS'lines'
p2940
(dp2941
sS'call'
p2942
S'(code=r"response.write(\'<!DOCTYPE html>\\n<!-- paulirish....ponse.write(\'\\n</body>\\n</html>\\n\', escape=False)", environment={\'A\': <class \'gluon.html.A\'>, \'Auth\': <class \'gluon.tools.Auth\'>, \'B\': <class \'gluon.html.B\'>, \'BEAUTIFY\': <class \'gluon.html.BEAUTIFY\'>, \'BODY\': <class \'gluon.html.BODY\'>, \'BR\': <class \'gluon.html.BR\'>, \'BUTTON\': <class \'gluon.html.BUTTON\'>, \'CAT\': <class \'gluon.html.CAT\'>, \'CENTER\': <class \'gluon.html.CENTER\'>, \'CLEANUP\': <class \'gluon.validators.CLEANUP\'>, ...}, layer=r\'C:\\Users\\nilton\\Desktop\\scripts\\curso_de_python\\web2py\\applications\\xcpadmin\\views\\listvm/index.html\')'
p2943
sS'func'
p2944
S'restricted'
p2945
sa(dp2946
g2935
S'C:\\Users\\nilton\\Desktop\\scripts\\curso_de_python\\web2py\\applications\\xcpadmin\\views\\listvm\\index.html'
p2947
sg2937
(dp2948
sg2939
I82
sg2940
(dp2949
I73
S'response.write(\' columns center">\\n          \', escape=False)'
p2950
sI74
S"response.write('\\n          ', escape=False)"
p2951
sI75
S'response.write(\'\\r\\n<h3>LIST VMs</h3>\\r\\n\\r\\n\\r\\n\\r\\n<table class="blahblahblah">\\r\\n<th> \', escape=False)'
p2952
sI76
S'T("Title")'
p2953
sI77
S"response.write(' </th>\\r\\n<th> ', escape=False)"
p2954
sI78
S'T("Location")'
p2955
sI79
S"response.write(' </th>\\r\\n', escape=False)"
p2956
sI80
S'for row in table:'
p2957
sI81
S"    response.write('\\r\\n<tr> \\r\\n<td>', escape=False)"
p2958
sI82
S'    response.write(row["name_label"])'
p2959
sI83
S"    response.write(' </td>\\r\\n</tr>\\r\\n', escape=False)"
p2960
sI84
S'    pass'
p2961
sI85
S"response.write('\\r\\n</table>\\r\\n', escape=False)"
p2962
sI86
S"response.write('\\n          ', escape=False)"
p2963
sI87
S"response.write('\\n        </div>\\n        \\n        ', escape=False)"
p2964
sI88
S'if right_sidebar_enabled:'
p2965
sI89
S'    response.write(\'\\n        <div class="four columns">\\n          \', escape=False)'
p2966
sI90
S"    response.write('\\n          <h3>Right Sidebar</h3>\\n          <p></p>\\n          ', escape=False)"
p2967
sI91
S"    response.write('\\n        </div>    \\n        ', escape=False)"
p2968
sI92
S'    pass'
p2969
ssg2942
S'()'
p2970
sg2944
S'<module>'
p2971
sasS'pyver'
p2972
S'Python 2.5.4: C:\\Users\\nilton\\Desktop\\scripts\\curso_de_python\\web2py\\web2py_no_console.exe'
p2973
sS'session'
p2974
g49
(g50
g51
NtRp2975
(dp2976
g54
(dp2977
sg56
(lp2978
g49
(g58
g51
NtRp2979
(dp2980
g54
(dp2981
g62
I5
ssg63
Nsg56
(lp2982
sbasbsS'etype'
p2983
S"<type 'exceptions.TypeError'>"
p2984
sS'date'
p2985
S'Tue Jan 24 12:10:27 2012'
p2986
sS'response'
p2987
g49
(g50
g51
NtRp2988
(dp2989
g54
(dp2990
sg56
(lp2991
g49
(g58
g51
NtRp2992
(dp2993
g54
(dp2994
g62
I5
ssg63
Nsg56
(lp2995
g49
(g65
g51
NtRp2996
(dp2997
g54
(dp2998
sg63
g2992
sg56
(lp2999
g49
(g70
g51
NtRp3000
(dp3001
g54
(dp3002
g74
g75
ssg63
g2996
sg56
(lp3003
g147
asbag49
(g70
g51
NtRp3004
(dp3005
g54
(dp3006
g81
g82
ssg63
g2996
sg56
(lp3007
S':'
asbag49
(g70
g51
NtRp3008
(dp3009
g54
(dp3010
sg63
g2996
sg56
(lp3011
g49
(g50
g51
NtRp3012
(dp3013
g54
(dp3014
g62
I5
ssg63
g3008
sg56
(lp3015
S'<cStringIO.StringO object at 0x05D17A20>'
p3016
asbasbasbag49
(g65
g51
NtRp3017
(dp3018
g54
(dp3019
sg63
g2992
sg56
(lp3020
g49
(g70
g51
NtRp3021
(dp3022
g54
(dp3023
g74
g75
ssg63
g3017
sg56
(lp3024
g213
asbag49
(g70
g51
NtRp3025
(dp3026
g54
(dp3027
g81
g82
ssg63
g3017
sg56
(lp3028
S':'
asbag49
(g70
g51
NtRp3029
(dp3030
g54
(dp3031
sg63
g3017
sg56
(lp3032
g49
(g50
g51
NtRp3033
(dp3034
g54
(dp3035
g62
I5
ssg63
g3029
sg56
(lp3036
g49
(g58
g51
NtRp3037
(dp3038
g54
(dp3039
g62
I4
ssg63
Nsg56
(lp3040
g49
(g65
g51
NtRp3041
(dp3042
g54
(dp3043
sg63
g3037
sg56
(lp3044
g49
(g70
g51
NtRp3045
(dp3046
g54
(dp3047
g74
g75
ssg63
g3041
sg56
(lp3048
S'session_id_xcpadmin'
p3049
asbag49
(g70
g51
NtRp3050
(dp3051
g54
(dp3052
g81
g82
ssg63
g3041
sg56
(lp3053
S':'
asbag49
(g70
g51
NtRp3054
(dp3055
g54
(dp3056
sg63
g3041
sg56
(lp3057
g49
(g50
g51
NtRp3058
(dp3059
g54
(dp3060
g62
I4
ssg63
g3054
sg56
(lp3061
g49
(g58
g51
NtRp3062
(dp3063
g54
(dp3064
g62
I3
ssg63
Nsg56
(lp3065
g49
(g65
g51
NtRp3066
(dp3067
g54
(dp3068
sg63
g3062
sg56
(lp3069
g49
(g70
g51
NtRp3070
(dp3071
g54
(dp3072
g74
g75
ssg63
g3066
sg56
(lp3073
g263
asbag49
(g70
g51
NtRp3074
(dp3075
g54
(dp3076
g81
g82
ssg63
g3066
sg56
(lp3077
S':'
asbag49
(g70
g51
NtRp3078
(dp3079
g54
(dp3080
sg63
g3066
sg56
(lp3081
g49
(g50
g51
NtRp3082
(dp3083
g54
(dp3084
g62
I3
ssg63
g3078
sg56
(lp3085
S''
asbasbasbag49
(g65
g51
NtRp3086
(dp3087
g54
(dp3088
sg63
g3062
sg56
(lp3089
g49
(g70
g51
NtRp3090
(dp3091
g54
(dp3092
g74
g75
ssg63
g3086
sg56
(lp3093
g284
asbag49
(g70
g51
NtRp3094
(dp3095
g54
(dp3096
g81
g82
ssg63
g3086
sg56
(lp3097
S':'
asbag49
(g70
g51
NtRp3098
(dp3099
g54
(dp3100
sg63
g3086
sg56
(lp3101
g49
(g50
g51
NtRp3102
(dp3103
g54
(dp3104
g62
I3
ssg63
g3098
sg56
(lp3105
S''
asbasbasbag49
(g65
g51
NtRp3106
(dp3107
g54
(dp3108
sg63
g3062
sg56
(lp3109
g49
(g70
g51
NtRp3110
(dp3111
g54
(dp3112
g74
g75
ssg63
g3106
sg56
(lp3113
g305
asbag49
(g70
g51
NtRp3114
(dp3115
g54
(dp3116
g81
g82
ssg63
g3106
sg56
(lp3117
S':'
asbag49
(g70
g51
NtRp3118
(dp3119
g54
(dp3120
sg63
g3106
sg56
(lp3121
g49
(g50
g51
NtRp3122
(dp3123
g54
(dp3124
g62
I3
ssg63
g3118
sg56
(lp3125
S''
asbasbasbag49
(g65
g51
NtRp3126
(dp3127
g54
(dp3128
sg63
g3062
sg56
(lp3129
g49
(g70
g51
NtRp3130
(dp3131
g54
(dp3132
g74
g75
ssg63
g3126
sg56
(lp3133
g326
asbag49
(g70
g51
NtRp3134
(dp3135
g54
(dp3136
g81
g82
ssg63
g3126
sg56
(lp3137
S':'
asbag49
(g70
g51
NtRp3138
(dp3139
g54
(dp3140
sg63
g3126
sg56
(lp3141
g49
(g50
g51
NtRp3142
(dp3143
g54
(dp3144
g62
I3
ssg63
g3138
sg56
(lp3145
S''
asbasbasbag49
(g65
g51
NtRp3146
(dp3147
g54
(dp3148
sg63
g3062
sg56
(lp3149
g49
(g70
g51
NtRp3150
(dp3151
g54
(dp3152
g74
g75
ssg63
g3146
sg56
(lp3153
g347
asbag49
(g70
g51
NtRp3154
(dp3155
g54
(dp3156
g81
g82
ssg63
g3146
sg56
(lp3157
S':'
asbag49
(g70
g51
NtRp3158
(dp3159
g54
(dp3160
sg63
g3146
sg56
(lp3161
g49
(g50
g51
NtRp3162
(dp3163
g54
(dp3164
g62
I3
ssg63
g3158
sg56
(lp3165
S'/'
asbasbasbag49
(g65
g51
NtRp3166
(dp3167
g54
(dp3168
sg63
g3062
sg56
(lp3169
g49
(g70
g51
NtRp3170
(dp3171
g54
(dp3172
g74
g75
ssg63
g3166
sg56
(lp3173
g368
asbag49
(g70
g51
NtRp3174
(dp3175
g54
(dp3176
g81
g82
ssg63
g3166
sg56
(lp3177
S':'
asbag49
(g70
g51
NtRp3178
(dp3179
g54
(dp3180
sg63
g3166
sg56
(lp3181
g49
(g50
g51
NtRp3182
(dp3183
g54
(dp3184
g62
I3
ssg63
g3178
sg56
(lp3185
S''
asbasbasbag49
(g65
g51
NtRp3186
(dp3187
g54
(dp3188
sg63
g3062
sg56
(lp3189
g49
(g70
g51
NtRp3190
(dp3191
g54
(dp3192
g74
g75
ssg63
g3186
sg56
(lp3193
g389
asbag49
(g70
g51
NtRp3194
(dp3195
g54
(dp3196
g81
g82
ssg63
g3186
sg56
(lp3197
S':'
asbag49
(g70
g51
NtRp3198
(dp3199
g54
(dp3200
sg63
g3186
sg56
(lp3201
g49
(g50
g51
NtRp3202
(dp3203
g54
(dp3204
g62
I3
ssg63
g3198
sg56
(lp3205
S''
asbasbasbasbasbasbasbasbasbasbasbag49
(g65
g51
NtRp3206
(dp3207
g54
(dp3208
sg63
g2992
sg56
(lp3209
g49
(g70
g51
NtRp3210
(dp3211
g54
(dp3212
g74
g75
ssg63
g3206
sg56
(lp3213
S'files'
p3214
asbag49
(g70
g51
NtRp3215
(dp3216
g54
(dp3217
g81
g82
ssg63
g3206
sg56
(lp3218
S':'
asbag49
(g70
g51
NtRp3219
(dp3220
g54
(dp3221
sg63
g3206
sg56
(lp3222
g49
(g50
g51
NtRp3223
(dp3224
g54
(dp3225
g62
I5
ssg63
g3219
sg56
(lp3226
g49
(g58
g51
NtRp3227
(dp3228
g54
(dp3229
g62
I4
ssg63
Nsg56
(lp3230
g49
(g65
g51
NtRp3231
(dp3232
g54
(dp3233
sg63
g3227
sg56
(lp3234
g49
(g70
g51
NtRp3235
(dp3236
g54
(dp3237
sg63
g3231
sg56
(lp3238
g49
(g50
g51
NtRp3239
(dp3240
g54
(dp3241
g62
I4
ssg63
g3235
sg56
(lp3242
S'/xcpadmin/static/js/jquery.js'
p3243
asbasbasbag49
(g65
g51
NtRp3244
(dp3245
g54
(dp3246
sg63
g3227
sg56
(lp3247
g49
(g70
g51
NtRp3248
(dp3249
g54
(dp3250
sg63
g3244
sg56
(lp3251
g49
(g50
g51
NtRp3252
(dp3253
g54
(dp3254
g62
I4
ssg63
g3248
sg56
(lp3255
S'/xcpadmin/static/css/calendar.css'
p3256
asbasbasbag49
(g65
g51
NtRp3257
(dp3258
g54
(dp3259
sg63
g3227
sg56
(lp3260
g49
(g70
g51
NtRp3261
(dp3262
g54
(dp3263
sg63
g3257
sg56
(lp3264
g49
(g50
g51
NtRp3265
(dp3266
g54
(dp3267
g62
I4
ssg63
g3261
sg56
(lp3268
S'/xcpadmin/static/js/calendar.js'
p3269
asbasbasbag49
(g65
g51
NtRp3270
(dp3271
g54
(dp3272
sg63
g3227
sg56
(lp3273
g49
(g70
g51
NtRp3274
(dp3275
g54
(dp3276
sg63
g3270
sg56
(lp3277
g49
(g50
g51
NtRp3278
(dp3279
g54
(dp3280
g62
I4
ssg63
g3274
sg56
(lp3281
S'/xcpadmin/static/js/web2py.js'
p3282
asbasbasbag49
(g65
g51
NtRp3283
(dp3284
g54
(dp3285
sg63
g3227
sg56
(lp3286
g49
(g70
g51
NtRp3287
(dp3288
g54
(dp3289
sg63
g3283
sg56
(lp3290
g49
(g50
g51
NtRp3291
(dp3292
g54
(dp3293
g62
I4
ssg63
g3287
sg56
(lp3294
S'/xcpadmin/static/css/skeleton.css'
p3295
asbasbasbag49
(g65
g51
NtRp3296
(dp3297
g54
(dp3298
sg63
g3227
sg56
(lp3299
g49
(g70
g51
NtRp3300
(dp3301
g54
(dp3302
sg63
g3296
sg56
(lp3303
g49
(g50
g51
NtRp3304
(dp3305
g54
(dp3306
g62
I4
ssg63
g3300
sg56
(lp3307
S'/xcpadmin/static/css/web2py.css'
p3308
asbasbasbag49
(g65
g51
NtRp3309
(dp3310
g54
(dp3311
sg63
g3227
sg56
(lp3312
g49
(g70
g51
NtRp3313
(dp3314
g54
(dp3315
sg63
g3309
sg56
(lp3316
g49
(g50
g51
NtRp3317
(dp3318
g54
(dp3319
g62
I4
ssg63
g3313
sg56
(lp3320
S'/xcpadmin/static/css/superfish.css'
p3321
asbasbasbag49
(g65
g51
NtRp3322
(dp3323
g54
(dp3324
sg63
g3227
sg56
(lp3325
g49
(g70
g51
NtRp3326
(dp3327
g54
(dp3328
sg63
g3322
sg56
(lp3329
g49
(g50
g51
NtRp3330
(dp3331
g54
(dp3332
g62
I4
ssg63
g3326
sg56
(lp3333
S'/xcpadmin/static/js/superfish.js'
p3334
asbasbasbasbasbasbasbag49
(g65
g51
NtRp3335
(dp3336
g54
(dp3337
sg63
g2992
sg56
(lp3338
g49
(g70
g51
NtRp3339
(dp3340
g54
(dp3341
g74
g75
ssg63
g3335
sg56
(lp3342
S'flash'
p3343
asbag49
(g70
g51
NtRp3344
(dp3345
g54
(dp3346
g81
g82
ssg63
g3335
sg56
(lp3347
S':'
asbag49
(g70
g51
NtRp3348
(dp3349
g54
(dp3350
sg63
g3335
sg56
(lp3351
g49
(g50
g51
NtRp3352
(dp3353
g54
(dp3354
g62
I5
ssg63
g3348
sg56
(lp3355
S''
asbasbasbag49
(g65
g51
NtRp3356
(dp3357
g54
(dp3358
sg63
g2992
sg56
(lp3359
g49
(g70
g51
NtRp3360
(dp3361
g54
(dp3362
g74
g75
ssg63
g3356
sg56
(lp3363
S'generic_patterns'
p3364
asbag49
(g70
g51
NtRp3365
(dp3366
g54
(dp3367
g81
g82
ssg63
g3356
sg56
(lp3368
S':'
asbag49
(g70
g51
NtRp3369
(dp3370
g54
(dp3371
sg63
g3356
sg56
(lp3372
g49
(g50
g51
NtRp3373
(dp3374
g54
(dp3375
g62
I5
ssg63
g3369
sg56
(lp3376
g49
(g58
g51
NtRp3377
(dp3378
g54
(dp3379
g62
I4
ssg63
Nsg56
(lp3380
g49
(g65
g51
NtRp3381
(dp3382
g54
(dp3383
sg63
g3377
sg56
(lp3384
g49
(g70
g51
NtRp3385
(dp3386
g54
(dp3387
sg63
g3381
sg56
(lp3388
g49
(g50
g51
NtRp3389
(dp3390
g54
(dp3391
g62
I4
ssg63
g3385
sg56
(lp3392
S'*'
asbasbasbasbasbasbasbag49
(g65
g51
NtRp3393
(dp3394
g54
(dp3395
sg63
g2992
sg56
(lp3396
g49
(g70
g51
NtRp3397
(dp3398
g54
(dp3399
g74
g75
ssg63
g3393
sg56
(lp3400
S'headers'
p3401
asbag49
(g70
g51
NtRp3402
(dp3403
g54
(dp3404
g81
g82
ssg63
g3393
sg56
(lp3405
S':'
asbag49
(g70
g51
NtRp3406
(dp3407
g54
(dp3408
sg63
g3393
sg56
(lp3409
g49
(g50
g51
NtRp3410
(dp3411
g54
(dp3412
g62
I5
ssg63
g3406
sg56
(lp3413
g49
(g58
g51
NtRp3414
(dp3415
g54
(dp3416
g62
I4
ssg63
Nsg56
(lp3417
g49
(g65
g51
NtRp3418
(dp3419
g54
(dp3420
sg63
g3414
sg56
(lp3421
g49
(g70
g51
NtRp3422
(dp3423
g54
(dp3424
g74
g75
ssg63
g3418
sg56
(lp3425
S'Cache-Control'
p3426
asbag49
(g70
g51
NtRp3427
(dp3428
g54
(dp3429
g81
g82
ssg63
g3418
sg56
(lp3430
S':'
asbag49
(g70
g51
NtRp3431
(dp3432
g54
(dp3433
sg63
g3418
sg56
(lp3434
g49
(g50
g51
NtRp3435
(dp3436
g54
(dp3437
g62
I4
ssg63
g3431
sg56
(lp3438
S'no-store, no-cache, must-revalidate, post-check=0, pre-check=0'
p3439
asbasbasbag49
(g65
g51
NtRp3440
(dp3441
g54
(dp3442
sg63
g3414
sg56
(lp3443
g49
(g70
g51
NtRp3444
(dp3445
g54
(dp3446
g74
g75
ssg63
g3440
sg56
(lp3447
S'Content-Type'
p3448
asbag49
(g70
g51
NtRp3449
(dp3450
g54
(dp3451
g81
g82
ssg63
g3440
sg56
(lp3452
S':'
asbag49
(g70
g51
NtRp3453
(dp3454
g54
(dp3455
sg63
g3440
sg56
(lp3456
g49
(g50
g51
NtRp3457
(dp3458
g54
(dp3459
g62
I4
ssg63
g3453
sg56
(lp3460
S'text/html; charset=utf-8'
p3461
asbasbasbag49
(g65
g51
NtRp3462
(dp3463
g54
(dp3464
sg63
g3414
sg56
(lp3465
g49
(g70
g51
NtRp3466
(dp3467
g54
(dp3468
g74
g75
ssg63
g3462
sg56
(lp3469
S'Expires'
p3470
asbag49
(g70
g51
NtRp3471
(dp3472
g54
(dp3473
g81
g82
ssg63
g3462
sg56
(lp3474
S':'
asbag49
(g70
g51
NtRp3475
(dp3476
g54
(dp3477
sg63
g3462
sg56
(lp3478
g49
(g50
g51
NtRp3479
(dp3480
g54
(dp3481
g62
I4
ssg63
g3475
sg56
(lp3482
S'Tue, 24 Jan 2012 14:10:18 GMT'
p3483
asbasbasbag49
(g65
g51
NtRp3484
(dp3485
g54
(dp3486
sg63
g3414
sg56
(lp3487
g49
(g70
g51
NtRp3488
(dp3489
g54
(dp3490
g74
g75
ssg63
g3484
sg56
(lp3491
S'Pragma'
p3492
asbag49
(g70
g51
NtRp3493
(dp3494
g54
(dp3495
g81
g82
ssg63
g3484
sg56
(lp3496
S':'
asbag49
(g70
g51
NtRp3497
(dp3498
g54
(dp3499
sg63
g3484
sg56
(lp3500
g49
(g50
g51
NtRp3501
(dp3502
g54
(dp3503
g62
I4
ssg63
g3497
sg56
(lp3504
S'no-cache'
p3505
asbasbasbag49
(g65
g51
NtRp3506
(dp3507
g54
(dp3508
sg63
g3414
sg56
(lp3509
g49
(g70
g51
NtRp3510
(dp3511
g54
(dp3512
g74
g75
ssg63
g3506
sg56
(lp3513
S'X-Powered-By'
p3514
asbag49
(g70
g51
NtRp3515
(dp3516
g54
(dp3517
g81
g82
ssg63
g3506
sg56
(lp3518
S':'
asbag49
(g70
g51
NtRp3519
(dp3520
g54
(dp3521
sg63
g3506
sg56
(lp3522
g49
(g50
g51
NtRp3523
(dp3524
g54
(dp3525
g62
I4
ssg63
g3519
sg56
(lp3526
S'web2py'
p3527
asbasbasbasbasbasbasbag49
(g65
g51
NtRp3528
(dp3529
g54
(dp3530
sg63
g2992
sg56
(lp3531
g49
(g70
g51
NtRp3532
(dp3533
g54
(dp3534
g74
g75
ssg63
g3528
sg56
(lp3535
S'menu'
p3536
asbag49
(g70
g51
NtRp3537
(dp3538
g54
(dp3539
g81
g82
ssg63
g3528
sg56
(lp3540
S':'
asbag49
(g70
g51
NtRp3541
(dp3542
g54
(dp3543
sg63
g3528
sg56
(lp3544
g49
(g50
g51
NtRp3545
(dp3546
g54
(dp3547
g62
I5
ssg63
g3541
sg56
(lp3548
g49
(g58
g51
NtRp3549
(dp3550
g54
(dp3551
g62
I4
ssg63
Nsg56
(lp3552
g49
(g65
g51
NtRp3553
(dp3554
g54
(dp3555
sg63
g3549
sg56
(lp3556
g49
(g70
g51
NtRp3557
(dp3558
g54
(dp3559
sg63
g3553
sg56
(lp3560
g49
(g50
g51
NtRp3561
(dp3562
g54
(dp3563
g62
I4
ssg63
g3557
sg56
(lp3564
g49
(g58
g51
NtRp3565
(dp3566
g54
(dp3567
g62
I3
ssg63
Nsg56
(lp3568
g49
(g65
g51
NtRp3569
(dp3570
g54
(dp3571
sg63
g3565
sg56
(lp3572
g49
(g70
g51
NtRp3573
(dp3574
g54
(dp3575
sg63
g3569
sg56
(lp3576
g49
(g50
g51
NtRp3577
(dp3578
g54
(dp3579
g62
I3
ssg63
g3573
sg56
(lp3580
cgluon.languages
lazyT_unpickle
p3581
(S't\x04\x00\x00\x00Home'
tRp3582
asbasbasbag49
(g65
g51
NtRp3583
(dp3584
g54
(dp3585
sg63
g3565
sg56
(lp3586
g49
(g70
g51
NtRp3587
(dp3588
g54
(dp3589
sg63
g3583
sg56
(lp3590
g49
(g50
g51
NtRp3591
(dp3592
g54
(dp3593
g62
I3
ssg63
g3587
sg56
(lp3594
g92
asbasbasbag49
(g65
g51
NtRp3595
(dp3596
g54
(dp3597
sg63
g3565
sg56
(lp3598
g49
(g70
g51
NtRp3599
(dp3600
g54
(dp3601
sg63
g3595
sg56
(lp3602
g49
(g50
g51
NtRp3603
(dp3604
g54
(dp3605
g62
I3
ssg63
g3599
sg56
(lp3606
S'/xcpadmin/default/index'
p3607
asbasbasbag49
(g65
g51
NtRp3608
(dp3609
g54
(dp3610
sg63
g3565
sg56
(lp3611
g49
(g70
g51
NtRp3612
(dp3613
g54
(dp3614
sg63
g3608
sg56
(lp3615
g49
(g50
g51
NtRp3616
(dp3617
g54
(dp3618
g62
I3
ssg63
g3612
sg56
(lp3619
g49
(g58
g51
NtRp3620
(dp3621
g54
(dp3622
g62
I2
ssg63
Nsg56
(lp3623
sbasbasbasbasbasbasbasbag49
(g65
g51
NtRp3624
(dp3625
g54
(dp3626
sg63
g3549
sg56
(lp3627
g49
(g70
g51
NtRp3628
(dp3629
g54
(dp3630
sg63
g3624
sg56
(lp3631
g49
(g50
g51
NtRp3632
(dp3633
g54
(dp3634
g62
I4
ssg63
g3628
sg56
(lp3635
g49
(g58
g51
NtRp3636
(dp3637
g54
(dp3638
g62
I3
ssg63
Nsg56
(lp3639
g49
(g65
g51
NtRp3640
(dp3641
g54
(dp3642
sg63
g3636
sg56
(lp3643
g49
(g70
g51
NtRp3644
(dp3645
g54
(dp3646
sg63
g3640
sg56
(lp3647
g49
(g50
g51
NtRp3648
(dp3649
g54
(dp3650
g62
I3
ssg63
g3644
sg56
(lp3651
g49
(cgluon.html
SPAN
p3652
g51
NtRp3653
(dp3654
g54
(dp3655
g74
S'color:yellow'
p3656
ssg63
g49
(cgluon.html
A
p3657
g51
NtRp3658
(dp3659
g54
(dp3660
S'_onclick'
p3661
S'javascript:void(0);return false;'
p3662
sS'_href'
p3663
S'#'
ssg63
g49
(cgluon.html
LI
p3664
g51
NtRp3665
(dp3666
g54
(dp3667
S'_class'
p3668
S'web2py-menu-expand'
p3669
ssg63
g49
(cgluon.html
UL
p3670
g51
NtRp3671
(dp3672
g54
(dp3673
S'mobile'
p3674
I00
sS'li_class'
p3675
g3669
sg3668
S'sf-menu'
p3676
sS'ul_class'
p3677
S'web2py-menu-vertical'
p3678
sS'li_active'
p3679
S'web2py-menu-active'
p3680
ssg63
Nsg56
(lp3681
g49
(g3664
g51
NtRp3682
(dp3683
g54
(dp3684
sg63
g3671
sg56
(lp3685
g49
(g3657
g51
NtRp3686
(dp3687
g54
(dp3688
g3663
g3607
ssg63
g3682
sg56
(lp3689
g3582
asbasbag3665
asbsg56
(lp3690
g3658
ag49
(g3670
g51
NtRp3691
(dp3692
g54
(dp3693
g3668
g3678
ssg63
g3665
sg56
(lp3694
g49
(g3664
g51
NtRp3695
(dp3696
g54
(dp3697
sg63
g3691
sg56
(lp3698
g49
(g3657
g51
NtRp3699
(dp3700
g54
(dp3701
g3663
S'/admin/default/site'
p3702
ssg63
g3695
sg56
(lp3703
g3581
(S's\x08\x00\x00\x00My Sites'
tRp3704
asbasbag49
(g3664
g51
NtRp3705
(dp3706
g54
(dp3707
g3668
g3669
ssg63
g3691
sg56
(lp3708
g49
(g3657
g51
NtRp3709
(dp3710
g54
(dp3711
g3663
S'/admin/default/design/xcpadmin'
p3712
ssg63
g3705
sg56
(lp3713
g3581
(S's\x08\x00\x00\x00This App'
tRp3714
asbag49
(g3670
g51
NtRp3715
(dp3716
g54
(dp3717
g3668
g3678
ssg63
g3705
sg56
(lp3718
g49
(g3664
g51
NtRp3719
(dp3720
g54
(dp3721
sg63
g3715
sg56
(lp3722
g49
(g3657
g51
NtRp3723
(dp3724
g54
(dp3725
g3663
S'/admin/default/edit/xcpadmin/controllers/listvm.py'
p3726
ssg63
g3719
sg56
(lp3727
g3581
(S't\x0b\x00\x00\x00Controlador'
tRp3728
asbasbag49
(g3664
g51
NtRp3729
(dp3730
g54
(dp3731
sg63
g3715
sg56
(lp3732
g49
(g3657
g51
NtRp3733
(dp3734
g54
(dp3735
g3663
S'/admin/default/edit/xcpadmin/views/listvm/index.html'
p3736
ssg63
g3729
sg56
(lp3737
g3581
(S's\x0e\x00\x00\x00Visualiza\xc3\xa7\xc3\xa3o'
tRp3738
asbasbag49
(g3664
g51
NtRp3739
(dp3740
g54
(dp3741
sg63
g3715
sg56
(lp3742
g49
(g3657
g51
NtRp3743
(dp3744
g54
(dp3745
g3663
S'/admin/default/edit/xcpadmin/views/layout.html'
p3746
ssg63
g3739
sg56
(lp3747
g3581
(S't\x06\x00\x00\x00Layout'
tRp3748
asbasbag49
(g3664
g51
NtRp3749
(dp3750
g54
(dp3751
sg63
g3715
sg56
(lp3752
g49
(g3657
g51
NtRp3753
(dp3754
g54
(dp3755
g3663
S'/admin/default/edit/xcpadmin/static/css/web2py.css'
p3756
ssg63
g3749
sg56
(lp3757
g3581
(S't\n\x00\x00\x00Stylesheet'
tRp3758
asbasbag49
(g3664
g51
NtRp3759
(dp3760
g54
(dp3761
sg63
g3715
sg56
(lp3762
g49
(g3657
g51
NtRp3763
(dp3764
g54
(dp3765
g3663
S'/admin/default/edit/xcpadmin/models/db.py'
p3766
ssg63
g3759
sg56
(lp3767
g3581
(S's\t\x00\x00\x00Modelo BD'
tRp3768
asbasbag49
(g3664
g51
NtRp3769
(dp3770
g54
(dp3771
sg63
g3715
sg56
(lp3772
g49
(g3657
g51
NtRp3773
(dp3774
g54
(dp3775
g3663
S'/admin/default/edit/xcpadmin/models/menu.py'
p3776
ssg63
g3769
sg56
(lp3777
g3581
(S's\x0e\x00\x00\x00Modelo de Menu'
tRp3778
asbasbag49
(g3664
g51
NtRp3779
(dp3780
g54
(dp3781
sg63
g3715
sg56
(lp3782
g49
(g3657
g51
NtRp3783
(dp3784
g54
(dp3785
g3663
S'/xcpadmin/appadmin/index'
p3786
ssg63
g3779
sg56
(lp3787
g3581
(S's\x0e\x00\x00\x00Banco de dados'
tRp3788
asbasbag49
(g3664
g51
NtRp3789
(dp3790
g54
(dp3791
sg63
g3715
sg56
(lp3792
g49
(g3657
g51
NtRp3793
(dp3794
g54
(dp3795
g3663
S'/admin/default/errors/xcpadmin'
p3796
ssg63
g3789
sg56
(lp3797
g3581
(S't\x06\x00\x00\x00Errors'
tRp3798
asbasbag49
(g3664
g51
NtRp3799
(dp3800
g54
(dp3801
sg63
g3715
sg56
(lp3802
g49
(g3657
g51
NtRp3803
(dp3804
g54
(dp3805
g3663
S'/admin/default/about/xcpadmin'
p3806
ssg63
g3799
sg56
(lp3807
g3581
(S't\x05\x00\x00\x00About'
tRp3808
asbasbasbasbag49
(g3664
g51
NtRp3809
(dp3810
g54
(dp3811
g3668
g3669
ssg63
g3691
sg56
(lp3812
g49
(g3657
g51
NtRp3813
(dp3814
g54
(dp3815
g3663
S'http://www.web2py.com'
p3816
ssg63
g3809
sg56
(lp3817
S'web2py.com'
p3818
asbag49
(g3670
g51
NtRp3819
(dp3820
g54
(dp3821
g3668
g3678
ssg63
g3809
sg56
(lp3822
g49
(g3664
g51
NtRp3823
(dp3824
g54
(dp3825
sg63
g3819
sg56
(lp3826
g49
(g3657
g51
NtRp3827
(dp3828
g54
(dp3829
g3663
S'http://www.web2py.com/examples/default/download'
p3830
ssg63
g3823
sg56
(lp3831
g3581
(S't\x08\x00\x00\x00Download'
tRp3832
asbasbag49
(g3664
g51
NtRp3833
(dp3834
g54
(dp3835
sg63
g3819
sg56
(lp3836
g49
(g3657
g51
NtRp3837
(dp3838
g54
(dp3839
g3663
S'http://www.web2py.com/examples/default/support'
p3840
ssg63
g3833
sg56
(lp3841
g3581
(S't\x07\x00\x00\x00Support'
tRp3842
asbasbag49
(g3664
g51
NtRp3843
(dp3844
g54
(dp3845
sg63
g3819
sg56
(lp3846
g49
(g3657
g51
NtRp3847
(dp3848
g54
(dp3849
g3663
S'http://web2py.com/demo_admin'
p3850
ssg63
g3843
sg56
(lp3851
g3581
(S't\x04\x00\x00\x00Demo'
tRp3852
asbasbag49
(g3664
g51
NtRp3853
(dp3854
g54
(dp3855
sg63
g3819
sg56
(lp3856
g49
(g3657
g51
NtRp3857
(dp3858
g54
(dp3859
g3663
S'http://web2py.com/examples/default/examples'
p3860
ssg63
g3853
sg56
(lp3861
g3581
(S's\x0e\x00\x00\x00Quick Examples'
tRp3862
asbasbag49
(g3664
g51
NtRp3863
(dp3864
g54
(dp3865
sg63
g3819
sg56
(lp3866
g49
(g3657
g51
NtRp3867
(dp3868
g54
(dp3869
g3663
S'http://web2py.com/AlterEgo'
p3870
ssg63
g3863
sg56
(lp3871
g3581
(S't\x03\x00\x00\x00FAQ'
tRp3872
asbasbag49
(g3664
g51
NtRp3873
(dp3874
g54
(dp3875
sg63
g3819
sg56
(lp3876
g49
(g3657
g51
NtRp3877
(dp3878
g54
(dp3879
g3663
S'http://www.web2py.com/examples/default/videos/'
p3880
ssg63
g3873
sg56
(lp3881
g3581
(S't\x06\x00\x00\x00Videos'
tRp3882
asbasbag49
(g3664
g51
NtRp3883
(dp3884
g54
(dp3885
sg63
g3819
sg56
(lp3886
g49
(g3657
g51
NtRp3887
(dp3888
g54
(dp3889
g3663
S'http://web2py.com/appliances'
p3890
ssg63
g3883
sg56
(lp3891
g3581
(S's\x11\x00\x00\x00Free Applications'
tRp3892
asbasbag49
(g3664
g51
NtRp3893
(dp3894
g54
(dp3895
sg63
g3819
sg56
(lp3896
g49
(g3657
g51
NtRp3897
(dp3898
g54
(dp3899
g3663
S'http://web2py.com/plugins'
p3900
ssg63
g3893
sg56
(lp3901
g3581
(S't\x07\x00\x00\x00Plugins'
tRp3902
asbasbag49
(g3664
g51
NtRp3903
(dp3904
g54
(dp3905
sg63
g3819
sg56
(lp3906
g49
(g3657
g51
NtRp3907
(dp3908
g54
(dp3909
g3663
S'http://web2py.com/layouts'
p3910
ssg63
g3903
sg56
(lp3911
g3581
(S't\x07\x00\x00\x00Layouts'
tRp3912
asbasbag49
(g3664
g51
NtRp3913
(dp3914
g54
(dp3915
sg63
g3819
sg56
(lp3916
g49
(g3657
g51
NtRp3917
(dp3918
g54
(dp3919
g3663
S'http://web2pyslices.com/'
p3920
ssg63
g3913
sg56
(lp3921
g3581
(S't\x07\x00\x00\x00Recipes'
tRp3922
asbasbag49
(g3664
g51
NtRp3923
(dp3924
g54
(dp3925
sg63
g3819
sg56
(lp3926
g49
(g3657
g51
NtRp3927
(dp3928
g54
(dp3929
g3663
S'http://web2py.com/semantic'
p3930
ssg63
g3923
sg56
(lp3931
g3581
(S't\x08\x00\x00\x00Semantic'
tRp3932
asbasbasbasbag49
(g3664
g51
NtRp3933
(dp3934
g54
(dp3935
g3668
g3669
ssg63
g3691
sg56
(lp3936
g49
(g3657
g51
NtRp3937
(dp3938
g54
(dp3939
g3663
S'http://www.web2py.com/book'
p3940
ssg63
g3933
sg56
(lp3941
g3581
(S't\r\x00\x00\x00Documentation'
tRp3942
asbag49
(g3670
g51
NtRp3943
(dp3944
g54
(dp3945
g3668
g3678
ssg63
g3933
sg56
(lp3946
g49
(g3664
g51
NtRp3947
(dp3948
g54
(dp3949
sg63
g3943
sg56
(lp3950
g49
(g3657
g51
NtRp3951
(dp3952
g54
(dp3953
g3663
S'http://www.web2py.com/book/default/chapter/00'
p3954
ssg63
g3947
sg56
(lp3955
g3581
(S't\x07\x00\x00\x00Preface'
tRp3956
asbasbag49
(g3664
g51
NtRp3957
(dp3958
g54
(dp3959
sg63
g3943
sg56
(lp3960
g49
(g3657
g51
NtRp3961
(dp3962
g54
(dp3963
g3663
S'http://www.web2py.com/book/default/chapter/01'
p3964
ssg63
g3957
sg56
(lp3965
g3581
(S't\x0c\x00\x00\x00Introduction'
tRp3966
asbasbag49
(g3664
g51
NtRp3967
(dp3968
g54
(dp3969
sg63
g3943
sg56
(lp3970
g49
(g3657
g51
NtRp3971
(dp3972
g54
(dp3973
g3663
S'http://www.web2py.com/book/default/chapter/02'
p3974
ssg63
g3967
sg56
(lp3975
g3581
(S't\x06\x00\x00\x00Python'
tRp3976
asbasbag49
(g3664
g51
NtRp3977
(dp3978
g54
(dp3979
sg63
g3943
sg56
(lp3980
g49
(g3657
g51
NtRp3981
(dp3982
g54
(dp3983
g3663
S'http://www.web2py.com/book/default/chapter/03'
p3984
ssg63
g3977
sg56
(lp3985
g3581
(S't\x08\x00\x00\x00Overview'
tRp3986
asbasbag49
(g3664
g51
NtRp3987
(dp3988
g54
(dp3989
sg63
g3943
sg56
(lp3990
g49
(g3657
g51
NtRp3991
(dp3992
g54
(dp3993
g3663
S'http://www.web2py.com/book/default/chapter/04'
p3994
ssg63
g3987
sg56
(lp3995
g3581
(S's\x08\x00\x00\x00The Core'
tRp3996
asbasbag49
(g3664
g51
NtRp3997
(dp3998
g54
(dp3999
sg63
g3943
sg56
(lp4000
g49
(g3657
g51
NtRp4001
(dp4002
g54
(dp4003
g3663
S'http://www.web2py.com/book/default/chapter/05'
p4004
ssg63
g3997
sg56
(lp4005
g3581
(S's\t\x00\x00\x00The Views'
tRp4006
asbasbag49
(g3664
g51
NtRp4007
(dp4008
g54
(dp4009
sg63
g3943
sg56
(lp4010
g49
(g3657
g51
NtRp4011
(dp4012
g54
(dp4013
g3663
S'http://www.web2py.com/book/default/chapter/06'
p4014
ssg63
g4007
sg56
(lp4015
g3581
(S's\x0e\x00\x00\x00Banco de dados'
tRp4016
asbasbag49
(g3664
g51
NtRp4017
(dp4018
g54
(dp4019
sg63
g3943
sg56
(lp4020
g49
(g3657
g51
NtRp4021
(dp4022
g54
(dp4023
g3663
S'http://www.web2py.com/book/default/chapter/07'
p4024
ssg63
g4017
sg56
(lp4025
g3581
(S's\x14\x00\x00\x00Forms and Validators'
tRp4026
asbasbag49
(g3664
g51
NtRp4027
(dp4028
g54
(dp4029
sg63
g3943
sg56
(lp4030
g49
(g3657
g51
NtRp4031
(dp4032
g54
(dp4033
g3663
S'http://www.web2py.com/book/default/chapter/08'
p4034
ssg63
g4027
sg56
(lp4035
g3581
(S's\r\x00\x00\x00Email and SMS'
tRp4036
asbasbag49
(g3664
g51
NtRp4037
(dp4038
g54
(dp4039
sg63
g3943
sg56
(lp4040
g49
(g3657
g51
NtRp4041
(dp4042
g54
(dp4043
g3663
S'http://www.web2py.com/book/default/chapter/09'
p4044
ssg63
g4037
sg56
(lp4045
g3581
(S's\x0e\x00\x00\x00Access Control'
tRp4046
asbasbag49
(g3664
g51
NtRp4047
(dp4048
g54
(dp4049
sg63
g3943
sg56
(lp4050
g49
(g3657
g51
NtRp4051
(dp4052
g54
(dp4053
g3663
S'http://www.web2py.com/book/default/chapter/10'
p4054
ssg63
g4047
sg56
(lp4055
g3581
(S't\x08\x00\x00\x00Services'
tRp4056
asbasbag49
(g3664
g51
NtRp4057
(dp4058
g54
(dp4059
sg63
g3943
sg56
(lp4060
g49
(g3657
g51
NtRp4061
(dp4062
g54
(dp4063
g3663
S'http://www.web2py.com/book/default/chapter/11'
p4064
ssg63
g4057
sg56
(lp4065
g3581
(S's\x0c\x00\x00\x00Ajax Recipes'
tRp4066
asbasbag49
(g3664
g51
NtRp4067
(dp4068
g54
(dp4069
sg63
g3943
sg56
(lp4070
g49
(g3657
g51
NtRp4071
(dp4072
g54
(dp4073
g3663
S'http://www.web2py.com/book/default/chapter/12'
p4074
ssg63
g4067
sg56
(lp4075
g3581
(S's\x16\x00\x00\x00Components and Plugins'
tRp4076
asbasbag49
(g3664
g51
NtRp4077
(dp4078
g54
(dp4079
sg63
g3943
sg56
(lp4080
g49
(g3657
g51
NtRp4081
(dp4082
g54
(dp4083
g3663
S'http://www.web2py.com/book/default/chapter/13'
p4084
ssg63
g4077
sg56
(lp4085
g3581
(S's\x12\x00\x00\x00Deployment Recipes'
tRp4086
asbasbag49
(g3664
g51
NtRp4087
(dp4088
g54
(dp4089
sg63
g3943
sg56
(lp4090
g49
(g3657
g51
NtRp4091
(dp4092
g54
(dp4093
g3663
S'http://www.web2py.com/book/default/chapter/14'
p4094
ssg63
g4087
sg56
(lp4095
g3581
(S's\r\x00\x00\x00Other Recipes'
tRp4096
asbasbag49
(g3664
g51
NtRp4097
(dp4098
g54
(dp4099
sg63
g3943
sg56
(lp4100
g49
(g3657
g51
NtRp4101
(dp4102
g54
(dp4103
g3663
S'http://stores.lulu.com/web2py'
p4104
ssg63
g4097
sg56
(lp4105
g3581
(S's\r\x00\x00\x00Buy this book'
tRp4106
asbasbasbasbag49
(g3664
g51
NtRp4107
(dp4108
g54
(dp4109
g3668
g3669
ssg63
g3691
sg56
(lp4110
g49
(g3657
g51
NtRp4111
(dp4112
g54
(dp4113
g3661
g3662
sg3663
S'#'
ssg63
g4107
sg56
(lp4114
g3581
(S't\t\x00\x00\x00Community'
tRp4115
asbag49
(g3670
g51
NtRp4116
(dp4117
g54
(dp4118
g3668
g3678
ssg63
g4107
sg56
(lp4119
g49
(g3664
g51
NtRp4120
(dp4121
g54
(dp4122
sg63
g4116
sg56
(lp4123
g49
(g3657
g51
NtRp4124
(dp4125
g54
(dp4126
g3663
S'http://www.web2py.com/examples/default/usergroups'
p4127
ssg63
g4120
sg56
(lp4128
g3581
(S't\x06\x00\x00\x00Groups'
tRp4129
asbasbag49
(g3664
g51
NtRp4130
(dp4131
g54
(dp4132
sg63
g4116
sg56
(lp4133
g49
(g3657
g51
NtRp4134
(dp4135
g54
(dp4136
g3663
S'http://twitter.com/web2py'
p4137
ssg63
g4130
sg56
(lp4138
g3581
(S't\x07\x00\x00\x00Twitter'
tRp4139
asbasbag49
(g3664
g51
NtRp4140
(dp4141
g54
(dp4142
sg63
g4116
sg56
(lp4143
g49
(g3657
g51
NtRp4144
(dp4145
g54
(dp4146
g3663
S'http://webchat.freenode.net/?channels=web2py'
p4147
ssg63
g4140
sg56
(lp4148
g3581
(S's\t\x00\x00\x00Live Chat'
tRp4149
asbasbasbasbag49
(g3664
g51
NtRp4150
(dp4151
g54
(dp4152
g3668
g3669
ssg63
g3691
sg56
(lp4153
g49
(g3657
g51
NtRp4154
(dp4155
g54
(dp4156
g3661
g3662
sg3663
S'#'
ssg63
g4150
sg56
(lp4157
g3581
(S't\x07\x00\x00\x00Plugins'
tRp4158
asbag49
(g3670
g51
NtRp4159
(dp4160
g54
(dp4161
g3668
g3678
ssg63
g4150
sg56
(lp4162
g49
(g3664
g51
NtRp4163
(dp4164
g54
(dp4165
sg63
g4159
sg56
(lp4166
g49
(g3657
g51
NtRp4167
(dp4168
g54
(dp4169
g3663
S'http://web2py.com/examples/default/download'
p4170
ssg63
g4163
sg56
(lp4171
S'plugin_wiki'
p4172
asbasbag49
(g3664
g51
NtRp4173
(dp4174
g54
(dp4175
sg63
g4159
sg56
(lp4176
g49
(g3657
g51
NtRp4177
(dp4178
g54
(dp4179
g3663
g3900
ssg63
g4173
sg56
(lp4180
g3581
(S's\r\x00\x00\x00Other Plugins'
tRp4181
asbasbag49
(g3664
g51
NtRp4182
(dp4183
g54
(dp4184
sg63
g4159
sg56
(lp4185
g49
(g3657
g51
NtRp4186
(dp4187
g54
(dp4188
g3663
g3910
ssg63
g4182
sg56
(lp4189
g3581
(S's\x0e\x00\x00\x00Layout Plugins'
tRp4190
asbasbasbasbasbasbsg56
(lp4191
g3653
asbsg56
(lp4192
g3527
asbasbasbasbag49
(g65
g51
NtRp4193
(dp4194
g54
(dp4195
sg63
g3636
sg56
(lp4196
g49
(g70
g51
NtRp4197
(dp4198
g54
(dp4199
sg63
g4193
sg56
(lp4200
g49
(g50
g51
NtRp4201
(dp4202
g54
(dp4203
g62
I3
ssg63
g4197
sg56
(lp4204
g92
asbasbasbag49
(g65
g51
NtRp4205
(dp4206
g54
(dp4207
sg63
g3636
sg56
(lp4208
g49
(g70
g51
NtRp4209
(dp4210
g54
(dp4211
sg63
g4205
sg56
(lp4212
g49
(g50
g51
NtRp4213
(dp4214
g54
(dp4215
g62
I3
ssg63
g4209
sg56
(lp4216
S'None'
p4217
asbasbasbag49
(g65
g51
NtRp4218
(dp4219
g54
(dp4220
sg63
g3636
sg56
(lp4221
g49
(g70
g51
NtRp4222
(dp4223
g54
(dp4224
sg63
g4218
sg56
(lp4225
g49
(g50
g51
NtRp4226
(dp4227
g54
(dp4228
g62
I3
ssg63
g4222
sg56
(lp4229
g49
(g58
g51
NtRp4230
(dp4231
g54
(dp4232
g62
I2
ssg63
Nsg56
(lp4233
g49
(g65
g51
NtRp4234
(dp4235
g54
(dp4236
sg63
g4230
sg56
(lp4237
g49
(g70
g51
NtRp4238
(dp4239
g54
(dp4240
sg63
g4234
sg56
(lp4241
g49
(g50
g51
NtRp4242
(dp4243
g54
(dp4244
g62
I2
ssg63
g4238
sg56
(lp4245
g49
(g58
g51
NtRp4246
(dp4247
g54
(dp4248
g62
I1
ssg63
Nsg56
(lp4249
g49
(g65
g51
NtRp4250
(dp4251
g54
(dp4252
sg63
g4246
sg56
(lp4253
g49
(g70
g51
NtRp4254
(dp4255
g54
(dp4256
sg63
g4250
sg56
(lp4257
g49
(g50
g51
NtRp4258
(dp4259
g54
(dp4260
g62
I1
ssg63
g4254
sg56
(lp4261
g3704
asbasbasbag49
(g65
g51
NtRp4262
(dp4263
g54
(dp4264
sg63
g4246
sg56
(lp4265
g49
(g70
g51
NtRp4266
(dp4267
g54
(dp4268
sg63
g4262
sg56
(lp4269
g49
(g50
g51
NtRp4270
(dp4271
g54
(dp4272
g62
I1
ssg63
g4266
sg56
(lp4273
I00
asbasbasbag49
(g65
g51
NtRp4274
(dp4275
g54
(dp4276
sg63
g4246
sg56
(lp4277
g49
(g70
g51
NtRp4278
(dp4279
g54
(dp4280
sg63
g4274
sg56
(lp4281
g49
(g50
g51
NtRp4282
(dp4283
g54
(dp4284
g62
I1
ssg63
g4278
sg56
(lp4285
g3702
asbasbasbasbasbasbasbag49
(g65
g51
NtRp4286
(dp4287
g54
(dp4288
sg63
g4230
sg56
(lp4289
g49
(g70
g51
NtRp4290
(dp4291
g54
(dp4292
sg63
g4286
sg56
(lp4293
g49
(g50
g51
NtRp4294
(dp4295
g54
(dp4296
g62
I2
ssg63
g4290
sg56
(lp4297
g49
(g58
g51
NtRp4298
(dp4299
g54
(dp4300
g62
I1
ssg63
Nsg56
(lp4301
g49
(g65
g51
NtRp4302
(dp4303
g54
(dp4304
sg63
g4298
sg56
(lp4305
g49
(g70
g51
NtRp4306
(dp4307
g54
(dp4308
sg63
g4302
sg56
(lp4309
g49
(g50
g51
NtRp4310
(dp4311
g54
(dp4312
g62
I1
ssg63
g4306
sg56
(lp4313
g3714
asbasbasbag49
(g65
g51
NtRp4314
(dp4315
g54
(dp4316
sg63
g4298
sg56
(lp4317
g49
(g70
g51
NtRp4318
(dp4319
g54
(dp4320
sg63
g4314
sg56
(lp4321
g49
(g50
g51
NtRp4322
(dp4323
g54
(dp4324
g62
I1
ssg63
g4318
sg56
(lp4325
I00
asbasbasbag49
(g65
g51
NtRp4326
(dp4327
g54
(dp4328
sg63
g4298
sg56
(lp4329
g49
(g70
g51
NtRp4330
(dp4331
g54
(dp4332
sg63
g4326
sg56
(lp4333
g49
(g50
g51
NtRp4334
(dp4335
g54
(dp4336
g62
I1
ssg63
g4330
sg56
(lp4337
g3712
asbasbasbag49
(g65
g51
NtRp4338
(dp4339
g54
(dp4340
sg63
g4298
sg56
(lp4341
g49
(g70
g51
NtRp4342
(dp4343
g54
(dp4344
sg63
g4338
sg56
(lp4345
g49
(g50
g51
NtRp4346
(dp4347
g54
(dp4348
g62
I1
ssg63
g4342
sg56
(lp4349
(lp4350
(g3728
I00
g3726
tp4351
a(g3738
I00
g3736
tp4352
a(g3748
I00
g3746
tp4353
a(g3758
I00
g3756
tp4354
a(g3768
I00
g3766
tp4355
a(g3778
I00
g3776
tp4356
a(g3788
I00
g3786
tp4357
a(g3798
I00
g3796
tp4358
a(g3808
I00
g3806
tp4359
aasbasbasbasbasbasbasbag49
(g65
g51
NtRp4360
(dp4361
g54
(dp4362
sg63
g4230
sg56
(lp4363
g49
(g70
g51
NtRp4364
(dp4365
g54
(dp4366
sg63
g4360
sg56
(lp4367
g49
(g50
g51
NtRp4368
(dp4369
g54
(dp4370
g62
I2
ssg63
g4364
sg56
(lp4371
g49
(g58
g51
NtRp4372
(dp4373
g54
(dp4374
g62
I1
ssg63
Nsg56
(lp4375
g49
(g65
g51
NtRp4376
(dp4377
g54
(dp4378
sg63
g4372
sg56
(lp4379
g49
(g70
g51
NtRp4380
(dp4381
g54
(dp4382
sg63
g4376
sg56
(lp4383
g49
(g50
g51
NtRp4384
(dp4385
g54
(dp4386
g62
I1
ssg63
g4380
sg56
(lp4387
g3818
asbasbasbag49
(g65
g51
NtRp4388
(dp4389
g54
(dp4390
sg63
g4372
sg56
(lp4391
g49
(g70
g51
NtRp4392
(dp4393
g54
(dp4394
sg63
g4388
sg56
(lp4395
g49
(g50
g51
NtRp4396
(dp4397
g54
(dp4398
g62
I1
ssg63
g4392
sg56
(lp4399
I00
asbasbasbag49
(g65
g51
NtRp4400
(dp4401
g54
(dp4402
sg63
g4372
sg56
(lp4403
g49
(g70
g51
NtRp4404
(dp4405
g54
(dp4406
sg63
g4400
sg56
(lp4407
g49
(g50
g51
NtRp4408
(dp4409
g54
(dp4410
g62
I1
ssg63
g4404
sg56
(lp4411
g3816
asbasbasbag49
(g65
g51
NtRp4412
(dp4413
g54
(dp4414
sg63
g4372
sg56
(lp4415
g49
(g70
g51
NtRp4416
(dp4417
g54
(dp4418
sg63
g4412
sg56
(lp4419
g49
(g50
g51
NtRp4420
(dp4421
g54
(dp4422
g62
I1
ssg63
g4416
sg56
(lp4423
(lp4424
(g3832
I00
g3830
tp4425
a(g3842
I00
g3840
tp4426
a(g3852
I00
g3850
tp4427
a(g3862
I00
g3860
tp4428
a(g3872
I00
g3870
tp4429
a(g3882
I00
g3880
tp4430
a(g3892
I00
g3890
tp4431
a(g3902
I00
g3900
tp4432
a(g3912
I00
g3910
tp4433
a(g3922
I00
g3920
tp4434
a(g3932
I00
g3930
tp4435
aasbasbasbasbasbasbasbag49
(g65
g51
NtRp4436
(dp4437
g54
(dp4438
sg63
g4230
sg56
(lp4439
g49
(g70
g51
NtRp4440
(dp4441
g54
(dp4442
sg63
g4436
sg56
(lp4443
g49
(g50
g51
NtRp4444
(dp4445
g54
(dp4446
g62
I2
ssg63
g4440
sg56
(lp4447
g49
(g58
g51
NtRp4448
(dp4449
g54
(dp4450
g62
I1
ssg63
Nsg56
(lp4451
g49
(g65
g51
NtRp4452
(dp4453
g54
(dp4454
sg63
g4448
sg56
(lp4455
g49
(g70
g51
NtRp4456
(dp4457
g54
(dp4458
sg63
g4452
sg56
(lp4459
g49
(g50
g51
NtRp4460
(dp4461
g54
(dp4462
g62
I1
ssg63
g4456
sg56
(lp4463
g3942
asbasbasbag49
(g65
g51
NtRp4464
(dp4465
g54
(dp4466
sg63
g4448
sg56
(lp4467
g49
(g70
g51
NtRp4468
(dp4469
g54
(dp4470
sg63
g4464
sg56
(lp4471
g49
(g50
g51
NtRp4472
(dp4473
g54
(dp4474
g62
I1
ssg63
g4468
sg56
(lp4475
I00
asbasbasbag49
(g65
g51
NtRp4476
(dp4477
g54
(dp4478
sg63
g4448
sg56
(lp4479
g49
(g70
g51
NtRp4480
(dp4481
g54
(dp4482
sg63
g4476
sg56
(lp4483
g49
(g50
g51
NtRp4484
(dp4485
g54
(dp4486
g62
I1
ssg63
g4480
sg56
(lp4487
g3940
asbasbasbag49
(g65
g51
NtRp4488
(dp4489
g54
(dp4490
sg63
g4448
sg56
(lp4491
g49
(g70
g51
NtRp4492
(dp4493
g54
(dp4494
sg63
g4488
sg56
(lp4495
g49
(g50
g51
NtRp4496
(dp4497
g54
(dp4498
g62
I1
ssg63
g4492
sg56
(lp4499
(lp4500
(g3956
I00
g3954
tp4501
a(g3966
I00
g3964
tp4502
a(g3976
I00
g3974
tp4503
a(g3986
I00
g3984
tp4504
a(g3996
I00
g3994
tp4505
a(g4006
I00
g4004
tp4506
a(g4016
I00
g4014
tp4507
a(g4026
I00
g4024
tp4508
a(g4036
I00
g4034
tp4509
a(g4046
I00
g4044
tp4510
a(g4056
I00
g4054
tp4511
a(g4066
I00
g4064
tp4512
a(g4076
I00
g4074
tp4513
a(g4086
I00
g4084
tp4514
a(g4096
I00
g4094
tp4515
a(g4106
I00
g4104
tp4516
aasbasbasbasbasbasbasbag49
(g65
g51
NtRp4517
(dp4518
g54
(dp4519
sg63
g4230
sg56
(lp4520
g49
(g70
g51
NtRp4521
(dp4522
g54
(dp4523
sg63
g4517
sg56
(lp4524
g49
(g50
g51
NtRp4525
(dp4526
g54
(dp4527
g62
I2
ssg63
g4521
sg56
(lp4528
g49
(g58
g51
NtRp4529
(dp4530
g54
(dp4531
g62
I1
ssg63
Nsg56
(lp4532
g49
(g65
g51
NtRp4533
(dp4534
g54
(dp4535
sg63
g4529
sg56
(lp4536
g49
(g70
g51
NtRp4537
(dp4538
g54
(dp4539
sg63
g4533
sg56
(lp4540
g49
(g50
g51
NtRp4541
(dp4542
g54
(dp4543
g62
I1
ssg63
g4537
sg56
(lp4544
g4115
asbasbasbag49
(g65
g51
NtRp4545
(dp4546
g54
(dp4547
sg63
g4529
sg56
(lp4548
g49
(g70
g51
NtRp4549
(dp4550
g54
(dp4551
sg63
g4545
sg56
(lp4552
g49
(g50
g51
NtRp4553
(dp4554
g54
(dp4555
g62
I1
ssg63
g4549
sg56
(lp4556
I00
asbasbasbag49
(g65
g51
NtRp4557
(dp4558
g54
(dp4559
sg63
g4529
sg56
(lp4560
g49
(g70
g51
NtRp4561
(dp4562
g54
(dp4563
sg63
g4557
sg56
(lp4564
g49
(g50
g51
NtRp4565
(dp4566
g54
(dp4567
g62
I1
ssg63
g4561
sg56
(lp4568
Nasbasbasbag49
(g65
g51
NtRp4569
(dp4570
g54
(dp4571
sg63
g4529
sg56
(lp4572
g49
(g70
g51
NtRp4573
(dp4574
g54
(dp4575
sg63
g4569
sg56
(lp4576
g49
(g50
g51
NtRp4577
(dp4578
g54
(dp4579
g62
I1
ssg63
g4573
sg56
(lp4580
(lp4581
(g4129
I00
g4127
tp4582
a(g4139
I00
g4137
tp4583
a(g4149
I00
g4147
tp4584
aasbasbasbasbasbasbasbag49
(g65
g51
NtRp4585
(dp4586
g54
(dp4587
sg63
g4230
sg56
(lp4588
g49
(g70
g51
NtRp4589
(dp4590
g54
(dp4591
sg63
g4585
sg56
(lp4592
g49
(g50
g51
NtRp4593
(dp4594
g54
(dp4595
g62
I2
ssg63
g4589
sg56
(lp4596
g49
(g58
g51
NtRp4597
(dp4598
g54
(dp4599
g62
I1
ssg63
Nsg56
(lp4600
g49
(g65
g51
NtRp4601
(dp4602
g54
(dp4603
sg63
g4597
sg56
(lp4604
g49
(g70
g51
NtRp4605
(dp4606
g54
(dp4607
sg63
g4601
sg56
(lp4608
g49
(g50
g51
NtRp4609
(dp4610
g54
(dp4611
g62
I1
ssg63
g4605
sg56
(lp4612
g4158
asbasbasbag49
(g65
g51
NtRp4613
(dp4614
g54
(dp4615
sg63
g4597
sg56
(lp4616
g49
(g70
g51
NtRp4617
(dp4618
g54
(dp4619
sg63
g4613
sg56
(lp4620
g49
(g50
g51
NtRp4621
(dp4622
g54
(dp4623
g62
I1
ssg63
g4617
sg56
(lp4624
I00
asbasbasbag49
(g65
g51
NtRp4625
(dp4626
g54
(dp4627
sg63
g4597
sg56
(lp4628
g49
(g70
g51
NtRp4629
(dp4630
g54
(dp4631
sg63
g4625
sg56
(lp4632
g49
(g50
g51
NtRp4633
(dp4634
g54
(dp4635
g62
I1
ssg63
g4629
sg56
(lp4636
Nasbasbasbag49
(g65
g51
NtRp4637
(dp4638
g54
(dp4639
sg63
g4597
sg56
(lp4640
g49
(g70
g51
NtRp4641
(dp4642
g54
(dp4643
sg63
g4637
sg56
(lp4644
g49
(g50
g51
NtRp4645
(dp4646
g54
(dp4647
g62
I1
ssg63
g4641
sg56
(lp4648
(lp4649
(g4172
I00
g4170
tp4650
a(g4181
I00
g3900
tp4651
a(g4190
I00
g3910
tp4652
aasbasbasbasbasbasbasbasbasbasbasbasbasbasbasbasbasbasbasbag49
(g65
g51
NtRp4653
(dp4654
g54
(dp4655
sg63
g2992
sg56
(lp4656
g49
(g70
g51
NtRp4657
(dp4658
g54
(dp4659
g74
g75
ssg63
g4653
sg56
(lp4660
S'meta'
p4661
asbag49
(g70
g51
NtRp4662
(dp4663
g54
(dp4664
g81
g82
ssg63
g4653
sg56
(lp4665
S':'
asbag49
(g70
g51
NtRp4666
(dp4667
g54
(dp4668
sg63
g4653
sg56
(lp4669
g49
(g50
g51
NtRp4670
(dp4671
g54
(dp4672
g62
I5
ssg63
g4666
sg56
(lp4673
g49
(g58
g51
NtRp4674
(dp4675
g54
(dp4676
g62
I4
ssg63
Nsg56
(lp4677
g49
(g65
g51
NtRp4678
(dp4679
g54
(dp4680
sg63
g4674
sg56
(lp4681
g49
(g70
g51
NtRp4682
(dp4683
g54
(dp4684
g74
g75
ssg63
g4678
sg56
(lp4685
S'author'
p4686
asbag49
(g70
g51
NtRp4687
(dp4688
g54
(dp4689
g81
g82
ssg63
g4678
sg56
(lp4690
S':'
asbag49
(g70
g51
NtRp4691
(dp4692
g54
(dp4693
sg63
g4678
sg56
(lp4694
g49
(g50
g51
NtRp4695
(dp4696
g54
(dp4697
g62
I4
ssg63
g4691
sg56
(lp4698
S'Your Name <you@example.com>'
p4699
asbasbasbag49
(g65
g51
NtRp4700
(dp4701
g54
(dp4702
sg63
g4674
sg56
(lp4703
g49
(g70
g51
NtRp4704
(dp4705
g54
(dp4706
g74
g75
ssg63
g4700
sg56
(lp4707
S'copyright'
p4708
asbag49
(g70
g51
NtRp4709
(dp4710
g54
(dp4711
g81
g82
ssg63
g4700
sg56
(lp4712
S':'
asbag49
(g70
g51
NtRp4713
(dp4714
g54
(dp4715
sg63
g4700
sg56
(lp4716
g49
(g50
g51
NtRp4717
(dp4718
g54
(dp4719
g62
I4
ssg63
g4713
sg56
(lp4720
S'Copyright 2011'
p4721
asbasbasbag49
(g65
g51
NtRp4722
(dp4723
g54
(dp4724
sg63
g4674
sg56
(lp4725
g49
(g70
g51
NtRp4726
(dp4727
g54
(dp4728
g74
g75
ssg63
g4722
sg56
(lp4729
S'description'
p4730
asbag49
(g70
g51
NtRp4731
(dp4732
g54
(dp4733
g81
g82
ssg63
g4722
sg56
(lp4734
S':'
asbag49
(g70
g51
NtRp4735
(dp4736
g54
(dp4737
sg63
g4722
sg56
(lp4738
g49
(g50
g51
NtRp4739
(dp4740
g54
(dp4741
g62
I4
ssg63
g4735
sg56
(lp4742
S'a cool new app'
p4743
asbasbasbag49
(g65
g51
NtRp4744
(dp4745
g54
(dp4746
sg63
g4674
sg56
(lp4747
g49
(g70
g51
NtRp4748
(dp4749
g54
(dp4750
g74
g75
ssg63
g4744
sg56
(lp4751
S'generator'
p4752
asbag49
(g70
g51
NtRp4753
(dp4754
g54
(dp4755
g81
g82
ssg63
g4744
sg56
(lp4756
S':'
asbag49
(g70
g51
NtRp4757
(dp4758
g54
(dp4759
sg63
g4744
sg56
(lp4760
g49
(g50
g51
NtRp4761
(dp4762
g54
(dp4763
g62
I4
ssg63
g4757
sg56
(lp4764
S'Web2py Web Framework'
p4765
asbasbasbag49
(g65
g51
NtRp4766
(dp4767
g54
(dp4768
sg63
g4674
sg56
(lp4769
g49
(g70
g51
NtRp4770
(dp4771
g54
(dp4772
g74
g75
ssg63
g4766
sg56
(lp4773
S'keywords'
p4774
asbag49
(g70
g51
NtRp4775
(dp4776
g54
(dp4777
g81
g82
ssg63
g4766
sg56
(lp4778
S':'
asbag49
(g70
g51
NtRp4779
(dp4780
g54
(dp4781
sg63
g4766
sg56
(lp4782
g49
(g50
g51
NtRp4783
(dp4784
g54
(dp4785
g62
I4
ssg63
g4779
sg56
(lp4786
S'web2py, python, framework'
p4787
asbasbasbasbasbasbasbag49
(g65
g51
NtRp4788
(dp4789
g54
(dp4790
sg63
g2992
sg56
(lp4791
g49
(g70
g51
NtRp4792
(dp4793
g54
(dp4794
g74
g75
ssg63
g4788
sg56
(lp4795
S'postprocessing'
p4796
asbag49
(g70
g51
NtRp4797
(dp4798
g54
(dp4799
g81
g82
ssg63
g4788
sg56
(lp4800
S':'
asbag49
(g70
g51
NtRp4801
(dp4802
g54
(dp4803
sg63
g4788
sg56
(lp4804
g49
(g50
g51
NtRp4805
(dp4806
g54
(dp4807
g62
I5
ssg63
g4801
sg56
(lp4808
g49
(g58
g51
NtRp4809
(dp4810
g54
(dp4811
g62
I4
ssg63
Nsg56
(lp4812
sbasbasbasbag49
(g65
g51
NtRp4813
(dp4814
g54
(dp4815
sg63
g2992
sg56
(lp4816
g49
(g70
g51
NtRp4817
(dp4818
g54
(dp4819
g74
g75
ssg63
g4813
sg56
(lp4820
S'session_file'
p4821
asbag49
(g70
g51
NtRp4822
(dp4823
g54
(dp4824
g81
g82
ssg63
g4813
sg56
(lp4825
S':'
asbag49
(g70
g51
NtRp4826
(dp4827
g54
(dp4828
sg63
g4813
sg56
(lp4829
g49
(g50
g51
NtRp4830
(dp4831
g54
(dp4832
g62
I5
ssg63
g4826
sg56
(lp4833
S"<open file 'C:\\Users\\nilton\\Desktop\\scripts\\curso_de_python\\web2py\\applications\\xcpadmin\\sessions\\127.0.0.1-0cb88dcb-67b2-4748-8846-25f35503a0e7', mode 'rb+' at 0x05E1C1D0>"
p4834
asbasbasbag49
(g65
g51
NtRp4835
(dp4836
g54
(dp4837
sg63
g2992
sg56
(lp4838
g49
(g70
g51
NtRp4839
(dp4840
g54
(dp4841
g74
g75
ssg63
g4835
sg56
(lp4842
S'session_filename'
p4843
asbag49
(g70
g51
NtRp4844
(dp4845
g54
(dp4846
g81
g82
ssg63
g4835
sg56
(lp4847
S':'
asbag49
(g70
g51
NtRp4848
(dp4849
g54
(dp4850
sg63
g4835
sg56
(lp4851
g49
(g50
g51
NtRp4852
(dp4853
g54
(dp4854
g62
I5
ssg63
g4848
sg56
(lp4855
S'C:\\Users\\nilton\\Desktop\\scripts\\curso_de_python\\web2py\\applications\\xcpadmin\\sessions\\127.0.0.1-0cb88dcb-67b2-4748-8846-25f35503a0e7'
p4856
asbasbasbag49
(g65
g51
NtRp4857
(dp4858
g54
(dp4859
sg63
g2992
sg56
(lp4860
g49
(g70
g51
NtRp4861
(dp4862
g54
(dp4863
g74
g75
ssg63
g4857
sg56
(lp4864
S'session_id'
p4865
asbag49
(g70
g51
NtRp4866
(dp4867
g54
(dp4868
g81
g82
ssg63
g4857
sg56
(lp4869
S':'
asbag49
(g70
g51
NtRp4870
(dp4871
g54
(dp4872
sg63
g4857
sg56
(lp4873
g49
(g50
g51
NtRp4874
(dp4875
g54
(dp4876
g62
I5
ssg63
g4870
sg56
(lp4877
S'127.0.0.1-0cb88dcb-67b2-4748-8846-25f35503a0e7'
p4878
asbasbasbag49
(g65
g51
NtRp4879
(dp4880
g54
(dp4881
sg63
g2992
sg56
(lp4882
g49
(g70
g51
NtRp4883
(dp4884
g54
(dp4885
g74
g75
ssg63
g4879
sg56
(lp4886
S'session_id_name'
p4887
asbag49
(g70
g51
NtRp4888
(dp4889
g54
(dp4890
g81
g82
ssg63
g4879
sg56
(lp4891
S':'
asbag49
(g70
g51
NtRp4892
(dp4893
g54
(dp4894
sg63
g4879
sg56
(lp4895
g49
(g50
g51
NtRp4896
(dp4897
g54
(dp4898
g62
I5
ssg63
g4892
sg56
(lp4899
g3049
asbasbasbag49
(g65
g51
NtRp4900
(dp4901
g54
(dp4902
sg63
g2992
sg56
(lp4903
g49
(g70
g51
NtRp4904
(dp4905
g54
(dp4906
g74
g75
ssg63
g4900
sg56
(lp4907
S'session_locked'
p4908
asbag49
(g70
g51
NtRp4909
(dp4910
g54
(dp4911
g81
g82
ssg63
g4900
sg56
(lp4912
S':'
asbag49
(g70
g51
NtRp4913
(dp4914
g54
(dp4915
sg63
g4900
sg56
(lp4916
g49
(g50
g51
NtRp4917
(dp4918
g54
(dp4919
g62
I5
ssg63
g4913
sg56
(lp4920
g1609
asbasbasbag49
(g65
g51
NtRp4921
(dp4922
g54
(dp4923
sg63
g2992
sg56
(lp4924
g49
(g70
g51
NtRp4925
(dp4926
g54
(dp4927
g74
g75
ssg63
g4921
sg56
(lp4928
S'session_new'
p4929
asbag49
(g70
g51
NtRp4930
(dp4931
g54
(dp4932
g81
g82
ssg63
g4921
sg56
(lp4933
S':'
asbag49
(g70
g51
NtRp4934
(dp4935
g54
(dp4936
sg63
g4921
sg56
(lp4937
g49
(g50
g51
NtRp4938
(dp4939
g54
(dp4940
g62
I5
ssg63
g4934
sg56
(lp4941
g92
asbasbasbag49
(g65
g51
NtRp4942
(dp4943
g54
(dp4944
sg63
g2992
sg56
(lp4945
g49
(g70
g51
NtRp4946
(dp4947
g54
(dp4948
g74
g75
ssg63
g4942
sg56
(lp4949
S'status'
p4950
asbag49
(g70
g51
NtRp4951
(dp4952
g54
(dp4953
g81
g82
ssg63
g4942
sg56
(lp4954
S':'
asbag49
(g70
g51
NtRp4955
(dp4956
g54
(dp4957
sg63
g4942
sg56
(lp4958
g49
(g50
g51
NtRp4959
(dp4960
g54
(dp4961
g62
I5
ssg63
g4955
sg56
(lp4962
S'200'
p4963
asbasbasbag49
(g65
g51
NtRp4964
(dp4965
g54
(dp4966
sg63
g2992
sg56
(lp4967
g49
(g70
g51
NtRp4968
(dp4969
g54
(dp4970
g74
g75
ssg63
g4964
sg56
(lp4971
S'subtitle'
p4972
asbag49
(g70
g51
NtRp4973
(dp4974
g54
(dp4975
g81
g82
ssg63
g4964
sg56
(lp4976
S':'
asbag49
(g70
g51
NtRp4977
(dp4978
g54
(dp4979
sg63
g4964
sg56
(lp4980
g49
(g50
g51
NtRp4981
(dp4982
g54
(dp4983
g62
I5
ssg63
g4977
sg56
(lp4984
g3581
(S's\x0f\x00\x00\x00Personalize-me!'
tRp4985
asbasbasbag49
(g65
g51
NtRp4986
(dp4987
g54
(dp4988
sg63
g2992
sg56
(lp4989
g49
(g70
g51
NtRp4990
(dp4991
g54
(dp4992
g74
g75
ssg63
g4986
sg56
(lp4993
S'title'
p4994
asbag49
(g70
g51
NtRp4995
(dp4996
g54
(dp4997
g81
g82
ssg63
g4986
sg56
(lp4998
S':'
asbag49
(g70
g51
NtRp4999
(dp5000
g54
(dp5001
sg63
g4986
sg56
(lp5002
g49
(g50
g51
NtRp5003
(dp5004
g54
(dp5005
g62
I5
ssg63
g4999
sg56
(lp5006
S'XCP ADMIN'
p5007
asbasbasbag49
(g65
g51
NtRp5008
(dp5009
g54
(dp5010
sg63
g2992
sg56
(lp5011
g49
(g70
g51
NtRp5012
(dp5013
g54
(dp5014
g74
g75
ssg63
g5008
sg56
(lp5015
g2273
asbag49
(g70
g51
NtRp5016
(dp5017
g54
(dp5018
g81
g82
ssg63
g5008
sg56
(lp5019
S':'
asbag49
(g70
g51
NtRp5020
(dp5021
g54
(dp5022
sg63
g5008
sg56
(lp5023
g49
(g50
g51
NtRp5024
(dp5025
g54
(dp5026
g62
I5
ssg63
g5020
sg56
(lp5027
g2286
asbasbasbag49
(g65
g51
NtRp5028
(dp5029
g54
(dp5030
sg63
g2992
sg56
(lp5031
g49
(g70
g51
NtRp5032
(dp5033
g54
(dp5034
g74
g75
ssg63
g5028
sg56
(lp5035
S'view'
p5036
asbag49
(g70
g51
NtRp5037
(dp5038
g54
(dp5039
g81
g82
ssg63
g5028
sg56
(lp5040
S':'
asbag49
(g70
g51
NtRp5041
(dp5042
g54
(dp5043
sg63
g5028
sg56
(lp5044
g49
(g50
g51
NtRp5045
(dp5046
g54
(dp5047
g62
I5
ssg63
g5041
sg56
(lp5048
S'listvm/index.html'
p5049
asbasbasbasbasbsS'locals'
p5050
(dp5051
S'Service'
p5052
S"<class 'gluon.tools.Service'>"
p5053
sS'OBJECT'
p5054
S"<class 'gluon.html.OBJECT'>"
p5055
sS'SQLDB'
p5056
S"<class 'gluon.dal.DAL'>"
p5057
sg2974
S'<Storage {\'_Session__hash\': "\\xab\'\\xce\\x9e\\x01\\x...wser\': {\'version\': \'9.0.1\', \'name\': \'Firefox\'}}}>'
p5058
sS'LINK'
p5059
S"<class 'gluon.html.LINK'>"
p5060
sS'BR'
p5061
S"<class 'gluon.html.BR'>"
p5062
sS'local_import'
p5063
S'<function <lambda> at 0x05E1E4B0>'
p5064
sS'OPTGROUP'
p5065
S"<class 'gluon.html.OPTGROUP'>"
p5066
sS'vms'
p5067
S"['OpaqueRef:722b721c-93b5-7af4-1c47-228172d45012', 'OpaqueRef:452c299f-24bf-acaa-4091-18daefb54c01', 'OpaqueRef:af647471-d3d9-9ff6-1839-b7a062ed3731', 'OpaqueRef:05b77da1-c190-1b44-d521-ce662ec30786', 'OpaqueRef:9679e4cb-362d-7d53-da4d-743916c09b74', 'OpaqueRef:560a9a8e-80b2-62da-c74a-177466e90b46', 'OpaqueRef:8187ee5d-4085-6eed-fbb3-9618cc74783b', 'OpaqueRef:d79c9944-e5bd-dff2-1ed7-bda9edbb440f', 'OpaqueRef:56b6591d-38af-0ab5-0419-7d60bc7a8ea9', 'OpaqueRef:7d1f67cd-c08c-6a88-c05b-128ac07af596', 'OpaqueRef:f6ba1444-d420-ed74-7350-bbc2623c4f74', 'OpaqueRef:0edfebea-fbb1-303d-db5f-9d494bfaecb3', 'OpaqueRef:47b7c008-65e3-93f9-e035-9f4bfb222133', 'OpaqueRef:7ea4536e-8a45-c1c2-b5cc-f7b7740c6216', 'OpaqueRef:58cfc232-d419-cad3-0464-3734f532e042', 'OpaqueRef:3add3029-e520-f6b6-cf65-177cf05a3bf5', 'OpaqueRef:fa881468-48f0-b386-23ec-b58be3cea5b3', 'OpaqueRef:dc8d1df5-4c18-c6fa-e9ec-946a5a0ceca8', 'OpaqueRef:0590ced2-53a6-1337-7c82-27fb9068a13c', 'OpaqueRef:c3a8702e-7866-0ec2-d776-554c792bc481', ...]"
p5068
sS'row'
p5069
S"'OpaqueRef:58cfc232-d419-cad3-0464-3734f532e042'"
p5070
sS'PRE'
p5071
S"<class 'gluon.html.PRE'>"
p5072
sS'IS_INT_IN_RANGE'
p5073
S"<class 'gluon.validators.IS_INT_IN_RANGE'>"
p5074
sS'left_sidebar_enabled'
p5075
g92
sS'IS_LOWER'
p5076
S"<class 'gluon.validators.IS_LOWER'>"
p5077
sS'IS_STRONG'
p5078
S"<class 'gluon.validators.IS_STRONG'>"
p5079
sS'cache'
p5080
S'<gluon.cache.Cache object at 0x05B90410>'
p5081
sS'IS_IN_DB'
p5082
S"<class 'gluon.validators.IS_IN_DB'>"
p5083
sS'TAG'
p5084
S'<gluon.html.__TAG__ object at 0x01EA6910>'
p5085
sS'SQLField'
p5086
S"<class 'gluon.dal.Field'>"
p5087
sS'mail'
p5088
S'<gluon.tools.Mail object at 0x05B90850>'
p5089
sS'BODY'
p5090
S"<class 'gluon.html.BODY'>"
p5091
sS'IS_DATE_IN_RANGE'
p5092
S"<class 'gluon.validators.IS_DATE_IN_RANGE'>"
p5093
sS'TH'
p5094
S"<class 'gluon.html.TH'>"
p5095
sS'URL'
p5096
S'<function URL at 0x01EEF870>'
p5097
sS'__file__'
p5098
S"r'C:\\Users\\nilton\\Desktop\\scripts\\curso_de_python\\web2py\\applications\\xcpadmin\\views\\listvm/index.html'"
p5099
sS'db'
p5100
S"<DAL {'auth_event': <Table {'origin': <gluon.dal...'_id': <gluon.dal.Field object at 0x05D40C10>}>}>"
p5101
sS'auth'
p5102
S'<gluon.tools.Auth object at 0x05B90350>'
p5103
sS'P'
S"<class 'gluon.html.P'>"
p5104
sS'TFOOT'
p5105
S"<class 'gluon.html.TFOOT'>"
p5106
sS'XHTML'
p5107
S"<class 'gluon.html.XHTML'>"
p5108
sS'ON'
p5109
g1609
sS'OL'
p5110
S"<class 'gluon.html.OL'>"
p5111
sS'TEXTAREA'
p5112
S"<class 'gluon.html.TEXTAREA'>"
p5113
sS'MENU'
p5114
S"<class 'gluon.html.MENU'>"
p5115
sS'LOAD'
p5116
S'<function LOAD at 0x0206FBB0>'
p5117
sS'CODE'
p5118
S"<class 'gluon.html.CODE'>"
p5119
sS'HTTP'
p5120
S"<class 'gluon.http.HTTP'>"
p5121
sS'HR'
p5122
S"<class 'gluon.html.HR'>"
p5123
sS'IS_DATETIME'
p5124
S"<class 'gluon.validators.IS_DATETIME'>"
p5125
sS'HEAD'
p5126
S"<class 'gluon.html.HEAD'>"
p5127
sS'LABEL'
p5128
S"<class 'gluon.html.LABEL'>"
p5129
sS'CLEANUP'
p5130
S"<class 'gluon.validators.CLEANUP'>"
p5131
sS'plugins'
p5132
S'<gluon.tools.PluginManager object at 0x05D24CB0>'
p5133
sS'SELECT'
p5134
S"<class 'gluon.html.SELECT'>"
p5135
sS'use_janrain'
p5136
S'<function use_janrain at 0x028848B0>'
p5137
sS'CENTER'
p5138
S"<class 'gluon.html.CENTER'>"
p5139
sS'prettydate'
p5140
S'<function prettydate at 0x028840B0>'
p5141
sS'Crud'
p5142
S"<class 'gluon.tools.Crud'>"
p5143
sS'Auth'
p5144
S"<class 'gluon.tools.Auth'>"
p5145
sS'__builtins__'
p5146
S"{'ArithmeticError': <type 'exceptions.ArithmeticError'>, 'AssertionError': <type 'exceptions.AssertionError'>, 'AttributeError': <type 'exceptions.AttributeError'>, 'BaseException': <type 'exceptions.BaseException'>, 'DeprecationWarning': <type 'exceptions.DeprecationWarning'>, 'EOFError': <type 'exceptions.EOFError'>, 'Ellipsis': Ellipsis, 'EnvironmentError': <type 'exceptions.EnvironmentError'>, 'Exception': <type 'exceptions.Exception'>, 'False': False, ...}"
p5147
sS'HTML'
p5148
S"<class 'gluon.html.HTML'>"
p5149
sS'SQLFORM'
p5150
S"<class 'gluon.sqlhtml.SQLFORM'>"
p5151
sS'EM'
p5152
S"<class 'gluon.html.EM'>"
p5153
sS'redirect'
p5154
S'<function redirect at 0x01B344B0>'
p5155
sS'FIELDSET'
p5156
S"<class 'gluon.html.FIELDSET'>"
p5157
sS'IS_EQUAL_TO'
p5158
S"<class 'gluon.validators.IS_EQUAL_TO'>"
p5159
sS'embed64'
p5160
S'<function embed64 at 0x01EF53B0>'
p5161
sS'IS_LIST_OF'
p5162
S"<class 'gluon.validators.IS_LIST_OF'>"
p5163
sS'INPUT'
p5164
S"<class 'gluon.html.INPUT'>"
p5165
sS'EMBED'
p5166
S"<class 'gluon.html.EMBED'>"
p5167
sS'_'
S'<function _ at 0x05E1E3F0>'
p5168
sS'FORM'
p5169
S"<class 'gluon.html.FORM'>"
p5170
sS'H2'
p5171
S"<class 'gluon.html.H2'>"
p5172
sS'H3'
p5173
S"<class 'gluon.html.H3'>"
p5174
sS'BUTTON'
p5175
S"<class 'gluon.html.BUTTON'>"
p5176
sS'H1'
p5177
S"<class 'gluon.html.H1'>"
p5178
sS'H6'
p5179
S"<class 'gluon.html.H6'>"
p5180
sS'H4'
p5181
S"<class 'gluon.html.H4'>"
p5182
sS'H5'
p5183
S"<class 'gluon.html.H5'>"
p5184
sS'UL'
p5185
S"<class 'gluon.html.UL'>"
p5186
sS'IS_UPPER'
p5187
S"<class 'gluon.validators.IS_UPPER'>"
p5188
sS'xmlescape'
p5189
S'<function xmlescape at 0x01EEF830>'
p5190
sS'IS_TIME'
p5191
S"<class 'gluon.validators.IS_TIME'>"
p5192
sS'OPTION'
p5193
S"<class 'gluon.html.OPTION'>"
p5194
sS'TITLE'
p5195
S"<class 'gluon.html.TITLE'>"
p5196
sS'CRYPT'
p5197
S"<class 'gluon.validators.CRYPT'>"
p5198
sS'IS_EMPTY_OR'
p5199
S"<class 'gluon.validators.IS_EMPTY_OR'>"
p5200
sS'MARKMIN'
p5201
S"<class 'gluon.html.MARKMIN'>"
p5202
sS'table'
p5203
S"{'OpaqueRef:138424fa-12b7-8e35-09f0-7a693768d955': {'HVM_boot_params': {'order': 'dc'}, 'HVM_boot_policy': '', 'HVM_shadow_multiplier': 1.0, 'PCI_bus': '', 'PV_args': 'console=tty0 xencons=tty', 'PV_bootloader': 'pygrub', 'PV_bootloader_args': '', 'PV_kernel': '', 'PV_legacy_args': '', 'PV_ramdisk': '', ...}, 'OpaqueRef:372578d3-e16f-bf81-47c0-12e8507194a7': {'HVM_boot_params': {'order': 'dc'}, 'HVM_boot_policy': '', 'HVM_shadow_multiplier': 1.0, 'PCI_bus': '', 'PV_args': 'console=tty0 xencons=tty', 'PV_bootloader': 'pygrub', 'PV_bootloader_args': '', 'PV_kernel': '', 'PV_legacy_args': '', 'PV_ramdisk': '', ...}, 'OpaqueRef:58cfc232-d419-cad3-0464-3734f532e042': {'HVM_boot_params': {'order': 'dc'}, 'HVM_boot_policy': '', 'HVM_shadow_multiplier': 1.0, 'PCI_bus': '', 'PV_args': 'console=tty0 xencons=tty', 'PV_bootloader': 'pygrub', 'PV_bootloader_args': '', 'PV_kernel': '', 'PV_legacy_args': '', 'PV_ramdisk': '', ...}, 'OpaqueRef:b6282fa5-ba6b-96c7-de67-8feb77667464': {'HVM_boot_params': {'order': 'dc'}, 'HVM_boot_policy': '', 'HVM_shadow_multiplier': 1.0, 'PCI_bus': '', 'PV_args': 'console=tty0 xencons=tty', 'PV_bootloader': 'pygrub', 'PV_bootloader_args': '', 'PV_kernel': '', 'PV_legacy_args': '', 'PV_ramdisk': '', ...}, 'OpaqueRef:b63044f5-4f79-9e20-5a15-ba3452f96813': {'HVM_boot_params': {'order': 'dc'}, 'HVM_boot_policy': '', 'HVM_shadow_multiplier': 1.0, 'PCI_bus': '', 'PV_args': 'console=tty0 xencons=tty', 'PV_bootloader': 'pygrub', 'PV_bootloader_args': '', 'PV_kernel': '', 'PV_legacy_args': '', 'PV_ramdisk': '', ...}, 'OpaqueRef:ca6b788f-864c-5174-8047-0bdd15e05783': {'HVM_boot_params': {'order': 'dc'}, 'HVM_boot_policy': 'BIOS order', 'HVM_shadow_multiplier': 1.0, 'PCI_bus': '', 'PV_args': '', 'PV_bootloader': '', 'PV_bootloader_args': '', 'PV_kernel': '', 'PV_legacy_args': '', 'PV_ramdisk': '', ...}, 'OpaqueRef:ed16ec99-5676-919e-2e79-663d5ede7ca4': {'HVM_boot_params': {}, 'HVM_boot_policy': '', 'HVM_shadow_multiplier': 1.0, 'PCI_bus': '', 'PV_args': 'console=ttyS0 xencons=ttyS', 'PV_bootloader': 'pygrub', 'PV_bootloader_args': '', 'PV_kernel': '', 'PV_legacy_args': '', 'PV_ramdisk': '', ...}, 'OpaqueRef:f7d3e324-53d2-723a-c6e2-307debcd3078': {'HVM_boot_params': {'order': 'dc'}, 'HVM_boot_policy': '', 'HVM_shadow_multiplier': 1.0, 'PCI_bus': '', 'PV_args': 'console=tty0 xencons=tty', 'PV_bootloader': 'pygrub', 'PV_bootloader_args': '', 'PV_kernel': '', 'PV_legacy_args': '', 'PV_ramdisk': '', ...}}"
p5204
sS'COL'
p5205
S"<class 'gluon.html.COL'>"
p5206
sS'service'
p5207
S'<gluon.tools.Service object at 0x05D406F0>'
p5208
sS'SCRIPT'
p5209
S"<class 'gluon.html.SCRIPT'>"
p5210
sS'is_mobile'
p5211
g92
sS'TABLE'
p5212
S"<class 'gluon.html.TABLE'>"
p5213
sS'IS_IPV4'
p5214
S"<class 'gluon.validators.IS_IPV4'>"
p5215
sS'IS_LENGTH'
p5216
S"<class 'gluon.validators.IS_LENGTH'>"
p5217
sS'XML'
p5218
S"<class 'gluon.html.XML'>"
p5219
sS'B'
S"<class 'gluon.html.B'>"
p5220
sS'IMG'
p5221
S"<class 'gluon.html.IMG'>"
p5222
sS'SQLTABLE'
p5223
S"<class 'gluon.sqlhtml.SQLTABLE'>"
p5224
sS'IS_MATCH'
p5225
S"<class 'gluon.validators.IS_MATCH'>"
p5226
sS'IS_ALPHANUMERIC'
p5227
S"<class 'gluon.validators.IS_ALPHANUMERIC'>"
p5228
sS'SPAN'
p5229
S"<class 'gluon.html.SPAN'>"
p5230
sS'IS_SLUG'
p5231
S"<class 'gluon.validators.IS_SLUG'>"
p5232
sS'BEAUTIFY'
p5233
S"<class 'gluon.html.BEAUTIFY'>"
p5234
sS'META'
p5235
S"<class 'gluon.html.META'>"
p5236
sS'IS_DATE'
p5237
S"<class 'gluon.validators.IS_DATE'>"
p5238
sS'IS_EMAIL'
p5239
S"<class 'gluon.validators.IS_EMAIL'>"
p5240
sS'IS_NOT_EMPTY'
p5241
S"<class 'gluon.validators.IS_NOT_EMPTY'>"
p5242
sS'IS_FLOAT_IN_RANGE'
p5243
S"<class 'gluon.validators.IS_FLOAT_IN_RANGE'>"
p5244
sS'TBODY'
p5245
S"<class 'gluon.html.TBODY'>"
p5246
sS'CAT'
p5247
S"<class 'gluon.html.CAT'>"
p5248
sS'Field'
p5249
S"<class 'gluon.dal.Field'>"
p5250
sS'middle_columns'
p5251
S"'sixteen'"
p5252
sS'DIV'
p5253
S"<class 'gluon.html.DIV'>"
p5254
sS'LEGEND'
p5255
S"<class 'gluon.html.LEGEND'>"
p5256
sS'COLGROUP'
p5257
S"<class 'gluon.html.COLGROUP'>"
p5258
sS'DAL'
p5259
S"<class 'gluon.dal.DAL'>"
p5260
sS'TT'
p5261
S"<class 'gluon.html.TT'>"
p5262
sS'TR'
p5263
S"<class 'gluon.html.TR'>"
p5264
sS'LI'
p5265
S"<class 'gluon.html.LI'>"
p5266
sS'right_sidebar_enabled'
p5267
g92
sS'IFRAME'
p5268
S"<class 'gluon.html.IFRAME'>"
p5269
sS'TD'
p5270
S"<class 'gluon.html.TD'>"
p5271
sS'PluginManager'
p5272
S"<class 'gluon.tools.PluginManager'>"
p5273
sS'IS_URL'
p5274
S"<class 'gluon.validators.IS_URL'>"
p5275
sS'A'
S"<class 'gluon.html.A'>"
p5276
sS'STYLE'
p5277
S"<class 'gluon.html.STYLE'>"
p5278
sS'IS_DATETIME_IN_RANGE'
p5279
S"<class 'gluon.validators.IS_DATETIME_IN_RANGE'>"
p5280
sS'IS_IMAGE'
p5281
S"<class 'gluon.validators.IS_IMAGE'>"
p5282
sS'I'
S"<class 'gluon.html.I'>"
p5283
sS'crud'
p5284
S'<gluon.tools.Crud object at 0x05B90B70>'
p5285
sS'IS_NOT_IN_DB'
p5286
S"<class 'gluon.validators.IS_NOT_IN_DB'>"
p5287
sg2987
S"<Storage {'body': <cStringIO.StringO object at 0...da> at 0x05CA4A70>, 'view': 'listvm/index.html'}>"
p5288
sS'THEAD'
p5289
S"<class 'gluon.html.THEAD'>"
p5290
sS'IS_NULL_OR'
p5291
S"<class 'gluon.validators.IS_EMPTY_OR'>"
p5292
sg48
S"<Storage {'body': <cStringIO.StringO object at 0..._vars': <Storage {}>, 'post_vars': <Storage {}>}>"
p5293
sS'IS_EXPR'
p5294
S"<class 'gluon.validators.IS_EXPR'>"
p5295
sS'T'
S'<gluon.languages.translator object at 0x05B90550>'
p5296
sS'IS_IN_SET'
p5297
S"<class 'gluon.validators.IS_IN_SET'>"
p5298
sS'IS_UPLOAD_FILENAME'
p5299
S"<class 'gluon.validators.IS_UPLOAD_FILENAME'>"
p5300
sS'IS_DECIMAL_IN_RANGE'
p5301
S"<class 'gluon.validators.IS_DECIMAL_IN_RANGE'>"
p5302
sssS'traceback'
p5303
S'Traceback (most recent call last):\n  File "gluon/restricted.py", line 204, in restricted\n  File "C:\\Users\\nilton\\Desktop\\scripts\\curso_de_python\\web2py\\applications\\xcpadmin\\views\\listvm/index.html", line 82, in <module>\nTypeError: string indices must be integers\n'
p5304
s.