(dp1
S'output'
p2
S"<class 'socket.error'> (10060, 'Operation timed out')"
p3
sS'layer'
p4
S'C:\\Users\\nilton\\Desktop\\scripts\\curso_de_python\\web2py\\applications\\xcpadmin\\controllers/listvm.py'
p5
sS'code'
p6
S'# coding: utf8\n# tente algo como\n\nimport sys, time\nimport XenAPI\n\ndef index():\n    response.title = "XCP ADMIN"\n    url = \'https://187.103.137.248\'\n    username = \'root\'\n    password = \'<%fenix%>\'\n    session = XenAPI.Session(url)\n    session.xenapi.login_with_password(username, password)\n    vms = session.xenapi.VM.get_all()\n    vm_list = {}\n    for vm in vms:\n        get = session.xenapi.VM.get_record(vm)\n        # We cannot power-cycle templates and we should avoid touching control domains\n        # unless we are really sure of what we are doing...\n        if not (get["is_a_template"]) and not (get["is_control_domain"]):\n            get["memory_static_max"] = ( int(get["memory_static_max"]) / (1024 * 1024) )\n            vm_list[vm] = get\n\n    return dict(table=vm_list, vms=vms)\n\nresponse._vars=response._caller(index)\n'
p7
sS'snapshot'
p8
(dp9
S'exception'
p10
(dp11
S'__hash__'
p12
S"<method-wrapper '__hash__' of error object at 0x029653A0>"
p13
sS'__module__'
p14
S"'socket'"
p15
sS'__reduce_ex__'
p16
S'<built-in method __reduce_ex__ of error object at 0x029653A0>'
p17
sS'__getslice__'
p18
S"<method-wrapper '__getslice__' of error object at 0x029653A0>"
p19
sS'__getitem__'
p20
S"<method-wrapper '__getitem__' of error object at 0x029653A0>"
p21
sS'__setstate__'
p22
S'<built-in method __setstate__ of error object at 0x029653A0>'
p23
sS'__reduce__'
p24
S'<built-in method __reduce__ of error object at 0x029653A0>'
p25
sS'__str__'
p26
S"<method-wrapper '__str__' of error object at 0x029653A0>"
p27
sS'args'
p28
S"(10060, 'Operation timed out')"
p29
sS'__getattribute__'
p30
S"<method-wrapper '__getattribute__' of error object at 0x029653A0>"
p31
sS'__class__'
p32
S"<class 'socket.error'>"
p33
sS'__delattr__'
p34
S"<method-wrapper '__delattr__' of error object at 0x029653A0>"
p35
sS'__repr__'
p36
S"<method-wrapper '__repr__' of error object at 0x029653A0>"
p37
sS'__setattr__'
p38
S"<method-wrapper '__setattr__' of error object at 0x029653A0>"
p39
sS'__dict__'
p40
S'{}'
p41
sS'__weakref__'
p42
S'None'
p43
sS'__doc__'
p44
S'None'
p45
sS'__init__'
p46
S"<method-wrapper '__init__' of error object at 0x029653A0>"
p47
sS'__new__'
p48
S'<built-in method __new__ of type object at 0x1E1CCBE8>'
p49
ssS'evalue'
p50
S"(10060, 'Operation timed out')"
p51
sS'request'
p52
ccopy_reg
_reconstructor
p53
(cgluon.html
BEAUTIFY
p54
c__builtin__
object
p55
NtRp56
(dp57
S'attributes'
p58
(dp59
sS'components'
p60
(lp61
g53
(cgluon.html
TABLE
p62
g55
NtRp63
(dp64
g58
(dp65
S'level'
p66
I5
ssS'parent'
p67
Nsg60
(lp68
g53
(cgluon.html
TR
p69
g55
NtRp70
(dp71
g58
(dp72
sg67
g63
sg60
(lp73
g53
(cgluon.html
TD
p74
g55
NtRp75
(dp76
g58
(dp77
S'_style'
p78
S'font-weight:bold;vertical-align:top'
p79
ssg67
g70
sg60
(lp80
S'ajax'
p81
asbag53
(g74
g55
NtRp82
(dp83
g58
(dp84
S'_valign'
p85
S'top'
p86
ssg67
g70
sg60
(lp87
S':'
asbag53
(g74
g55
NtRp88
(dp89
g58
(dp90
sg67
g70
sg60
(lp91
g53
(g54
g55
NtRp92
(dp93
g58
(dp94
g66
I5
ssg67
g88
sg60
(lp95
S'False'
p96
asbasbasbag53
(g69
g55
NtRp97
(dp98
g58
(dp99
sg67
g63
sg60
(lp100
g53
(g74
g55
NtRp101
(dp102
g58
(dp103
g78
g79
ssg67
g97
sg60
(lp104
S'application'
p105
asbag53
(g74
g55
NtRp106
(dp107
g58
(dp108
g85
g86
ssg67
g97
sg60
(lp109
S':'
asbag53
(g74
g55
NtRp110
(dp111
g58
(dp112
sg67
g97
sg60
(lp113
g53
(g54
g55
NtRp114
(dp115
g58
(dp116
g66
I5
ssg67
g110
sg60
(lp117
S'xcpadmin'
p118
asbasbasbag53
(g69
g55
NtRp119
(dp120
g58
(dp121
sg67
g63
sg60
(lp122
g53
(g74
g55
NtRp123
(dp124
g58
(dp125
g78
g79
ssg67
g119
sg60
(lp126
g28
asbag53
(g74
g55
NtRp127
(dp128
g58
(dp129
g85
g86
ssg67
g119
sg60
(lp130
S':'
asbag53
(g74
g55
NtRp131
(dp132
g58
(dp133
sg67
g119
sg60
(lp134
g53
(g54
g55
NtRp135
(dp136
g58
(dp137
g66
I5
ssg67
g131
sg60
(lp138
g53
(g62
g55
NtRp139
(dp140
g58
(dp141
g66
I4
ssg67
Nsg60
(lp142
sbasbasbasbag53
(g69
g55
NtRp143
(dp144
g58
(dp145
sg67
g63
sg60
(lp146
g53
(g74
g55
NtRp147
(dp148
g58
(dp149
g78
g79
ssg67
g143
sg60
(lp150
S'body'
p151
asbag53
(g74
g55
NtRp152
(dp153
g58
(dp154
g85
g86
ssg67
g143
sg60
(lp155
S':'
asbag53
(g74
g55
NtRp156
(dp157
g58
(dp158
sg67
g143
sg60
(lp159
g53
(g54
g55
NtRp160
(dp161
g58
(dp162
g66
I5
ssg67
g156
sg60
(lp163
S'<cStringIO.StringO object at 0x0293B820>'
p164
asbasbasbag53
(g69
g55
NtRp165
(dp166
g58
(dp167
sg67
g63
sg60
(lp168
g53
(g74
g55
NtRp169
(dp170
g58
(dp171
g78
g79
ssg67
g165
sg60
(lp172
S'client'
p173
asbag53
(g74
g55
NtRp174
(dp175
g58
(dp176
g85
g86
ssg67
g165
sg60
(lp177
S':'
asbag53
(g74
g55
NtRp178
(dp179
g58
(dp180
sg67
g165
sg60
(lp181
g53
(g54
g55
NtRp182
(dp183
g58
(dp184
g66
I5
ssg67
g178
sg60
(lp185
S'127.0.0.1'
p186
asbasbasbag53
(g69
g55
NtRp187
(dp188
g58
(dp189
sg67
g63
sg60
(lp190
g53
(g74
g55
NtRp191
(dp192
g58
(dp193
g78
g79
ssg67
g187
sg60
(lp194
S'controller'
p195
asbag53
(g74
g55
NtRp196
(dp197
g58
(dp198
g85
g86
ssg67
g187
sg60
(lp199
S':'
asbag53
(g74
g55
NtRp200
(dp201
g58
(dp202
sg67
g187
sg60
(lp203
g53
(g54
g55
NtRp204
(dp205
g58
(dp206
g66
I5
ssg67
g200
sg60
(lp207
S'listvm'
p208
asbasbasbag53
(g69
g55
NtRp209
(dp210
g58
(dp211
sg67
g63
sg60
(lp212
g53
(g74
g55
NtRp213
(dp214
g58
(dp215
g78
g79
ssg67
g209
sg60
(lp216
S'cookies'
p217
asbag53
(g74
g55
NtRp218
(dp219
g58
(dp220
g85
g86
ssg67
g209
sg60
(lp221
S':'
asbag53
(g74
g55
NtRp222
(dp223
g58
(dp224
sg67
g209
sg60
(lp225
g53
(g54
g55
NtRp226
(dp227
g58
(dp228
g66
I5
ssg67
g222
sg60
(lp229
g53
(g62
g55
NtRp230
(dp231
g58
(dp232
g66
I4
ssg67
Nsg60
(lp233
g53
(g69
g55
NtRp234
(dp235
g58
(dp236
sg67
g230
sg60
(lp237
g53
(g74
g55
NtRp238
(dp239
g58
(dp240
g78
g79
ssg67
g234
sg60
(lp241
S'session_id_admin'
p242
asbag53
(g74
g55
NtRp243
(dp244
g58
(dp245
g85
g86
ssg67
g234
sg60
(lp246
S':'
asbag53
(g74
g55
NtRp247
(dp248
g58
(dp249
sg67
g234
sg60
(lp250
g53
(g54
g55
NtRp251
(dp252
g58
(dp253
g66
I4
ssg67
g247
sg60
(lp254
g53
(g62
g55
NtRp255
(dp256
g58
(dp257
g66
I3
ssg67
Nsg60
(lp258
g53
(g69
g55
NtRp259
(dp260
g58
(dp261
sg67
g255
sg60
(lp262
g53
(g74
g55
NtRp263
(dp264
g58
(dp265
g78
g79
ssg67
g259
sg60
(lp266
S'comment'
p267
asbag53
(g74
g55
NtRp268
(dp269
g58
(dp270
g85
g86
ssg67
g259
sg60
(lp271
S':'
asbag53
(g74
g55
NtRp272
(dp273
g58
(dp274
sg67
g259
sg60
(lp275
g53
(g54
g55
NtRp276
(dp277
g58
(dp278
g66
I3
ssg67
g272
sg60
(lp279
S''
asbasbasbag53
(g69
g55
NtRp280
(dp281
g58
(dp282
sg67
g255
sg60
(lp283
g53
(g74
g55
NtRp284
(dp285
g58
(dp286
g78
g79
ssg67
g280
sg60
(lp287
S'domain'
p288
asbag53
(g74
g55
NtRp289
(dp290
g58
(dp291
g85
g86
ssg67
g280
sg60
(lp292
S':'
asbag53
(g74
g55
NtRp293
(dp294
g58
(dp295
sg67
g280
sg60
(lp296
g53
(g54
g55
NtRp297
(dp298
g58
(dp299
g66
I3
ssg67
g293
sg60
(lp300
S''
asbasbasbag53
(g69
g55
NtRp301
(dp302
g58
(dp303
sg67
g255
sg60
(lp304
g53
(g74
g55
NtRp305
(dp306
g58
(dp307
g78
g79
ssg67
g301
sg60
(lp308
S'expires'
p309
asbag53
(g74
g55
NtRp310
(dp311
g58
(dp312
g85
g86
ssg67
g301
sg60
(lp313
S':'
asbag53
(g74
g55
NtRp314
(dp315
g58
(dp316
sg67
g301
sg60
(lp317
g53
(g54
g55
NtRp318
(dp319
g58
(dp320
g66
I3
ssg67
g314
sg60
(lp321
S''
asbasbasbag53
(g69
g55
NtRp322
(dp323
g58
(dp324
sg67
g255
sg60
(lp325
g53
(g74
g55
NtRp326
(dp327
g58
(dp328
g78
g79
ssg67
g322
sg60
(lp329
S'max-age'
p330
asbag53
(g74
g55
NtRp331
(dp332
g58
(dp333
g85
g86
ssg67
g322
sg60
(lp334
S':'
asbag53
(g74
g55
NtRp335
(dp336
g58
(dp337
sg67
g322
sg60
(lp338
g53
(g54
g55
NtRp339
(dp340
g58
(dp341
g66
I3
ssg67
g335
sg60
(lp342
S''
asbasbasbag53
(g69
g55
NtRp343
(dp344
g58
(dp345
sg67
g255
sg60
(lp346
g53
(g74
g55
NtRp347
(dp348
g58
(dp349
g78
g79
ssg67
g343
sg60
(lp350
S'path'
p351
asbag53
(g74
g55
NtRp352
(dp353
g58
(dp354
g85
g86
ssg67
g343
sg60
(lp355
S':'
asbag53
(g74
g55
NtRp356
(dp357
g58
(dp358
sg67
g343
sg60
(lp359
g53
(g54
g55
NtRp360
(dp361
g58
(dp362
g66
I3
ssg67
g356
sg60
(lp363
S''
asbasbasbag53
(g69
g55
NtRp364
(dp365
g58
(dp366
sg67
g255
sg60
(lp367
g53
(g74
g55
NtRp368
(dp369
g58
(dp370
g78
g79
ssg67
g364
sg60
(lp371
S'secure'
p372
asbag53
(g74
g55
NtRp373
(dp374
g58
(dp375
g85
g86
ssg67
g364
sg60
(lp376
S':'
asbag53
(g74
g55
NtRp377
(dp378
g58
(dp379
sg67
g364
sg60
(lp380
g53
(g54
g55
NtRp381
(dp382
g58
(dp383
g66
I3
ssg67
g377
sg60
(lp384
S''
asbasbasbag53
(g69
g55
NtRp385
(dp386
g58
(dp387
sg67
g255
sg60
(lp388
g53
(g74
g55
NtRp389
(dp390
g58
(dp391
g78
g79
ssg67
g385
sg60
(lp392
S'version'
p393
asbag53
(g74
g55
NtRp394
(dp395
g58
(dp396
g85
g86
ssg67
g385
sg60
(lp397
S':'
asbag53
(g74
g55
NtRp398
(dp399
g58
(dp400
sg67
g385
sg60
(lp401
g53
(g54
g55
NtRp402
(dp403
g58
(dp404
g66
I3
ssg67
g398
sg60
(lp405
S''
asbasbasbasbasbasbasbag53
(g69
g55
NtRp406
(dp407
g58
(dp408
sg67
g230
sg60
(lp409
g53
(g74
g55
NtRp410
(dp411
g58
(dp412
g78
g79
ssg67
g406
sg60
(lp413
S'session_id_welcome'
p414
asbag53
(g74
g55
NtRp415
(dp416
g58
(dp417
g85
g86
ssg67
g406
sg60
(lp418
S':'
asbag53
(g74
g55
NtRp419
(dp420
g58
(dp421
sg67
g406
sg60
(lp422
g53
(g54
g55
NtRp423
(dp424
g58
(dp425
g66
I4
ssg67
g419
sg60
(lp426
g53
(g62
g55
NtRp427
(dp428
g58
(dp429
g66
I3
ssg67
Nsg60
(lp430
g53
(g69
g55
NtRp431
(dp432
g58
(dp433
sg67
g427
sg60
(lp434
g53
(g74
g55
NtRp435
(dp436
g58
(dp437
g78
g79
ssg67
g431
sg60
(lp438
g267
asbag53
(g74
g55
NtRp439
(dp440
g58
(dp441
g85
g86
ssg67
g431
sg60
(lp442
S':'
asbag53
(g74
g55
NtRp443
(dp444
g58
(dp445
sg67
g431
sg60
(lp446
g53
(g54
g55
NtRp447
(dp448
g58
(dp449
g66
I3
ssg67
g443
sg60
(lp450
S''
asbasbasbag53
(g69
g55
NtRp451
(dp452
g58
(dp453
sg67
g427
sg60
(lp454
g53
(g74
g55
NtRp455
(dp456
g58
(dp457
g78
g79
ssg67
g451
sg60
(lp458
g288
asbag53
(g74
g55
NtRp459
(dp460
g58
(dp461
g85
g86
ssg67
g451
sg60
(lp462
S':'
asbag53
(g74
g55
NtRp463
(dp464
g58
(dp465
sg67
g451
sg60
(lp466
g53
(g54
g55
NtRp467
(dp468
g58
(dp469
g66
I3
ssg67
g463
sg60
(lp470
S''
asbasbasbag53
(g69
g55
NtRp471
(dp472
g58
(dp473
sg67
g427
sg60
(lp474
g53
(g74
g55
NtRp475
(dp476
g58
(dp477
g78
g79
ssg67
g471
sg60
(lp478
g309
asbag53
(g74
g55
NtRp479
(dp480
g58
(dp481
g85
g86
ssg67
g471
sg60
(lp482
S':'
asbag53
(g74
g55
NtRp483
(dp484
g58
(dp485
sg67
g471
sg60
(lp486
g53
(g54
g55
NtRp487
(dp488
g58
(dp489
g66
I3
ssg67
g483
sg60
(lp490
S''
asbasbasbag53
(g69
g55
NtRp491
(dp492
g58
(dp493
sg67
g427
sg60
(lp494
g53
(g74
g55
NtRp495
(dp496
g58
(dp497
g78
g79
ssg67
g491
sg60
(lp498
g330
asbag53
(g74
g55
NtRp499
(dp500
g58
(dp501
g85
g86
ssg67
g491
sg60
(lp502
S':'
asbag53
(g74
g55
NtRp503
(dp504
g58
(dp505
sg67
g491
sg60
(lp506
g53
(g54
g55
NtRp507
(dp508
g58
(dp509
g66
I3
ssg67
g503
sg60
(lp510
S''
asbasbasbag53
(g69
g55
NtRp511
(dp512
g58
(dp513
sg67
g427
sg60
(lp514
g53
(g74
g55
NtRp515
(dp516
g58
(dp517
g78
g79
ssg67
g511
sg60
(lp518
g351
asbag53
(g74
g55
NtRp519
(dp520
g58
(dp521
g85
g86
ssg67
g511
sg60
(lp522
S':'
asbag53
(g74
g55
NtRp523
(dp524
g58
(dp525
sg67
g511
sg60
(lp526
g53
(g54
g55
NtRp527
(dp528
g58
(dp529
g66
I3
ssg67
g523
sg60
(lp530
S''
asbasbasbag53
(g69
g55
NtRp531
(dp532
g58
(dp533
sg67
g427
sg60
(lp534
g53
(g74
g55
NtRp535
(dp536
g58
(dp537
g78
g79
ssg67
g531
sg60
(lp538
g372
asbag53
(g74
g55
NtRp539
(dp540
g58
(dp541
g85
g86
ssg67
g531
sg60
(lp542
S':'
asbag53
(g74
g55
NtRp543
(dp544
g58
(dp545
sg67
g531
sg60
(lp546
g53
(g54
g55
NtRp547
(dp548
g58
(dp549
g66
I3
ssg67
g543
sg60
(lp550
S''
asbasbasbag53
(g69
g55
NtRp551
(dp552
g58
(dp553
sg67
g427
sg60
(lp554
g53
(g74
g55
NtRp555
(dp556
g58
(dp557
g78
g79
ssg67
g551
sg60
(lp558
g393
asbag53
(g74
g55
NtRp559
(dp560
g58
(dp561
g85
g86
ssg67
g551
sg60
(lp562
S':'
asbag53
(g74
g55
NtRp563
(dp564
g58
(dp565
sg67
g551
sg60
(lp566
g53
(g54
g55
NtRp567
(dp568
g58
(dp569
g66
I3
ssg67
g563
sg60
(lp570
S''
asbasbasbasbasbasbasbag53
(g69
g55
NtRp571
(dp572
g58
(dp573
sg67
g230
sg60
(lp574
g53
(g74
g55
NtRp575
(dp576
g58
(dp577
g78
g79
ssg67
g571
sg60
(lp578
S'session_id_xcpadmin'
p579
asbag53
(g74
g55
NtRp580
(dp581
g58
(dp582
g85
g86
ssg67
g571
sg60
(lp583
S':'
asbag53
(g74
g55
NtRp584
(dp585
g58
(dp586
sg67
g571
sg60
(lp587
g53
(g54
g55
NtRp588
(dp589
g58
(dp590
g66
I4
ssg67
g584
sg60
(lp591
g53
(g62
g55
NtRp592
(dp593
g58
(dp594
g66
I3
ssg67
Nsg60
(lp595
g53
(g69
g55
NtRp596
(dp597
g58
(dp598
sg67
g592
sg60
(lp599
g53
(g74
g55
NtRp600
(dp601
g58
(dp602
g78
g79
ssg67
g596
sg60
(lp603
g267
asbag53
(g74
g55
NtRp604
(dp605
g58
(dp606
g85
g86
ssg67
g596
sg60
(lp607
S':'
asbag53
(g74
g55
NtRp608
(dp609
g58
(dp610
sg67
g596
sg60
(lp611
g53
(g54
g55
NtRp612
(dp613
g58
(dp614
g66
I3
ssg67
g608
sg60
(lp615
S''
asbasbasbag53
(g69
g55
NtRp616
(dp617
g58
(dp618
sg67
g592
sg60
(lp619
g53
(g74
g55
NtRp620
(dp621
g58
(dp622
g78
g79
ssg67
g616
sg60
(lp623
g288
asbag53
(g74
g55
NtRp624
(dp625
g58
(dp626
g85
g86
ssg67
g616
sg60
(lp627
S':'
asbag53
(g74
g55
NtRp628
(dp629
g58
(dp630
sg67
g616
sg60
(lp631
g53
(g54
g55
NtRp632
(dp633
g58
(dp634
g66
I3
ssg67
g628
sg60
(lp635
S''
asbasbasbag53
(g69
g55
NtRp636
(dp637
g58
(dp638
sg67
g592
sg60
(lp639
g53
(g74
g55
NtRp640
(dp641
g58
(dp642
g78
g79
ssg67
g636
sg60
(lp643
g309
asbag53
(g74
g55
NtRp644
(dp645
g58
(dp646
g85
g86
ssg67
g636
sg60
(lp647
S':'
asbag53
(g74
g55
NtRp648
(dp649
g58
(dp650
sg67
g636
sg60
(lp651
g53
(g54
g55
NtRp652
(dp653
g58
(dp654
g66
I3
ssg67
g648
sg60
(lp655
S''
asbasbasbag53
(g69
g55
NtRp656
(dp657
g58
(dp658
sg67
g592
sg60
(lp659
g53
(g74
g55
NtRp660
(dp661
g58
(dp662
g78
g79
ssg67
g656
sg60
(lp663
g330
asbag53
(g74
g55
NtRp664
(dp665
g58
(dp666
g85
g86
ssg67
g656
sg60
(lp667
S':'
asbag53
(g74
g55
NtRp668
(dp669
g58
(dp670
sg67
g656
sg60
(lp671
g53
(g54
g55
NtRp672
(dp673
g58
(dp674
g66
I3
ssg67
g668
sg60
(lp675
S''
asbasbasbag53
(g69
g55
NtRp676
(dp677
g58
(dp678
sg67
g592
sg60
(lp679
g53
(g74
g55
NtRp680
(dp681
g58
(dp682
g78
g79
ssg67
g676
sg60
(lp683
g351
asbag53
(g74
g55
NtRp684
(dp685
g58
(dp686
g85
g86
ssg67
g676
sg60
(lp687
S':'
asbag53
(g74
g55
NtRp688
(dp689
g58
(dp690
sg67
g676
sg60
(lp691
g53
(g54
g55
NtRp692
(dp693
g58
(dp694
g66
I3
ssg67
g688
sg60
(lp695
S''
asbasbasbag53
(g69
g55
NtRp696
(dp697
g58
(dp698
sg67
g592
sg60
(lp699
g53
(g74
g55
NtRp700
(dp701
g58
(dp702
g78
g79
ssg67
g696
sg60
(lp703
g372
asbag53
(g74
g55
NtRp704
(dp705
g58
(dp706
g85
g86
ssg67
g696
sg60
(lp707
S':'
asbag53
(g74
g55
NtRp708
(dp709
g58
(dp710
sg67
g696
sg60
(lp711
g53
(g54
g55
NtRp712
(dp713
g58
(dp714
g66
I3
ssg67
g708
sg60
(lp715
S''
asbasbasbag53
(g69
g55
NtRp716
(dp717
g58
(dp718
sg67
g592
sg60
(lp719
g53
(g74
g55
NtRp720
(dp721
g58
(dp722
g78
g79
ssg67
g716
sg60
(lp723
g393
asbag53
(g74
g55
NtRp724
(dp725
g58
(dp726
g85
g86
ssg67
g716
sg60
(lp727
S':'
asbag53
(g74
g55
NtRp728
(dp729
g58
(dp730
sg67
g716
sg60
(lp731
g53
(g54
g55
NtRp732
(dp733
g58
(dp734
g66
I3
ssg67
g728
sg60
(lp735
S''
asbasbasbasbasbasbasbasbasbasbasbag53
(g69
g55
NtRp736
(dp737
g58
(dp738
sg67
g63
sg60
(lp739
g53
(g74
g55
NtRp740
(dp741
g58
(dp742
g78
g79
ssg67
g736
sg60
(lp743
S'env'
p744
asbag53
(g74
g55
NtRp745
(dp746
g58
(dp747
g85
g86
ssg67
g736
sg60
(lp748
S':'
asbag53
(g74
g55
NtRp749
(dp750
g58
(dp751
sg67
g736
sg60
(lp752
g53
(g54
g55
NtRp753
(dp754
g58
(dp755
g66
I5
ssg67
g749
sg60
(lp756
g53
(g62
g55
NtRp757
(dp758
g58
(dp759
g66
I4
ssg67
Nsg60
(lp760
g53
(g69
g55
NtRp761
(dp762
g58
(dp763
sg67
g757
sg60
(lp764
g53
(g74
g55
NtRp765
(dp766
g58
(dp767
g78
g79
ssg67
g761
sg60
(lp768
S'app_folders'
p769
asbag53
(g74
g55
NtRp770
(dp771
g58
(dp772
g85
g86
ssg67
g761
sg60
(lp773
S':'
asbag53
(g74
g55
NtRp774
(dp775
g58
(dp776
sg67
g761
sg60
(lp777
g53
(g54
g55
NtRp778
(dp779
g58
(dp780
g66
I4
ssg67
g774
sg60
(lp781
S"set(['C:\\\\Users\\\\nilton\\\\Desktop\\\\scripts\\\\curso_de_python\\\\web2py\\\\applications\\\\admin\\\\', 'C:\\\\Users\\\\nilton\\\\Desktop\\\\scripts\\\\curso_de_python\\\\web2py\\\\applications\\\\xcpadmin\\\\', 'C:\\\\Users\\\\nilton\\\\Desktop\\\\scripts\\\\curso_de_python\\\\web2py\\\\applications\\\\welcome\\\\'])"
p782
asbasbasbag53
(g69
g55
NtRp783
(dp784
g58
(dp785
sg67
g757
sg60
(lp786
g53
(g74
g55
NtRp787
(dp788
g58
(dp789
g78
g79
ssg67
g783
sg60
(lp790
S'applications_parent'
p791
asbag53
(g74
g55
NtRp792
(dp793
g58
(dp794
g85
g86
ssg67
g783
sg60
(lp795
S':'
asbag53
(g74
g55
NtRp796
(dp797
g58
(dp798
sg67
g783
sg60
(lp799
g53
(g54
g55
NtRp800
(dp801
g58
(dp802
g66
I4
ssg67
g796
sg60
(lp803
S'C:\\Users\\nilton\\Desktop\\scripts\\curso_de_python\\web2py'
p804
asbasbasbag53
(g69
g55
NtRp805
(dp806
g58
(dp807
sg67
g757
sg60
(lp808
g53
(g74
g55
NtRp809
(dp810
g58
(dp811
g78
g79
ssg67
g805
sg60
(lp812
S'cmd_args'
p813
asbag53
(g74
g55
NtRp814
(dp815
g58
(dp816
g85
g86
ssg67
g805
sg60
(lp817
S':'
asbag53
(g74
g55
NtRp818
(dp819
g58
(dp820
sg67
g805
sg60
(lp821
g53
(g54
g55
NtRp822
(dp823
g58
(dp824
g66
I4
ssg67
g818
sg60
(lp825
g53
(g62
g55
NtRp826
(dp827
g58
(dp828
g66
I3
ssg67
Nsg60
(lp829
sbasbasbasbag53
(g69
g55
NtRp830
(dp831
g58
(dp832
sg67
g757
sg60
(lp833
g53
(g74
g55
NtRp834
(dp835
g58
(dp836
g78
g79
ssg67
g830
sg60
(lp837
S'cmd_options'
p838
asbag53
(g74
g55
NtRp839
(dp840
g58
(dp841
g85
g86
ssg67
g830
sg60
(lp842
S':'
asbag53
(g74
g55
NtRp843
(dp844
g58
(dp845
sg67
g830
sg60
(lp846
g53
(g54
g55
NtRp847
(dp848
g58
(dp849
g66
I4
ssg67
g843
sg60
(lp850
S"<Values at 0x27674b8: {'verbose': False, 'ip': '127.0.0.1', 'shutdown_timeout': 5, 'taskbar': False, 'nocron': False, 'pid_filename': 'httpserver.pid', 'maxthreads': None, 'softcron': False, 'server_name': 'nilton-NOT', 'bpython': False, 'nogui': False, 'port': 8000, 'extcron': False, 'debuglevel': 30, 'test': None, 'folder': 'C:\\\\Users\\\\nilton\\\\Desktop\\\\scripts\\\\curso_de_python\\\\web2py', 'config': '', 'import_models': False, 'winservice': '', 'shell': None, 'run': '', 'log_filename': 'httpserver.log', 'args': [''], 'socket_timeout': 1, 'ssl_ca_certificate': None, 'scheduler': None, 'profiler_filename': None, 'ssl_private_key': '', 'password': '<ask>', 'request_queue_size': 5, 'ssl_certificate': '', 'cronjob': False, 'numthreads': None, 'quiet': False, 'interfaces': None, 'minthreads': None, 'timeout': 10, 'plain': False, 'nobanner': False}>"
p851
asbasbasbag53
(g69
g55
NtRp852
(dp853
g58
(dp854
sg67
g757
sg60
(lp855
g53
(g74
g55
NtRp856
(dp857
g58
(dp858
g78
g79
ssg67
g852
sg60
(lp859
S'db_sessions'
p860
asbag53
(g74
g55
NtRp861
(dp862
g58
(dp863
g85
g86
ssg67
g852
sg60
(lp864
S':'
asbag53
(g74
g55
NtRp865
(dp866
g58
(dp867
sg67
g852
sg60
(lp868
g53
(g54
g55
NtRp869
(dp870
g58
(dp871
g66
I4
ssg67
g865
sg60
(lp872
S'set([])'
p873
asbasbasbag53
(g69
g55
NtRp874
(dp875
g58
(dp876
sg67
g757
sg60
(lp877
g53
(g74
g55
NtRp878
(dp879
g58
(dp880
g78
g79
ssg67
g874
sg60
(lp881
S'debugging'
p882
asbag53
(g74
g55
NtRp883
(dp884
g58
(dp885
g85
g86
ssg67
g874
sg60
(lp886
S':'
asbag53
(g74
g55
NtRp887
(dp888
g58
(dp889
sg67
g874
sg60
(lp890
g53
(g54
g55
NtRp891
(dp892
g58
(dp893
g66
I4
ssg67
g887
sg60
(lp894
g96
asbasbasbag53
(g69
g55
NtRp895
(dp896
g58
(dp897
sg67
g757
sg60
(lp898
g53
(g74
g55
NtRp899
(dp900
g58
(dp901
g78
g79
ssg67
g895
sg60
(lp902
S'gluon_parent'
p903
asbag53
(g74
g55
NtRp904
(dp905
g58
(dp906
g85
g86
ssg67
g895
sg60
(lp907
S':'
asbag53
(g74
g55
NtRp908
(dp909
g58
(dp910
sg67
g895
sg60
(lp911
g53
(g54
g55
NtRp912
(dp913
g58
(dp914
g66
I4
ssg67
g908
sg60
(lp915
S'C:\\Users\\nilton\\Desktop\\scripts\\curso_de_python\\web2py'
p916
asbasbasbag53
(g69
g55
NtRp917
(dp918
g58
(dp919
sg67
g757
sg60
(lp920
g53
(g74
g55
NtRp921
(dp922
g58
(dp923
g78
g79
ssg67
g917
sg60
(lp924
S'http_accept'
p925
asbag53
(g74
g55
NtRp926
(dp927
g58
(dp928
g85
g86
ssg67
g917
sg60
(lp929
S':'
asbag53
(g74
g55
NtRp930
(dp931
g58
(dp932
sg67
g917
sg60
(lp933
g53
(g54
g55
NtRp934
(dp935
g58
(dp936
g66
I4
ssg67
g930
sg60
(lp937
S'text/html,application/xhtml+xml,application/xml;q=0.9,*/*;q=0.8'
p938
asbasbasbag53
(g69
g55
NtRp939
(dp940
g58
(dp941
sg67
g757
sg60
(lp942
g53
(g74
g55
NtRp943
(dp944
g58
(dp945
g78
g79
ssg67
g939
sg60
(lp946
S'http_accept_charset'
p947
asbag53
(g74
g55
NtRp948
(dp949
g58
(dp950
g85
g86
ssg67
g939
sg60
(lp951
S':'
asbag53
(g74
g55
NtRp952
(dp953
g58
(dp954
sg67
g939
sg60
(lp955
g53
(g54
g55
NtRp956
(dp957
g58
(dp958
g66
I4
ssg67
g952
sg60
(lp959
S'ISO-8859-1,utf-8;q=0.7,*;q=0.7'
p960
asbasbasbag53
(g69
g55
NtRp961
(dp962
g58
(dp963
sg67
g757
sg60
(lp964
g53
(g74
g55
NtRp965
(dp966
g58
(dp967
g78
g79
ssg67
g961
sg60
(lp968
S'http_accept_encoding'
p969
asbag53
(g74
g55
NtRp970
(dp971
g58
(dp972
g85
g86
ssg67
g961
sg60
(lp973
S':'
asbag53
(g74
g55
NtRp974
(dp975
g58
(dp976
sg67
g961
sg60
(lp977
g53
(g54
g55
NtRp978
(dp979
g58
(dp980
g66
I4
ssg67
g974
sg60
(lp981
S'gzip, deflate'
p982
asbasbasbag53
(g69
g55
NtRp983
(dp984
g58
(dp985
sg67
g757
sg60
(lp986
g53
(g74
g55
NtRp987
(dp988
g58
(dp989
g78
g79
ssg67
g983
sg60
(lp990
S'http_accept_language'
p991
asbag53
(g74
g55
NtRp992
(dp993
g58
(dp994
g85
g86
ssg67
g983
sg60
(lp995
S':'
asbag53
(g74
g55
NtRp996
(dp997
g58
(dp998
sg67
g983
sg60
(lp999
g53
(g54
g55
NtRp1000
(dp1001
g58
(dp1002
g66
I4
ssg67
g996
sg60
(lp1003
S'pt-br,pt;q=0.8,en-us;q=0.5,en;q=0.3'
p1004
asbasbasbag53
(g69
g55
NtRp1005
(dp1006
g58
(dp1007
sg67
g757
sg60
(lp1008
g53
(g74
g55
NtRp1009
(dp1010
g58
(dp1011
g78
g79
ssg67
g1005
sg60
(lp1012
S'http_cache_control'
p1013
asbag53
(g74
g55
NtRp1014
(dp1015
g58
(dp1016
g85
g86
ssg67
g1005
sg60
(lp1017
S':'
asbag53
(g74
g55
NtRp1018
(dp1019
g58
(dp1020
sg67
g1005
sg60
(lp1021
g53
(g54
g55
NtRp1022
(dp1023
g58
(dp1024
g66
I4
ssg67
g1018
sg60
(lp1025
S'max-age=0'
p1026
asbasbasbag53
(g69
g55
NtRp1027
(dp1028
g58
(dp1029
sg67
g757
sg60
(lp1030
g53
(g74
g55
NtRp1031
(dp1032
g58
(dp1033
g78
g79
ssg67
g1027
sg60
(lp1034
S'http_connection'
p1035
asbag53
(g74
g55
NtRp1036
(dp1037
g58
(dp1038
g85
g86
ssg67
g1027
sg60
(lp1039
S':'
asbag53
(g74
g55
NtRp1040
(dp1041
g58
(dp1042
sg67
g1027
sg60
(lp1043
g53
(g54
g55
NtRp1044
(dp1045
g58
(dp1046
g66
I4
ssg67
g1040
sg60
(lp1047
S'keep-alive'
p1048
asbasbasbag53
(g69
g55
NtRp1049
(dp1050
g58
(dp1051
sg67
g757
sg60
(lp1052
g53
(g74
g55
NtRp1053
(dp1054
g58
(dp1055
g78
g79
ssg67
g1049
sg60
(lp1056
S'http_cookie'
p1057
asbag53
(g74
g55
NtRp1058
(dp1059
g58
(dp1060
g85
g86
ssg67
g1049
sg60
(lp1061
S':'
asbag53
(g74
g55
NtRp1062
(dp1063
g58
(dp1064
sg67
g1049
sg60
(lp1065
g53
(g54
g55
NtRp1066
(dp1067
g58
(dp1068
g66
I4
ssg67
g1062
sg60
(lp1069
S'session_id_welcome=127.0.0.1-e2ee4819-196b-48ee-b9a6-c158d9c6823f; session_id_xcpadmin=127.0.0.1-0cb88dcb-67b2-4748-8846-25f35503a0e7; session_id_admin=127.0.0.1-4133fdb4-b4c5-4fa8-b713-fdd8b0e34bbb'
p1070
asbasbasbag53
(g69
g55
NtRp1071
(dp1072
g58
(dp1073
sg67
g757
sg60
(lp1074
g53
(g74
g55
NtRp1075
(dp1076
g58
(dp1077
g78
g79
ssg67
g1071
sg60
(lp1078
S'http_host'
p1079
asbag53
(g74
g55
NtRp1080
(dp1081
g58
(dp1082
g85
g86
ssg67
g1071
sg60
(lp1083
S':'
asbag53
(g74
g55
NtRp1084
(dp1085
g58
(dp1086
sg67
g1071
sg60
(lp1087
g53
(g54
g55
NtRp1088
(dp1089
g58
(dp1090
g66
I4
ssg67
g1084
sg60
(lp1091
S'127.0.0.1:8000'
p1092
asbasbasbag53
(g69
g55
NtRp1093
(dp1094
g58
(dp1095
sg67
g757
sg60
(lp1096
g53
(g74
g55
NtRp1097
(dp1098
g58
(dp1099
g78
g79
ssg67
g1093
sg60
(lp1100
S'http_user_agent'
p1101
asbag53
(g74
g55
NtRp1102
(dp1103
g58
(dp1104
g85
g86
ssg67
g1093
sg60
(lp1105
S':'
asbag53
(g74
g55
NtRp1106
(dp1107
g58
(dp1108
sg67
g1093
sg60
(lp1109
g53
(g54
g55
NtRp1110
(dp1111
g58
(dp1112
g66
I4
ssg67
g1106
sg60
(lp1113
S'Mozilla/5.0 (Windows NT 6.1; rv:9.0.1) Gecko/20100101 Firefox/9.0.1'
p1114
asbasbasbag53
(g69
g55
NtRp1115
(dp1116
g58
(dp1117
sg67
g757
sg60
(lp1118
g53
(g74
g55
NtRp1119
(dp1120
g58
(dp1121
g78
g79
ssg67
g1115
sg60
(lp1122
S'is_jython'
p1123
asbag53
(g74
g55
NtRp1124
(dp1125
g58
(dp1126
g85
g86
ssg67
g1115
sg60
(lp1127
S':'
asbag53
(g74
g55
NtRp1128
(dp1129
g58
(dp1130
sg67
g1115
sg60
(lp1131
g53
(g54
g55
NtRp1132
(dp1133
g58
(dp1134
g66
I4
ssg67
g1128
sg60
(lp1135
g96
asbasbasbag53
(g69
g55
NtRp1136
(dp1137
g58
(dp1138
sg67
g757
sg60
(lp1139
g53
(g74
g55
NtRp1140
(dp1141
g58
(dp1142
g78
g79
ssg67
g1136
sg60
(lp1143
S'is_pypy'
p1144
asbag53
(g74
g55
NtRp1145
(dp1146
g58
(dp1147
g85
g86
ssg67
g1136
sg60
(lp1148
S':'
asbag53
(g74
g55
NtRp1149
(dp1150
g58
(dp1151
sg67
g1136
sg60
(lp1152
g53
(g54
g55
NtRp1153
(dp1154
g58
(dp1155
g66
I4
ssg67
g1149
sg60
(lp1156
g96
asbasbasbag53
(g69
g55
NtRp1157
(dp1158
g58
(dp1159
sg67
g757
sg60
(lp1160
g53
(g74
g55
NtRp1161
(dp1162
g58
(dp1163
g78
g79
ssg67
g1157
sg60
(lp1164
S'path_info'
p1165
asbag53
(g74
g55
NtRp1166
(dp1167
g58
(dp1168
g85
g86
ssg67
g1157
sg60
(lp1169
S':'
asbag53
(g74
g55
NtRp1170
(dp1171
g58
(dp1172
sg67
g1157
sg60
(lp1173
g53
(g54
g55
NtRp1174
(dp1175
g58
(dp1176
g66
I4
ssg67
g1170
sg60
(lp1177
S'/xcpadmin/listvm'
p1178
asbasbasbag53
(g69
g55
NtRp1179
(dp1180
g58
(dp1181
sg67
g757
sg60
(lp1182
g53
(g74
g55
NtRp1183
(dp1184
g58
(dp1185
g78
g79
ssg67
g1179
sg60
(lp1186
S'query_string'
p1187
asbag53
(g74
g55
NtRp1188
(dp1189
g58
(dp1190
g85
g86
ssg67
g1179
sg60
(lp1191
S':'
asbag53
(g74
g55
NtRp1192
(dp1193
g58
(dp1194
sg67
g1179
sg60
(lp1195
g53
(g54
g55
NtRp1196
(dp1197
g58
(dp1198
g66
I4
ssg67
g1192
sg60
(lp1199
S''
asbasbasbag53
(g69
g55
NtRp1200
(dp1201
g58
(dp1202
sg67
g757
sg60
(lp1203
g53
(g74
g55
NtRp1204
(dp1205
g58
(dp1206
g78
g79
ssg67
g1200
sg60
(lp1207
S'remote_addr'
p1208
asbag53
(g74
g55
NtRp1209
(dp1210
g58
(dp1211
g85
g86
ssg67
g1200
sg60
(lp1212
S':'
asbag53
(g74
g55
NtRp1213
(dp1214
g58
(dp1215
sg67
g1200
sg60
(lp1216
g53
(g54
g55
NtRp1217
(dp1218
g58
(dp1219
g66
I4
ssg67
g1213
sg60
(lp1220
g186
asbasbasbag53
(g69
g55
NtRp1221
(dp1222
g58
(dp1223
sg67
g757
sg60
(lp1224
g53
(g74
g55
NtRp1225
(dp1226
g58
(dp1227
g78
g79
ssg67
g1221
sg60
(lp1228
S'remote_port'
p1229
asbag53
(g74
g55
NtRp1230
(dp1231
g58
(dp1232
g85
g86
ssg67
g1221
sg60
(lp1233
S':'
asbag53
(g74
g55
NtRp1234
(dp1235
g58
(dp1236
sg67
g1221
sg60
(lp1237
g53
(g54
g55
NtRp1238
(dp1239
g58
(dp1240
g66
I4
ssg67
g1234
sg60
(lp1241
S'51817'
p1242
asbasbasbag53
(g69
g55
NtRp1243
(dp1244
g58
(dp1245
sg67
g757
sg60
(lp1246
g53
(g74
g55
NtRp1247
(dp1248
g58
(dp1249
g78
g79
ssg67
g1243
sg60
(lp1250
S'request_method'
p1251
asbag53
(g74
g55
NtRp1252
(dp1253
g58
(dp1254
g85
g86
ssg67
g1243
sg60
(lp1255
S':'
asbag53
(g74
g55
NtRp1256
(dp1257
g58
(dp1258
sg67
g1243
sg60
(lp1259
g53
(g54
g55
NtRp1260
(dp1261
g58
(dp1262
g66
I4
ssg67
g1256
sg60
(lp1263
S'GET'
p1264
asbasbasbag53
(g69
g55
NtRp1265
(dp1266
g58
(dp1267
sg67
g757
sg60
(lp1268
g53
(g74
g55
NtRp1269
(dp1270
g58
(dp1271
g78
g79
ssg67
g1265
sg60
(lp1272
S'script_name'
p1273
asbag53
(g74
g55
NtRp1274
(dp1275
g58
(dp1276
g85
g86
ssg67
g1265
sg60
(lp1277
S':'
asbag53
(g74
g55
NtRp1278
(dp1279
g58
(dp1280
sg67
g1265
sg60
(lp1281
g53
(g54
g55
NtRp1282
(dp1283
g58
(dp1284
g66
I4
ssg67
g1278
sg60
(lp1285
S''
asbasbasbag53
(g69
g55
NtRp1286
(dp1287
g58
(dp1288
sg67
g757
sg60
(lp1289
g53
(g74
g55
NtRp1290
(dp1291
g58
(dp1292
g78
g79
ssg67
g1286
sg60
(lp1293
S'server_name'
p1294
asbag53
(g74
g55
NtRp1295
(dp1296
g58
(dp1297
g85
g86
ssg67
g1286
sg60
(lp1298
S':'
asbag53
(g74
g55
NtRp1299
(dp1300
g58
(dp1301
sg67
g1286
sg60
(lp1302
g53
(g54
g55
NtRp1303
(dp1304
g58
(dp1305
g66
I4
ssg67
g1299
sg60
(lp1306
S'nilton-NOT'
p1307
asbasbasbag53
(g69
g55
NtRp1308
(dp1309
g58
(dp1310
sg67
g757
sg60
(lp1311
g53
(g74
g55
NtRp1312
(dp1313
g58
(dp1314
g78
g79
ssg67
g1308
sg60
(lp1315
S'server_port'
p1316
asbag53
(g74
g55
NtRp1317
(dp1318
g58
(dp1319
g85
g86
ssg67
g1308
sg60
(lp1320
S':'
asbag53
(g74
g55
NtRp1321
(dp1322
g58
(dp1323
sg67
g1308
sg60
(lp1324
g53
(g54
g55
NtRp1325
(dp1326
g58
(dp1327
g66
I4
ssg67
g1321
sg60
(lp1328
S'8000'
p1329
asbasbasbag53
(g69
g55
NtRp1330
(dp1331
g58
(dp1332
sg67
g757
sg60
(lp1333
g53
(g74
g55
NtRp1334
(dp1335
g58
(dp1336
g78
g79
ssg67
g1330
sg60
(lp1337
S'server_protocol'
p1338
asbag53
(g74
g55
NtRp1339
(dp1340
g58
(dp1341
g85
g86
ssg67
g1330
sg60
(lp1342
S':'
asbag53
(g74
g55
NtRp1343
(dp1344
g58
(dp1345
sg67
g1330
sg60
(lp1346
g53
(g54
g55
NtRp1347
(dp1348
g58
(dp1349
g66
I4
ssg67
g1343
sg60
(lp1350
S'HTTP/1.1'
p1351
asbasbasbag53
(g69
g55
NtRp1352
(dp1353
g58
(dp1354
sg67
g757
sg60
(lp1355
g53
(g74
g55
NtRp1356
(dp1357
g58
(dp1358
g78
g79
ssg67
g1352
sg60
(lp1359
S'server_software'
p1360
asbag53
(g74
g55
NtRp1361
(dp1362
g58
(dp1363
g85
g86
ssg67
g1352
sg60
(lp1364
S':'
asbag53
(g74
g55
NtRp1365
(dp1366
g58
(dp1367
sg67
g1352
sg60
(lp1368
g53
(g54
g55
NtRp1369
(dp1370
g58
(dp1371
g66
I4
ssg67
g1365
sg60
(lp1372
S'Rocket 1.2.4'
p1373
asbasbasbag53
(g69
g55
NtRp1374
(dp1375
g58
(dp1376
sg67
g757
sg60
(lp1377
g53
(g74
g55
NtRp1378
(dp1379
g58
(dp1380
g78
g79
ssg67
g1374
sg60
(lp1381
S'web2py_crontype'
p1382
asbag53
(g74
g55
NtRp1383
(dp1384
g58
(dp1385
g85
g86
ssg67
g1374
sg60
(lp1386
S':'
asbag53
(g74
g55
NtRp1387
(dp1388
g58
(dp1389
sg67
g1374
sg60
(lp1390
g53
(g54
g55
NtRp1391
(dp1392
g58
(dp1393
g66
I4
ssg67
g1387
sg60
(lp1394
S'hard'
p1395
asbasbasbag53
(g69
g55
NtRp1396
(dp1397
g58
(dp1398
sg67
g757
sg60
(lp1399
g53
(g74
g55
NtRp1400
(dp1401
g58
(dp1402
g78
g79
ssg67
g1396
sg60
(lp1403
S'web2py_path'
p1404
asbag53
(g74
g55
NtRp1405
(dp1406
g58
(dp1407
g85
g86
ssg67
g1396
sg60
(lp1408
S':'
asbag53
(g74
g55
NtRp1409
(dp1410
g58
(dp1411
sg67
g1396
sg60
(lp1412
g53
(g54
g55
NtRp1413
(dp1414
g58
(dp1415
g66
I4
ssg67
g1409
sg60
(lp1416
g804
asbasbasbag53
(g69
g55
NtRp1417
(dp1418
g58
(dp1419
sg67
g757
sg60
(lp1420
g53
(g74
g55
NtRp1421
(dp1422
g58
(dp1423
g78
g79
ssg67
g1417
sg60
(lp1424
S'web2py_version'
p1425
asbag53
(g74
g55
NtRp1426
(dp1427
g58
(dp1428
g85
g86
ssg67
g1417
sg60
(lp1429
S':'
asbag53
(g74
g55
NtRp1430
(dp1431
g58
(dp1432
sg67
g1417
sg60
(lp1433
g53
(g54
g55
NtRp1434
(dp1435
g58
(dp1436
g66
I4
ssg67
g1430
sg60
(lp1437
g53
(g62
g55
NtRp1438
(dp1439
g58
(dp1440
g66
I3
ssg67
Nsg60
(lp1441
g53
(g69
g55
NtRp1442
(dp1443
g58
(dp1444
sg67
g1438
sg60
(lp1445
g53
(g74
g55
NtRp1446
(dp1447
g58
(dp1448
sg67
g1442
sg60
(lp1449
g53
(g54
g55
NtRp1450
(dp1451
g58
(dp1452
g66
I3
ssg67
g1446
sg60
(lp1453
S'1'
asbasbasbag53
(g69
g55
NtRp1454
(dp1455
g58
(dp1456
sg67
g1438
sg60
(lp1457
g53
(g74
g55
NtRp1458
(dp1459
g58
(dp1460
sg67
g1454
sg60
(lp1461
g53
(g54
g55
NtRp1462
(dp1463
g58
(dp1464
g66
I3
ssg67
g1458
sg60
(lp1465
S'99'
p1466
asbasbasbag53
(g69
g55
NtRp1467
(dp1468
g58
(dp1469
sg67
g1438
sg60
(lp1470
g53
(g74
g55
NtRp1471
(dp1472
g58
(dp1473
sg67
g1467
sg60
(lp1474
g53
(g54
g55
NtRp1475
(dp1476
g58
(dp1477
g66
I3
ssg67
g1471
sg60
(lp1478
S'4'
asbasbasbag53
(g69
g55
NtRp1479
(dp1480
g58
(dp1481
sg67
g1438
sg60
(lp1482
g53
(g74
g55
NtRp1483
(dp1484
g58
(dp1485
sg67
g1479
sg60
(lp1486
g53
(g54
g55
NtRp1487
(dp1488
g58
(dp1489
g66
I3
ssg67
g1483
sg60
(lp1490
S'datetime.datetime(2011, 12, 14, 14, 46, 14)'
p1491
asbasbasbag53
(g69
g55
NtRp1492
(dp1493
g58
(dp1494
sg67
g1438
sg60
(lp1495
g53
(g74
g55
NtRp1496
(dp1497
g58
(dp1498
sg67
g1492
sg60
(lp1499
g53
(g54
g55
NtRp1500
(dp1501
g58
(dp1502
g66
I3
ssg67
g1496
sg60
(lp1503
S'stable'
p1504
asbasbasbasbasbasbasbag53
(g69
g55
NtRp1505
(dp1506
g58
(dp1507
sg67
g757
sg60
(lp1508
g53
(g74
g55
NtRp1509
(dp1510
g58
(dp1511
g78
g79
ssg67
g1505
sg60
(lp1512
S'wsgi_errors'
p1513
asbag53
(g74
g55
NtRp1514
(dp1515
g58
(dp1516
g85
g86
ssg67
g1505
sg60
(lp1517
S':'
asbag53
(g74
g55
NtRp1518
(dp1519
g58
(dp1520
sg67
g1505
sg60
(lp1521
g53
(g54
g55
NtRp1522
(dp1523
g58
(dp1524
g66
I4
ssg67
g1518
sg60
(lp1525
S'<__main__.Stderr object at 0x0124A670>'
p1526
asbasbasbag53
(g69
g55
NtRp1527
(dp1528
g58
(dp1529
sg67
g757
sg60
(lp1530
g53
(g74
g55
NtRp1531
(dp1532
g58
(dp1533
g78
g79
ssg67
g1527
sg60
(lp1534
S'wsgi_file_wrapper'
p1535
asbag53
(g74
g55
NtRp1536
(dp1537
g58
(dp1538
g85
g86
ssg67
g1527
sg60
(lp1539
S':'
asbag53
(g74
g55
NtRp1540
(dp1541
g58
(dp1542
sg67
g1527
sg60
(lp1543
g53
(g54
g55
NtRp1544
(dp1545
g58
(dp1546
g66
I4
ssg67
g1540
sg60
(lp1547
S'<class wsgiref.util.FileWrapper at 0x01BDBBA0>'
p1548
asbasbasbag53
(g69
g55
NtRp1549
(dp1550
g58
(dp1551
sg67
g757
sg60
(lp1552
g53
(g74
g55
NtRp1553
(dp1554
g58
(dp1555
g78
g79
ssg67
g1549
sg60
(lp1556
S'wsgi_input'
p1557
asbag53
(g74
g55
NtRp1558
(dp1559
g58
(dp1560
g85
g86
ssg67
g1549
sg60
(lp1561
S':'
asbag53
(g74
g55
NtRp1562
(dp1563
g58
(dp1564
sg67
g1549
sg60
(lp1565
g53
(g54
g55
NtRp1566
(dp1567
g58
(dp1568
g66
I4
ssg67
g1562
sg60
(lp1569
S'<socket._fileobject object at 0x05CBEFB0>'
p1570
asbasbasbag53
(g69
g55
NtRp1571
(dp1572
g58
(dp1573
sg67
g757
sg60
(lp1574
g53
(g74
g55
NtRp1575
(dp1576
g58
(dp1577
g78
g79
ssg67
g1571
sg60
(lp1578
S'wsgi_multiprocess'
p1579
asbag53
(g74
g55
NtRp1580
(dp1581
g58
(dp1582
g85
g86
ssg67
g1571
sg60
(lp1583
S':'
asbag53
(g74
g55
NtRp1584
(dp1585
g58
(dp1586
sg67
g1571
sg60
(lp1587
g53
(g54
g55
NtRp1588
(dp1589
g58
(dp1590
g66
I4
ssg67
g1584
sg60
(lp1591
g96
asbasbasbag53
(g69
g55
NtRp1592
(dp1593
g58
(dp1594
sg67
g757
sg60
(lp1595
g53
(g74
g55
NtRp1596
(dp1597
g58
(dp1598
g78
g79
ssg67
g1592
sg60
(lp1599
S'wsgi_multithread'
p1600
asbag53
(g74
g55
NtRp1601
(dp1602
g58
(dp1603
g85
g86
ssg67
g1592
sg60
(lp1604
S':'
asbag53
(g74
g55
NtRp1605
(dp1606
g58
(dp1607
sg67
g1592
sg60
(lp1608
g53
(g54
g55
NtRp1609
(dp1610
g58
(dp1611
g66
I4
ssg67
g1605
sg60
(lp1612
S'True'
p1613
asbasbasbag53
(g69
g55
NtRp1614
(dp1615
g58
(dp1616
sg67
g757
sg60
(lp1617
g53
(g74
g55
NtRp1618
(dp1619
g58
(dp1620
g78
g79
ssg67
g1614
sg60
(lp1621
S'wsgi_run_once'
p1622
asbag53
(g74
g55
NtRp1623
(dp1624
g58
(dp1625
g85
g86
ssg67
g1614
sg60
(lp1626
S':'
asbag53
(g74
g55
NtRp1627
(dp1628
g58
(dp1629
sg67
g1614
sg60
(lp1630
g53
(g54
g55
NtRp1631
(dp1632
g58
(dp1633
g66
I4
ssg67
g1627
sg60
(lp1634
g96
asbasbasbag53
(g69
g55
NtRp1635
(dp1636
g58
(dp1637
sg67
g757
sg60
(lp1638
g53
(g74
g55
NtRp1639
(dp1640
g58
(dp1641
g78
g79
ssg67
g1635
sg60
(lp1642
S'wsgi_url_scheme'
p1643
asbag53
(g74
g55
NtRp1644
(dp1645
g58
(dp1646
g85
g86
ssg67
g1635
sg60
(lp1647
S':'
asbag53
(g74
g55
NtRp1648
(dp1649
g58
(dp1650
sg67
g1635
sg60
(lp1651
g53
(g54
g55
NtRp1652
(dp1653
g58
(dp1654
g66
I4
ssg67
g1648
sg60
(lp1655
S'http'
p1656
asbasbasbag53
(g69
g55
NtRp1657
(dp1658
g58
(dp1659
sg67
g757
sg60
(lp1660
g53
(g74
g55
NtRp1661
(dp1662
g58
(dp1663
g78
g79
ssg67
g1657
sg60
(lp1664
S'wsgi_version'
p1665
asbag53
(g74
g55
NtRp1666
(dp1667
g58
(dp1668
g85
g86
ssg67
g1657
sg60
(lp1669
S':'
asbag53
(g74
g55
NtRp1670
(dp1671
g58
(dp1672
sg67
g1657
sg60
(lp1673
g53
(g54
g55
NtRp1674
(dp1675
g58
(dp1676
g66
I4
ssg67
g1670
sg60
(lp1677
g53
(g62
g55
NtRp1678
(dp1679
g58
(dp1680
g66
I3
ssg67
Nsg60
(lp1681
g53
(g69
g55
NtRp1682
(dp1683
g58
(dp1684
sg67
g1678
sg60
(lp1685
g53
(g74
g55
NtRp1686
(dp1687
g58
(dp1688
sg67
g1682
sg60
(lp1689
g53
(g54
g55
NtRp1690
(dp1691
g58
(dp1692
g66
I3
ssg67
g1686
sg60
(lp1693
S'1'
asbasbasbag53
(g69
g55
NtRp1694
(dp1695
g58
(dp1696
sg67
g1678
sg60
(lp1697
g53
(g74
g55
NtRp1698
(dp1699
g58
(dp1700
sg67
g1694
sg60
(lp1701
g53
(g54
g55
NtRp1702
(dp1703
g58
(dp1704
g66
I3
ssg67
g1698
sg60
(lp1705
S'0'
asbasbasbasbasbasbasbasbasbasbasbag53
(g69
g55
NtRp1706
(dp1707
g58
(dp1708
sg67
g63
sg60
(lp1709
g53
(g74
g55
NtRp1710
(dp1711
g58
(dp1712
g78
g79
ssg67
g1706
sg60
(lp1713
S'extension'
p1714
asbag53
(g74
g55
NtRp1715
(dp1716
g58
(dp1717
g85
g86
ssg67
g1706
sg60
(lp1718
S':'
asbag53
(g74
g55
NtRp1719
(dp1720
g58
(dp1721
sg67
g1706
sg60
(lp1722
g53
(g54
g55
NtRp1723
(dp1724
g58
(dp1725
g66
I5
ssg67
g1719
sg60
(lp1726
S'html'
p1727
asbasbasbag53
(g69
g55
NtRp1728
(dp1729
g58
(dp1730
sg67
g63
sg60
(lp1731
g53
(g74
g55
NtRp1732
(dp1733
g58
(dp1734
g78
g79
ssg67
g1728
sg60
(lp1735
S'folder'
p1736
asbag53
(g74
g55
NtRp1737
(dp1738
g58
(dp1739
g85
g86
ssg67
g1728
sg60
(lp1740
S':'
asbag53
(g74
g55
NtRp1741
(dp1742
g58
(dp1743
sg67
g1728
sg60
(lp1744
g53
(g54
g55
NtRp1745
(dp1746
g58
(dp1747
g66
I5
ssg67
g1741
sg60
(lp1748
S'C:\\Users\\nilton\\Desktop\\scripts\\curso_de_python\\web2py\\applications\\xcpadmin\\'
p1749
asbasbasbag53
(g69
g55
NtRp1750
(dp1751
g58
(dp1752
sg67
g63
sg60
(lp1753
g53
(g74
g55
NtRp1754
(dp1755
g58
(dp1756
g78
g79
ssg67
g1750
sg60
(lp1757
S'function'
p1758
asbag53
(g74
g55
NtRp1759
(dp1760
g58
(dp1761
g85
g86
ssg67
g1750
sg60
(lp1762
S':'
asbag53
(g74
g55
NtRp1763
(dp1764
g58
(dp1765
sg67
g1750
sg60
(lp1766
g53
(g54
g55
NtRp1767
(dp1768
g58
(dp1769
g66
I5
ssg67
g1763
sg60
(lp1770
S'index'
p1771
asbasbasbag53
(g69
g55
NtRp1772
(dp1773
g58
(dp1774
sg67
g63
sg60
(lp1775
g53
(g74
g55
NtRp1776
(dp1777
g58
(dp1778
g78
g79
ssg67
g1772
sg60
(lp1779
S'get_vars'
p1780
asbag53
(g74
g55
NtRp1781
(dp1782
g58
(dp1783
g85
g86
ssg67
g1772
sg60
(lp1784
S':'
asbag53
(g74
g55
NtRp1785
(dp1786
g58
(dp1787
sg67
g1772
sg60
(lp1788
g53
(g54
g55
NtRp1789
(dp1790
g58
(dp1791
g66
I5
ssg67
g1785
sg60
(lp1792
g53
(g62
g55
NtRp1793
(dp1794
g58
(dp1795
g66
I4
ssg67
Nsg60
(lp1796
sbasbasbasbag53
(g69
g55
NtRp1797
(dp1798
g58
(dp1799
sg67
g63
sg60
(lp1800
g53
(g74
g55
NtRp1801
(dp1802
g58
(dp1803
g78
g79
ssg67
g1797
sg60
(lp1804
S'global_settings'
p1805
asbag53
(g74
g55
NtRp1806
(dp1807
g58
(dp1808
g85
g86
ssg67
g1797
sg60
(lp1809
S':'
asbag53
(g74
g55
NtRp1810
(dp1811
g58
(dp1812
sg67
g1797
sg60
(lp1813
g53
(g54
g55
NtRp1814
(dp1815
g58
(dp1816
g66
I5
ssg67
g1810
sg60
(lp1817
g53
(g62
g55
NtRp1818
(dp1819
g58
(dp1820
g66
I4
ssg67
Nsg60
(lp1821
g53
(g69
g55
NtRp1822
(dp1823
g58
(dp1824
sg67
g1818
sg60
(lp1825
g53
(g74
g55
NtRp1826
(dp1827
g58
(dp1828
g78
g79
ssg67
g1822
sg60
(lp1829
g769
asbag53
(g74
g55
NtRp1830
(dp1831
g58
(dp1832
g85
g86
ssg67
g1822
sg60
(lp1833
S':'
asbag53
(g74
g55
NtRp1834
(dp1835
g58
(dp1836
sg67
g1822
sg60
(lp1837
g53
(g54
g55
NtRp1838
(dp1839
g58
(dp1840
g66
I4
ssg67
g1834
sg60
(lp1841
S"set(['C:\\\\Users\\\\nilton\\\\Desktop\\\\scripts\\\\curso_de_python\\\\web2py\\\\applications\\\\admin\\\\', 'C:\\\\Users\\\\nilton\\\\Desktop\\\\scripts\\\\curso_de_python\\\\web2py\\\\applications\\\\xcpadmin\\\\', 'C:\\\\Users\\\\nilton\\\\Desktop\\\\scripts\\\\curso_de_python\\\\web2py\\\\applications\\\\welcome\\\\'])"
p1842
asbasbasbag53
(g69
g55
NtRp1843
(dp1844
g58
(dp1845
sg67
g1818
sg60
(lp1846
g53
(g74
g55
NtRp1847
(dp1848
g58
(dp1849
g78
g79
ssg67
g1843
sg60
(lp1850
g791
asbag53
(g74
g55
NtRp1851
(dp1852
g58
(dp1853
g85
g86
ssg67
g1843
sg60
(lp1854
S':'
asbag53
(g74
g55
NtRp1855
(dp1856
g58
(dp1857
sg67
g1843
sg60
(lp1858
g53
(g54
g55
NtRp1859
(dp1860
g58
(dp1861
g66
I4
ssg67
g1855
sg60
(lp1862
g804
asbasbasbag53
(g69
g55
NtRp1863
(dp1864
g58
(dp1865
sg67
g1818
sg60
(lp1866
g53
(g74
g55
NtRp1867
(dp1868
g58
(dp1869
g78
g79
ssg67
g1863
sg60
(lp1870
g813
asbag53
(g74
g55
NtRp1871
(dp1872
g58
(dp1873
g85
g86
ssg67
g1863
sg60
(lp1874
S':'
asbag53
(g74
g55
NtRp1875
(dp1876
g58
(dp1877
sg67
g1863
sg60
(lp1878
g53
(g54
g55
NtRp1879
(dp1880
g58
(dp1881
g66
I4
ssg67
g1875
sg60
(lp1882
g53
(g62
g55
NtRp1883
(dp1884
g58
(dp1885
g66
I3
ssg67
Nsg60
(lp1886
sbasbasbasbag53
(g69
g55
NtRp1887
(dp1888
g58
(dp1889
sg67
g1818
sg60
(lp1890
g53
(g74
g55
NtRp1891
(dp1892
g58
(dp1893
g78
g79
ssg67
g1887
sg60
(lp1894
g838
asbag53
(g74
g55
NtRp1895
(dp1896
g58
(dp1897
g85
g86
ssg67
g1887
sg60
(lp1898
S':'
asbag53
(g74
g55
NtRp1899
(dp1900
g58
(dp1901
sg67
g1887
sg60
(lp1902
g53
(g54
g55
NtRp1903
(dp1904
g58
(dp1905
g66
I4
ssg67
g1899
sg60
(lp1906
S"<Values at 0x27674b8: {'verbose': False, 'ip': '127.0.0.1', 'shutdown_timeout': 5, 'taskbar': False, 'nocron': False, 'pid_filename': 'httpserver.pid', 'maxthreads': None, 'softcron': False, 'server_name': 'nilton-NOT', 'bpython': False, 'nogui': False, 'port': 8000, 'extcron': False, 'debuglevel': 30, 'test': None, 'folder': 'C:\\\\Users\\\\nilton\\\\Desktop\\\\scripts\\\\curso_de_python\\\\web2py', 'config': '', 'import_models': False, 'winservice': '', 'shell': None, 'run': '', 'log_filename': 'httpserver.log', 'args': [''], 'socket_timeout': 1, 'ssl_ca_certificate': None, 'scheduler': None, 'profiler_filename': None, 'ssl_private_key': '', 'password': '<ask>', 'request_queue_size': 5, 'ssl_certificate': '', 'cronjob': False, 'numthreads': None, 'quiet': False, 'interfaces': None, 'minthreads': None, 'timeout': 10, 'plain': False, 'nobanner': False}>"
p1907
asbasbasbag53
(g69
g55
NtRp1908
(dp1909
g58
(dp1910
sg67
g1818
sg60
(lp1911
g53
(g74
g55
NtRp1912
(dp1913
g58
(dp1914
g78
g79
ssg67
g1908
sg60
(lp1915
g860
asbag53
(g74
g55
NtRp1916
(dp1917
g58
(dp1918
g85
g86
ssg67
g1908
sg60
(lp1919
S':'
asbag53
(g74
g55
NtRp1920
(dp1921
g58
(dp1922
sg67
g1908
sg60
(lp1923
g53
(g54
g55
NtRp1924
(dp1925
g58
(dp1926
g66
I4
ssg67
g1920
sg60
(lp1927
S'set([])'
p1928
asbasbasbag53
(g69
g55
NtRp1929
(dp1930
g58
(dp1931
sg67
g1818
sg60
(lp1932
g53
(g74
g55
NtRp1933
(dp1934
g58
(dp1935
g78
g79
ssg67
g1929
sg60
(lp1936
g882
asbag53
(g74
g55
NtRp1937
(dp1938
g58
(dp1939
g85
g86
ssg67
g1929
sg60
(lp1940
S':'
asbag53
(g74
g55
NtRp1941
(dp1942
g58
(dp1943
sg67
g1929
sg60
(lp1944
g53
(g54
g55
NtRp1945
(dp1946
g58
(dp1947
g66
I4
ssg67
g1941
sg60
(lp1948
g96
asbasbasbag53
(g69
g55
NtRp1949
(dp1950
g58
(dp1951
sg67
g1818
sg60
(lp1952
g53
(g74
g55
NtRp1953
(dp1954
g58
(dp1955
g78
g79
ssg67
g1949
sg60
(lp1956
g903
asbag53
(g74
g55
NtRp1957
(dp1958
g58
(dp1959
g85
g86
ssg67
g1949
sg60
(lp1960
S':'
asbag53
(g74
g55
NtRp1961
(dp1962
g58
(dp1963
sg67
g1949
sg60
(lp1964
g53
(g54
g55
NtRp1965
(dp1966
g58
(dp1967
g66
I4
ssg67
g1961
sg60
(lp1968
g916
asbasbasbag53
(g69
g55
NtRp1969
(dp1970
g58
(dp1971
sg67
g1818
sg60
(lp1972
g53
(g74
g55
NtRp1973
(dp1974
g58
(dp1975
g78
g79
ssg67
g1969
sg60
(lp1976
g1123
asbag53
(g74
g55
NtRp1977
(dp1978
g58
(dp1979
g85
g86
ssg67
g1969
sg60
(lp1980
S':'
asbag53
(g74
g55
NtRp1981
(dp1982
g58
(dp1983
sg67
g1969
sg60
(lp1984
g53
(g54
g55
NtRp1985
(dp1986
g58
(dp1987
g66
I4
ssg67
g1981
sg60
(lp1988
g96
asbasbasbag53
(g69
g55
NtRp1989
(dp1990
g58
(dp1991
sg67
g1818
sg60
(lp1992
g53
(g74
g55
NtRp1993
(dp1994
g58
(dp1995
g78
g79
ssg67
g1989
sg60
(lp1996
g1144
asbag53
(g74
g55
NtRp1997
(dp1998
g58
(dp1999
g85
g86
ssg67
g1989
sg60
(lp2000
S':'
asbag53
(g74
g55
NtRp2001
(dp2002
g58
(dp2003
sg67
g1989
sg60
(lp2004
g53
(g54
g55
NtRp2005
(dp2006
g58
(dp2007
g66
I4
ssg67
g2001
sg60
(lp2008
g96
asbasbasbag53
(g69
g55
NtRp2009
(dp2010
g58
(dp2011
sg67
g1818
sg60
(lp2012
g53
(g74
g55
NtRp2013
(dp2014
g58
(dp2015
g78
g79
ssg67
g2009
sg60
(lp2016
g1382
asbag53
(g74
g55
NtRp2017
(dp2018
g58
(dp2019
g85
g86
ssg67
g2009
sg60
(lp2020
S':'
asbag53
(g74
g55
NtRp2021
(dp2022
g58
(dp2023
sg67
g2009
sg60
(lp2024
g53
(g54
g55
NtRp2025
(dp2026
g58
(dp2027
g66
I4
ssg67
g2021
sg60
(lp2028
g1395
asbasbasbag53
(g69
g55
NtRp2029
(dp2030
g58
(dp2031
sg67
g1818
sg60
(lp2032
g53
(g74
g55
NtRp2033
(dp2034
g58
(dp2035
g78
g79
ssg67
g2029
sg60
(lp2036
g1425
asbag53
(g74
g55
NtRp2037
(dp2038
g58
(dp2039
g85
g86
ssg67
g2029
sg60
(lp2040
S':'
asbag53
(g74
g55
NtRp2041
(dp2042
g58
(dp2043
sg67
g2029
sg60
(lp2044
g53
(g54
g55
NtRp2045
(dp2046
g58
(dp2047
g66
I4
ssg67
g2041
sg60
(lp2048
g53
(g62
g55
NtRp2049
(dp2050
g58
(dp2051
g66
I3
ssg67
Nsg60
(lp2052
g53
(g69
g55
NtRp2053
(dp2054
g58
(dp2055
sg67
g2049
sg60
(lp2056
g53
(g74
g55
NtRp2057
(dp2058
g58
(dp2059
sg67
g2053
sg60
(lp2060
g53
(g54
g55
NtRp2061
(dp2062
g58
(dp2063
g66
I3
ssg67
g2057
sg60
(lp2064
S'1'
asbasbasbag53
(g69
g55
NtRp2065
(dp2066
g58
(dp2067
sg67
g2049
sg60
(lp2068
g53
(g74
g55
NtRp2069
(dp2070
g58
(dp2071
sg67
g2065
sg60
(lp2072
g53
(g54
g55
NtRp2073
(dp2074
g58
(dp2075
g66
I3
ssg67
g2069
sg60
(lp2076
S'99'
p2077
asbasbasbag53
(g69
g55
NtRp2078
(dp2079
g58
(dp2080
sg67
g2049
sg60
(lp2081
g53
(g74
g55
NtRp2082
(dp2083
g58
(dp2084
sg67
g2078
sg60
(lp2085
g53
(g54
g55
NtRp2086
(dp2087
g58
(dp2088
g66
I3
ssg67
g2082
sg60
(lp2089
S'4'
asbasbasbag53
(g69
g55
NtRp2090
(dp2091
g58
(dp2092
sg67
g2049
sg60
(lp2093
g53
(g74
g55
NtRp2094
(dp2095
g58
(dp2096
sg67
g2090
sg60
(lp2097
g53
(g54
g55
NtRp2098
(dp2099
g58
(dp2100
g66
I3
ssg67
g2094
sg60
(lp2101
S'datetime.datetime(2011, 12, 14, 14, 46, 14)'
p2102
asbasbasbag53
(g69
g55
NtRp2103
(dp2104
g58
(dp2105
sg67
g2049
sg60
(lp2106
g53
(g74
g55
NtRp2107
(dp2108
g58
(dp2109
sg67
g2103
sg60
(lp2110
g53
(g54
g55
NtRp2111
(dp2112
g58
(dp2113
g66
I3
ssg67
g2107
sg60
(lp2114
g1504
asbasbasbasbasbasbasbasbasbasbasbag53
(g69
g55
NtRp2115
(dp2116
g58
(dp2117
sg67
g63
sg60
(lp2118
g53
(g74
g55
NtRp2119
(dp2120
g58
(dp2121
g78
g79
ssg67
g2115
sg60
(lp2122
S'is_https'
p2123
asbag53
(g74
g55
NtRp2124
(dp2125
g58
(dp2126
g85
g86
ssg67
g2115
sg60
(lp2127
S':'
asbag53
(g74
g55
NtRp2128
(dp2129
g58
(dp2130
sg67
g2115
sg60
(lp2131
g53
(g54
g55
NtRp2132
(dp2133
g58
(dp2134
g66
I5
ssg67
g2128
sg60
(lp2135
g96
asbasbasbag53
(g69
g55
NtRp2136
(dp2137
g58
(dp2138
sg67
g63
sg60
(lp2139
g53
(g74
g55
NtRp2140
(dp2141
g58
(dp2142
g78
g79
ssg67
g2136
sg60
(lp2143
S'is_local'
p2144
asbag53
(g74
g55
NtRp2145
(dp2146
g58
(dp2147
g85
g86
ssg67
g2136
sg60
(lp2148
S':'
asbag53
(g74
g55
NtRp2149
(dp2150
g58
(dp2151
sg67
g2136
sg60
(lp2152
g53
(g54
g55
NtRp2153
(dp2154
g58
(dp2155
g66
I5
ssg67
g2149
sg60
(lp2156
g1613
asbasbasbag53
(g69
g55
NtRp2157
(dp2158
g58
(dp2159
sg67
g63
sg60
(lp2160
g53
(g74
g55
NtRp2161
(dp2162
g58
(dp2163
g78
g79
ssg67
g2157
sg60
(lp2164
S'is_restful'
p2165
asbag53
(g74
g55
NtRp2166
(dp2167
g58
(dp2168
g85
g86
ssg67
g2157
sg60
(lp2169
S':'
asbag53
(g74
g55
NtRp2170
(dp2171
g58
(dp2172
sg67
g2157
sg60
(lp2173
g53
(g54
g55
NtRp2174
(dp2175
g58
(dp2176
g66
I5
ssg67
g2170
sg60
(lp2177
g96
asbasbasbag53
(g69
g55
NtRp2178
(dp2179
g58
(dp2180
sg67
g63
sg60
(lp2181
g53
(g74
g55
NtRp2182
(dp2183
g58
(dp2184
g78
g79
ssg67
g2178
sg60
(lp2185
S'now'
p2186
asbag53
(g74
g55
NtRp2187
(dp2188
g58
(dp2189
g85
g86
ssg67
g2178
sg60
(lp2190
S':'
asbag53
(g74
g55
NtRp2191
(dp2192
g58
(dp2193
sg67
g2178
sg60
(lp2194
g53
(g54
g55
NtRp2195
(dp2196
g58
(dp2197
g66
I5
ssg67
g2191
sg60
(lp2198
S'datetime.datetime(2012, 1, 24, 12, 21, 22, 810000)'
p2199
asbasbasbag53
(g69
g55
NtRp2200
(dp2201
g58
(dp2202
sg67
g63
sg60
(lp2203
g53
(g74
g55
NtRp2204
(dp2205
g58
(dp2206
g78
g79
ssg67
g2200
sg60
(lp2207
S'post_vars'
p2208
asbag53
(g74
g55
NtRp2209
(dp2210
g58
(dp2211
g85
g86
ssg67
g2200
sg60
(lp2212
S':'
asbag53
(g74
g55
NtRp2213
(dp2214
g58
(dp2215
sg67
g2200
sg60
(lp2216
g53
(g54
g55
NtRp2217
(dp2218
g58
(dp2219
g66
I5
ssg67
g2213
sg60
(lp2220
g53
(g62
g55
NtRp2221
(dp2222
g58
(dp2223
g66
I4
ssg67
Nsg60
(lp2224
sbasbasbasbag53
(g69
g55
NtRp2225
(dp2226
g58
(dp2227
sg67
g63
sg60
(lp2228
g53
(g74
g55
NtRp2229
(dp2230
g58
(dp2231
g78
g79
ssg67
g2225
sg60
(lp2232
S'url'
p2233
asbag53
(g74
g55
NtRp2234
(dp2235
g58
(dp2236
g85
g86
ssg67
g2225
sg60
(lp2237
S':'
asbag53
(g74
g55
NtRp2238
(dp2239
g58
(dp2240
sg67
g2225
sg60
(lp2241
g53
(g54
g55
NtRp2242
(dp2243
g58
(dp2244
g66
I5
ssg67
g2238
sg60
(lp2245
S'/xcpadmin/listvm/index'
p2246
asbasbasbag53
(g69
g55
NtRp2247
(dp2248
g58
(dp2249
sg67
g63
sg60
(lp2250
g53
(g74
g55
NtRp2251
(dp2252
g58
(dp2253
g78
g79
ssg67
g2247
sg60
(lp2254
S'utcnow'
p2255
asbag53
(g74
g55
NtRp2256
(dp2257
g58
(dp2258
g85
g86
ssg67
g2247
sg60
(lp2259
S':'
asbag53
(g74
g55
NtRp2260
(dp2261
g58
(dp2262
sg67
g2247
sg60
(lp2263
g53
(g54
g55
NtRp2264
(dp2265
g58
(dp2266
g66
I5
ssg67
g2260
sg60
(lp2267
S'datetime.datetime(2012, 1, 24, 14, 21, 22, 811000)'
p2268
asbasbasbag53
(g69
g55
NtRp2269
(dp2270
g58
(dp2271
sg67
g63
sg60
(lp2272
g53
(g74
g55
NtRp2273
(dp2274
g58
(dp2275
g78
g79
ssg67
g2269
sg60
(lp2276
S'uuid'
p2277
asbag53
(g74
g55
NtRp2278
(dp2279
g58
(dp2280
g85
g86
ssg67
g2269
sg60
(lp2281
S':'
asbag53
(g74
g55
NtRp2282
(dp2283
g58
(dp2284
sg67
g2269
sg60
(lp2285
g53
(g54
g55
NtRp2286
(dp2287
g58
(dp2288
g66
I5
ssg67
g2282
sg60
(lp2289
S'xcpadmin/127.0.0.1.2012-01-24.12-21-22.4547c490-89b8-4391-8042-da744d34346f'
p2290
asbasbasbag53
(g69
g55
NtRp2291
(dp2292
g58
(dp2293
sg67
g63
sg60
(lp2294
g53
(g74
g55
NtRp2295
(dp2296
g58
(dp2297
g78
g79
ssg67
g2291
sg60
(lp2298
S'vars'
p2299
asbag53
(g74
g55
NtRp2300
(dp2301
g58
(dp2302
g85
g86
ssg67
g2291
sg60
(lp2303
S':'
asbag53
(g74
g55
NtRp2304
(dp2305
g58
(dp2306
sg67
g2291
sg60
(lp2307
g53
(g54
g55
NtRp2308
(dp2309
g58
(dp2310
g66
I5
ssg67
g2304
sg60
(lp2311
g53
(g62
g55
NtRp2312
(dp2313
g58
(dp2314
g66
I4
ssg67
Nsg60
(lp2315
sbasbasbasbag53
(g69
g55
NtRp2316
(dp2317
g58
(dp2318
sg67
g63
sg60
(lp2319
g53
(g74
g55
NtRp2320
(dp2321
g58
(dp2322
g78
g79
ssg67
g2316
sg60
(lp2323
S'wsgi'
p2324
asbag53
(g74
g55
NtRp2325
(dp2326
g58
(dp2327
g85
g86
ssg67
g2316
sg60
(lp2328
S':'
asbag53
(g74
g55
NtRp2329
(dp2330
g58
(dp2331
sg67
g2316
sg60
(lp2332
g53
(g54
g55
NtRp2333
(dp2334
g58
(dp2335
g66
I5
ssg67
g2329
sg60
(lp2336
g53
(g62
g55
NtRp2337
(dp2338
g58
(dp2339
g66
I4
ssg67
Nsg60
(lp2340
g53
(g69
g55
NtRp2341
(dp2342
g58
(dp2343
sg67
g2337
sg60
(lp2344
g53
(g74
g55
NtRp2345
(dp2346
g58
(dp2347
g78
g79
ssg67
g2341
sg60
(lp2348
S'environ'
p2349
asbag53
(g74
g55
NtRp2350
(dp2351
g58
(dp2352
g85
g86
ssg67
g2341
sg60
(lp2353
S':'
asbag53
(g74
g55
NtRp2354
(dp2355
g58
(dp2356
sg67
g2341
sg60
(lp2357
g53
(g54
g55
NtRp2358
(dp2359
g58
(dp2360
g66
I4
ssg67
g2354
sg60
(lp2361
g53
(g62
g55
NtRp2362
(dp2363
g58
(dp2364
g66
I3
ssg67
Nsg60
(lp2365
g53
(g69
g55
NtRp2366
(dp2367
g58
(dp2368
sg67
g2362
sg60
(lp2369
g53
(g74
g55
NtRp2370
(dp2371
g58
(dp2372
g78
g79
ssg67
g2366
sg60
(lp2373
S'HTTP_ACCEPT'
p2374
asbag53
(g74
g55
NtRp2375
(dp2376
g58
(dp2377
g85
g86
ssg67
g2366
sg60
(lp2378
S':'
asbag53
(g74
g55
NtRp2379
(dp2380
g58
(dp2381
sg67
g2366
sg60
(lp2382
g53
(g54
g55
NtRp2383
(dp2384
g58
(dp2385
g66
I3
ssg67
g2379
sg60
(lp2386
g938
asbasbasbag53
(g69
g55
NtRp2387
(dp2388
g58
(dp2389
sg67
g2362
sg60
(lp2390
g53
(g74
g55
NtRp2391
(dp2392
g58
(dp2393
g78
g79
ssg67
g2387
sg60
(lp2394
S'HTTP_ACCEPT_CHARSET'
p2395
asbag53
(g74
g55
NtRp2396
(dp2397
g58
(dp2398
g85
g86
ssg67
g2387
sg60
(lp2399
S':'
asbag53
(g74
g55
NtRp2400
(dp2401
g58
(dp2402
sg67
g2387
sg60
(lp2403
g53
(g54
g55
NtRp2404
(dp2405
g58
(dp2406
g66
I3
ssg67
g2400
sg60
(lp2407
g960
asbasbasbag53
(g69
g55
NtRp2408
(dp2409
g58
(dp2410
sg67
g2362
sg60
(lp2411
g53
(g74
g55
NtRp2412
(dp2413
g58
(dp2414
g78
g79
ssg67
g2408
sg60
(lp2415
S'HTTP_ACCEPT_ENCODING'
p2416
asbag53
(g74
g55
NtRp2417
(dp2418
g58
(dp2419
g85
g86
ssg67
g2408
sg60
(lp2420
S':'
asbag53
(g74
g55
NtRp2421
(dp2422
g58
(dp2423
sg67
g2408
sg60
(lp2424
g53
(g54
g55
NtRp2425
(dp2426
g58
(dp2427
g66
I3
ssg67
g2421
sg60
(lp2428
g982
asbasbasbag53
(g69
g55
NtRp2429
(dp2430
g58
(dp2431
sg67
g2362
sg60
(lp2432
g53
(g74
g55
NtRp2433
(dp2434
g58
(dp2435
g78
g79
ssg67
g2429
sg60
(lp2436
S'HTTP_ACCEPT_LANGUAGE'
p2437
asbag53
(g74
g55
NtRp2438
(dp2439
g58
(dp2440
g85
g86
ssg67
g2429
sg60
(lp2441
S':'
asbag53
(g74
g55
NtRp2442
(dp2443
g58
(dp2444
sg67
g2429
sg60
(lp2445
g53
(g54
g55
NtRp2446
(dp2447
g58
(dp2448
g66
I3
ssg67
g2442
sg60
(lp2449
g1004
asbasbasbag53
(g69
g55
NtRp2450
(dp2451
g58
(dp2452
sg67
g2362
sg60
(lp2453
g53
(g74
g55
NtRp2454
(dp2455
g58
(dp2456
g78
g79
ssg67
g2450
sg60
(lp2457
S'HTTP_CACHE_CONTROL'
p2458
asbag53
(g74
g55
NtRp2459
(dp2460
g58
(dp2461
g85
g86
ssg67
g2450
sg60
(lp2462
S':'
asbag53
(g74
g55
NtRp2463
(dp2464
g58
(dp2465
sg67
g2450
sg60
(lp2466
g53
(g54
g55
NtRp2467
(dp2468
g58
(dp2469
g66
I3
ssg67
g2463
sg60
(lp2470
g1026
asbasbasbag53
(g69
g55
NtRp2471
(dp2472
g58
(dp2473
sg67
g2362
sg60
(lp2474
g53
(g74
g55
NtRp2475
(dp2476
g58
(dp2477
g78
g79
ssg67
g2471
sg60
(lp2478
S'HTTP_CONNECTION'
p2479
asbag53
(g74
g55
NtRp2480
(dp2481
g58
(dp2482
g85
g86
ssg67
g2471
sg60
(lp2483
S':'
asbag53
(g74
g55
NtRp2484
(dp2485
g58
(dp2486
sg67
g2471
sg60
(lp2487
g53
(g54
g55
NtRp2488
(dp2489
g58
(dp2490
g66
I3
ssg67
g2484
sg60
(lp2491
g1048
asbasbasbag53
(g69
g55
NtRp2492
(dp2493
g58
(dp2494
sg67
g2362
sg60
(lp2495
g53
(g74
g55
NtRp2496
(dp2497
g58
(dp2498
g78
g79
ssg67
g2492
sg60
(lp2499
S'HTTP_COOKIE'
p2500
asbag53
(g74
g55
NtRp2501
(dp2502
g58
(dp2503
g85
g86
ssg67
g2492
sg60
(lp2504
S':'
asbag53
(g74
g55
NtRp2505
(dp2506
g58
(dp2507
sg67
g2492
sg60
(lp2508
g53
(g54
g55
NtRp2509
(dp2510
g58
(dp2511
g66
I3
ssg67
g2505
sg60
(lp2512
g1070
asbasbasbag53
(g69
g55
NtRp2513
(dp2514
g58
(dp2515
sg67
g2362
sg60
(lp2516
g53
(g74
g55
NtRp2517
(dp2518
g58
(dp2519
g78
g79
ssg67
g2513
sg60
(lp2520
S'HTTP_HOST'
p2521
asbag53
(g74
g55
NtRp2522
(dp2523
g58
(dp2524
g85
g86
ssg67
g2513
sg60
(lp2525
S':'
asbag53
(g74
g55
NtRp2526
(dp2527
g58
(dp2528
sg67
g2513
sg60
(lp2529
g53
(g54
g55
NtRp2530
(dp2531
g58
(dp2532
g66
I3
ssg67
g2526
sg60
(lp2533
g1092
asbasbasbag53
(g69
g55
NtRp2534
(dp2535
g58
(dp2536
sg67
g2362
sg60
(lp2537
g53
(g74
g55
NtRp2538
(dp2539
g58
(dp2540
g78
g79
ssg67
g2534
sg60
(lp2541
S'HTTP_USER_AGENT'
p2542
asbag53
(g74
g55
NtRp2543
(dp2544
g58
(dp2545
g85
g86
ssg67
g2534
sg60
(lp2546
S':'
asbag53
(g74
g55
NtRp2547
(dp2548
g58
(dp2549
sg67
g2534
sg60
(lp2550
g53
(g54
g55
NtRp2551
(dp2552
g58
(dp2553
g66
I3
ssg67
g2547
sg60
(lp2554
g1114
asbasbasbag53
(g69
g55
NtRp2555
(dp2556
g58
(dp2557
sg67
g2362
sg60
(lp2558
g53
(g74
g55
NtRp2559
(dp2560
g58
(dp2561
g78
g79
ssg67
g2555
sg60
(lp2562
S'PATH_INFO'
p2563
asbag53
(g74
g55
NtRp2564
(dp2565
g58
(dp2566
g85
g86
ssg67
g2555
sg60
(lp2567
S':'
asbag53
(g74
g55
NtRp2568
(dp2569
g58
(dp2570
sg67
g2555
sg60
(lp2571
g53
(g54
g55
NtRp2572
(dp2573
g58
(dp2574
g66
I3
ssg67
g2568
sg60
(lp2575
g1178
asbasbasbag53
(g69
g55
NtRp2576
(dp2577
g58
(dp2578
sg67
g2362
sg60
(lp2579
g53
(g74
g55
NtRp2580
(dp2581
g58
(dp2582
g78
g79
ssg67
g2576
sg60
(lp2583
S'QUERY_STRING'
p2584
asbag53
(g74
g55
NtRp2585
(dp2586
g58
(dp2587
g85
g86
ssg67
g2576
sg60
(lp2588
S':'
asbag53
(g74
g55
NtRp2589
(dp2590
g58
(dp2591
sg67
g2576
sg60
(lp2592
g53
(g54
g55
NtRp2593
(dp2594
g58
(dp2595
g66
I3
ssg67
g2589
sg60
(lp2596
S''
asbasbasbag53
(g69
g55
NtRp2597
(dp2598
g58
(dp2599
sg67
g2362
sg60
(lp2600
g53
(g74
g55
NtRp2601
(dp2602
g58
(dp2603
g78
g79
ssg67
g2597
sg60
(lp2604
S'REMOTE_ADDR'
p2605
asbag53
(g74
g55
NtRp2606
(dp2607
g58
(dp2608
g85
g86
ssg67
g2597
sg60
(lp2609
S':'
asbag53
(g74
g55
NtRp2610
(dp2611
g58
(dp2612
sg67
g2597
sg60
(lp2613
g53
(g54
g55
NtRp2614
(dp2615
g58
(dp2616
g66
I3
ssg67
g2610
sg60
(lp2617
g186
asbasbasbag53
(g69
g55
NtRp2618
(dp2619
g58
(dp2620
sg67
g2362
sg60
(lp2621
g53
(g74
g55
NtRp2622
(dp2623
g58
(dp2624
g78
g79
ssg67
g2618
sg60
(lp2625
S'REMOTE_PORT'
p2626
asbag53
(g74
g55
NtRp2627
(dp2628
g58
(dp2629
g85
g86
ssg67
g2618
sg60
(lp2630
S':'
asbag53
(g74
g55
NtRp2631
(dp2632
g58
(dp2633
sg67
g2618
sg60
(lp2634
g53
(g54
g55
NtRp2635
(dp2636
g58
(dp2637
g66
I3
ssg67
g2631
sg60
(lp2638
g1242
asbasbasbag53
(g69
g55
NtRp2639
(dp2640
g58
(dp2641
sg67
g2362
sg60
(lp2642
g53
(g74
g55
NtRp2643
(dp2644
g58
(dp2645
g78
g79
ssg67
g2639
sg60
(lp2646
S'REQUEST_METHOD'
p2647
asbag53
(g74
g55
NtRp2648
(dp2649
g58
(dp2650
g85
g86
ssg67
g2639
sg60
(lp2651
S':'
asbag53
(g74
g55
NtRp2652
(dp2653
g58
(dp2654
sg67
g2639
sg60
(lp2655
g53
(g54
g55
NtRp2656
(dp2657
g58
(dp2658
g66
I3
ssg67
g2652
sg60
(lp2659
g1264
asbasbasbag53
(g69
g55
NtRp2660
(dp2661
g58
(dp2662
sg67
g2362
sg60
(lp2663
g53
(g74
g55
NtRp2664
(dp2665
g58
(dp2666
g78
g79
ssg67
g2660
sg60
(lp2667
S'SCRIPT_NAME'
p2668
asbag53
(g74
g55
NtRp2669
(dp2670
g58
(dp2671
g85
g86
ssg67
g2660
sg60
(lp2672
S':'
asbag53
(g74
g55
NtRp2673
(dp2674
g58
(dp2675
sg67
g2660
sg60
(lp2676
g53
(g54
g55
NtRp2677
(dp2678
g58
(dp2679
g66
I3
ssg67
g2673
sg60
(lp2680
S''
asbasbasbag53
(g69
g55
NtRp2681
(dp2682
g58
(dp2683
sg67
g2362
sg60
(lp2684
g53
(g74
g55
NtRp2685
(dp2686
g58
(dp2687
g78
g79
ssg67
g2681
sg60
(lp2688
S'SERVER_NAME'
p2689
asbag53
(g74
g55
NtRp2690
(dp2691
g58
(dp2692
g85
g86
ssg67
g2681
sg60
(lp2693
S':'
asbag53
(g74
g55
NtRp2694
(dp2695
g58
(dp2696
sg67
g2681
sg60
(lp2697
g53
(g54
g55
NtRp2698
(dp2699
g58
(dp2700
g66
I3
ssg67
g2694
sg60
(lp2701
g1307
asbasbasbag53
(g69
g55
NtRp2702
(dp2703
g58
(dp2704
sg67
g2362
sg60
(lp2705
g53
(g74
g55
NtRp2706
(dp2707
g58
(dp2708
g78
g79
ssg67
g2702
sg60
(lp2709
S'SERVER_PORT'
p2710
asbag53
(g74
g55
NtRp2711
(dp2712
g58
(dp2713
g85
g86
ssg67
g2702
sg60
(lp2714
S':'
asbag53
(g74
g55
NtRp2715
(dp2716
g58
(dp2717
sg67
g2702
sg60
(lp2718
g53
(g54
g55
NtRp2719
(dp2720
g58
(dp2721
g66
I3
ssg67
g2715
sg60
(lp2722
g1329
asbasbasbag53
(g69
g55
NtRp2723
(dp2724
g58
(dp2725
sg67
g2362
sg60
(lp2726
g53
(g74
g55
NtRp2727
(dp2728
g58
(dp2729
g78
g79
ssg67
g2723
sg60
(lp2730
S'SERVER_PROTOCOL'
p2731
asbag53
(g74
g55
NtRp2732
(dp2733
g58
(dp2734
g85
g86
ssg67
g2723
sg60
(lp2735
S':'
asbag53
(g74
g55
NtRp2736
(dp2737
g58
(dp2738
sg67
g2723
sg60
(lp2739
g53
(g54
g55
NtRp2740
(dp2741
g58
(dp2742
g66
I3
ssg67
g2736
sg60
(lp2743
g1351
asbasbasbag53
(g69
g55
NtRp2744
(dp2745
g58
(dp2746
sg67
g2362
sg60
(lp2747
g53
(g74
g55
NtRp2748
(dp2749
g58
(dp2750
g78
g79
ssg67
g2744
sg60
(lp2751
S'SERVER_SOFTWARE'
p2752
asbag53
(g74
g55
NtRp2753
(dp2754
g58
(dp2755
g85
g86
ssg67
g2744
sg60
(lp2756
S':'
asbag53
(g74
g55
NtRp2757
(dp2758
g58
(dp2759
sg67
g2744
sg60
(lp2760
g53
(g54
g55
NtRp2761
(dp2762
g58
(dp2763
g66
I3
ssg67
g2757
sg60
(lp2764
g1373
asbasbasbag53
(g69
g55
NtRp2765
(dp2766
g58
(dp2767
sg67
g2362
sg60
(lp2768
g53
(g74
g55
NtRp2769
(dp2770
g58
(dp2771
g78
g79
ssg67
g2765
sg60
(lp2772
S'wsgi.errors'
p2773
asbag53
(g74
g55
NtRp2774
(dp2775
g58
(dp2776
g85
g86
ssg67
g2765
sg60
(lp2777
S':'
asbag53
(g74
g55
NtRp2778
(dp2779
g58
(dp2780
sg67
g2765
sg60
(lp2781
g53
(g54
g55
NtRp2782
(dp2783
g58
(dp2784
g66
I3
ssg67
g2778
sg60
(lp2785
S'<__main__.Stderr object at 0x0124A670>'
p2786
asbasbasbag53
(g69
g55
NtRp2787
(dp2788
g58
(dp2789
sg67
g2362
sg60
(lp2790
g53
(g74
g55
NtRp2791
(dp2792
g58
(dp2793
g78
g79
ssg67
g2787
sg60
(lp2794
S'wsgi.file_wrapper'
p2795
asbag53
(g74
g55
NtRp2796
(dp2797
g58
(dp2798
g85
g86
ssg67
g2787
sg60
(lp2799
S':'
asbag53
(g74
g55
NtRp2800
(dp2801
g58
(dp2802
sg67
g2787
sg60
(lp2803
g53
(g54
g55
NtRp2804
(dp2805
g58
(dp2806
g66
I3
ssg67
g2800
sg60
(lp2807
S'<class wsgiref.util.FileWrapper at 0x01BDBBA0>'
p2808
asbasbasbag53
(g69
g55
NtRp2809
(dp2810
g58
(dp2811
sg67
g2362
sg60
(lp2812
g53
(g74
g55
NtRp2813
(dp2814
g58
(dp2815
g78
g79
ssg67
g2809
sg60
(lp2816
S'wsgi.input'
p2817
asbag53
(g74
g55
NtRp2818
(dp2819
g58
(dp2820
g85
g86
ssg67
g2809
sg60
(lp2821
S':'
asbag53
(g74
g55
NtRp2822
(dp2823
g58
(dp2824
sg67
g2809
sg60
(lp2825
g53
(g54
g55
NtRp2826
(dp2827
g58
(dp2828
g66
I3
ssg67
g2822
sg60
(lp2829
S'<cStringIO.StringO object at 0x0293B820>'
p2830
asbasbasbag53
(g69
g55
NtRp2831
(dp2832
g58
(dp2833
sg67
g2362
sg60
(lp2834
g53
(g74
g55
NtRp2835
(dp2836
g58
(dp2837
g78
g79
ssg67
g2831
sg60
(lp2838
S'wsgi.multiprocess'
p2839
asbag53
(g74
g55
NtRp2840
(dp2841
g58
(dp2842
g85
g86
ssg67
g2831
sg60
(lp2843
S':'
asbag53
(g74
g55
NtRp2844
(dp2845
g58
(dp2846
sg67
g2831
sg60
(lp2847
g53
(g54
g55
NtRp2848
(dp2849
g58
(dp2850
g66
I3
ssg67
g2844
sg60
(lp2851
g96
asbasbasbag53
(g69
g55
NtRp2852
(dp2853
g58
(dp2854
sg67
g2362
sg60
(lp2855
g53
(g74
g55
NtRp2856
(dp2857
g58
(dp2858
g78
g79
ssg67
g2852
sg60
(lp2859
S'wsgi.multithread'
p2860
asbag53
(g74
g55
NtRp2861
(dp2862
g58
(dp2863
g85
g86
ssg67
g2852
sg60
(lp2864
S':'
asbag53
(g74
g55
NtRp2865
(dp2866
g58
(dp2867
sg67
g2852
sg60
(lp2868
g53
(g54
g55
NtRp2869
(dp2870
g58
(dp2871
g66
I3
ssg67
g2865
sg60
(lp2872
g1613
asbasbasbag53
(g69
g55
NtRp2873
(dp2874
g58
(dp2875
sg67
g2362
sg60
(lp2876
g53
(g74
g55
NtRp2877
(dp2878
g58
(dp2879
g78
g79
ssg67
g2873
sg60
(lp2880
S'wsgi.run_once'
p2881
asbag53
(g74
g55
NtRp2882
(dp2883
g58
(dp2884
g85
g86
ssg67
g2873
sg60
(lp2885
S':'
asbag53
(g74
g55
NtRp2886
(dp2887
g58
(dp2888
sg67
g2873
sg60
(lp2889
g53
(g54
g55
NtRp2890
(dp2891
g58
(dp2892
g66
I3
ssg67
g2886
sg60
(lp2893
g96
asbasbasbag53
(g69
g55
NtRp2894
(dp2895
g58
(dp2896
sg67
g2362
sg60
(lp2897
g53
(g74
g55
NtRp2898
(dp2899
g58
(dp2900
g78
g79
ssg67
g2894
sg60
(lp2901
S'wsgi.url_scheme'
p2902
asbag53
(g74
g55
NtRp2903
(dp2904
g58
(dp2905
g85
g86
ssg67
g2894
sg60
(lp2906
S':'
asbag53
(g74
g55
NtRp2907
(dp2908
g58
(dp2909
sg67
g2894
sg60
(lp2910
g53
(g54
g55
NtRp2911
(dp2912
g58
(dp2913
g66
I3
ssg67
g2907
sg60
(lp2914
g1656
asbasbasbag53
(g69
g55
NtRp2915
(dp2916
g58
(dp2917
sg67
g2362
sg60
(lp2918
g53
(g74
g55
NtRp2919
(dp2920
g58
(dp2921
g78
g79
ssg67
g2915
sg60
(lp2922
S'wsgi.version'
p2923
asbag53
(g74
g55
NtRp2924
(dp2925
g58
(dp2926
g85
g86
ssg67
g2915
sg60
(lp2927
S':'
asbag53
(g74
g55
NtRp2928
(dp2929
g58
(dp2930
sg67
g2915
sg60
(lp2931
g53
(g54
g55
NtRp2932
(dp2933
g58
(dp2934
g66
I3
ssg67
g2928
sg60
(lp2935
S'1'
asbasbasbasbasbasbasbasbasbasbasbasbasbsS'frames'
p2936
(lp2937
(dp2938
S'file'
p2939
S'C:\\Users\\nilton\\Desktop\\scripts\\curso_de_python\\web2py\\gluon\\restricted.py'
p2940
sS'dump'
p2941
(dp2942
sS'lnum'
p2943
I204
sS'lines'
p2944
(dp2945
sS'call'
p2946
S"(code='# coding: utf8\\n# tente algo como\\n\\nimport sys, ti...vms=vms)\\n\\nresponse._vars=response._caller(index)\\n', environment={'A': <class 'gluon.html.A'>, 'Auth': <class 'gluon.tools.Auth'>, 'B': <class 'gluon.html.B'>, 'BEAUTIFY': <class 'gluon.html.BEAUTIFY'>, 'BODY': <class 'gluon.html.BODY'>, 'BR': <class 'gluon.html.BR'>, 'BUTTON': <class 'gluon.html.BUTTON'>, 'CAT': <class 'gluon.html.CAT'>, 'CENTER': <class 'gluon.html.CENTER'>, 'CLEANUP': <class 'gluon.validators.CLEANUP'>, ...}, layer=r'C:\\Users\\nilton\\Desktop\\scripts\\curso_de_python\\web2py\\applications\\xcpadmin\\controllers/listvm.py')"
p2947
sS'func'
p2948
S'restricted'
p2949
sa(dp2950
g2939
S'C:\\Users\\nilton\\Desktop\\scripts\\curso_de_python\\web2py\\applications\\xcpadmin\\controllers\\listvm.py'
p2951
sg2941
(dp2952
sg2943
I26
sg2944
(dp2953
I15
S'    vm_list = {}'
p2954
sI16
S'    for vm in vms:'
p2955
sI17
S'        get = session.xenapi.VM.get_record(vm)'
p2956
sI18
S'        # We cannot power-cycle templates and we should avoid touching control domains'
p2957
sI19
S'        # unless we are really sure of what we are doing...'
p2958
sI20
S'        if not (get["is_a_template"]) and not (get["is_control_domain"]):'
p2959
sI21
S'            get["memory_static_max"] = ( int(get["memory_static_max"]) / (1024 * 1024) )'
p2960
sI22
S'            vm_list[vm] = get'
p2961
sI23
S''
sI24
S'    return dict(table=vm_list, vms=vms)'
p2962
ssg2946
S'()'
p2963
sg2948
S'<module>'
p2964
sa(dp2965
g2939
S'C:\\Users\\nilton\\Desktop\\scripts\\curso_de_python\\web2py\\gluon\\globals.py'
p2966
sg2941
(dp2967
sg2943
I172
sg2944
(dp2968
sg2946
S'(f=<function index at 0x05E1E870>)'
p2969
sg2948
S'<lambda>'
p2970
sa(dp2971
g2939
S'C:\\Users\\nilton\\Desktop\\scripts\\curso_de_python\\web2py\\applications\\xcpadmin\\controllers\\listvm.py'
p2972
sg2941
(dp2973
sg2943
I17
sg2944
(dp2974
I12
S'    session = XenAPI.Session(url)'
p2975
sI13
S'    session.xenapi.login_with_password(username, password)'
p2976
sI14
S'    vms = session.xenapi.VM.get_all()'
p2977
sI15
S'    vm_list = {}'
p2978
sI16
S'    for vm in vms:'
p2979
sI17
S'        get = session.xenapi.VM.get_record(vm)'
p2980
sI18
S'        # We cannot power-cycle templates and we should avoid touching control domains'
p2981
sI19
S'        # unless we are really sure of what we are doing...'
p2982
sI20
S'        if not (get["is_a_template"]) and not (get["is_control_domain"]):'
p2983
sI21
S'            get["memory_static_max"] = ( int(get["memory_static_max"]) / (1024 * 1024) )'
p2984
ssg2946
S'()'
p2985
sg2948
g1771
sa(dp2986
g2939
S'C:\\Users\\nilton\\Desktop\\scripts\\curso_de_python\\web2py\\applications\\xcpadmin\\modules\\XenAPI.py'
p2987
sg2941
(dp2988
sg2943
I229
sg2944
(dp2989
I224
S'            return _Dispatcher(self.__API_version, self.__send, name)'
p2990
sI225
S'        else:'
p2991
sI226
S'            return _Dispatcher(self.__API_version, self.__send, "%s.%s" % (self.__name, name))'
p2992
sI227
S''
sI228
S'    def __call__(self, *args):'
p2993
sI229
S'        return self.__send(self.__name, args)'
p2994
sI220
S"            return '<XenAPI._Dispatcher>'"
p2995
sI221
S''
sI222
S'    def __getattr__(self, name):'
p2996
sI223
S'        if self.__name is None:'
p2997
ssg2946
S"(self=<XenAPI._Dispatcher for VM.get_record>, *args=('OpaqueRef:1d03a974-dbcb-56a4-4758-826434bce7fe',))"
p2998
sg2948
S'__call__'
p2999
sa(dp3000
g2939
S'C:\\Users\\nilton\\Desktop\\scripts\\curso_de_python\\web2py\\applications\\xcpadmin\\modules\\XenAPI.py'
p3001
sg2941
(dp3002
sg2943
I133
sg2944
(dp3003
I128
S'            return None'
p3004
sI129
S'        else:'
p3005
sI130
S'            retry_count = 0'
p3006
sI131
S'            while retry_count < 3:'
p3007
sI132
S'                full_params = (self._session,) + params'
p3008
sI133
S'                result = _parse_result(getattr(self, methodname)(*full_params))'
p3009
sI134
S'                if result == _RECONNECT_AND_RETRY:'
p3010
sI135
S'                    retry_count += 1'
p3011
sI136
S'                    if self.last_login_method:'
p3012
sI137
S'                        self._login(self.last_login_method,'
p3013
ssg2946
S"(self=<ServerProxy for 187.103.137.248/RPC2>, methodname='VM.get_record', params=('OpaqueRef:1d03a974-dbcb-56a4-4758-826434bce7fe',))"
p3014
sg2948
S'xenapi_request'
p3015
sa(dp3016
g2939
S'C:\\Users\\nilton\\Desktop\\scripts\\curso_de_python\\web2py\\xmlrpclib.pyc'
p3017
sg2941
(dp3018
sg2943
I1147
sg2944
(dp3019
sg2946
S"(self=<_Method instance>, *args=('OpaqueRef:4b6271ff-1861-f0d8-805e-01b56a2bc919', 'OpaqueRef:1d03a974-dbcb-56a4-4758-826434bce7fe'))"
p3020
sg2948
g2999
sa(dp3021
g2939
S'C:\\Users\\nilton\\Desktop\\scripts\\curso_de_python\\web2py\\xmlrpclib.pyc'
p3022
sg2941
(dp3023
sg2943
I1437
sg2944
(dp3024
sg2946
S"(self=<ServerProxy for 187.103.137.248/RPC2>, methodname='VM.get_record', params=('OpaqueRef:4b6271ff-1861-f0d8-805e-01b56a2bc919', 'OpaqueRef:1d03a974-dbcb-56a4-4758-826434bce7fe'))"
p3025
sg2948
S'__request'
p3026
sa(dp3027
g2939
S'C:\\Users\\nilton\\Desktop\\scripts\\curso_de_python\\web2py\\xmlrpclib.pyc'
p3028
sg2941
(dp3029
sg2943
I1183
sg2944
(dp3030
sg2946
S'(self=<xmlrpclib.SafeTransport instance at 0x05A25AD0>, host=\'187.103.137.248\', handler=\'/RPC2\', request_body="<?xml version=\'1.0\'?>\\n<methodCall>\\n<methodName>V...string></value>\\n</param>\\n</params>\\n</methodCall>\\n", verbose=0)'
p3031
sg2948
g52
sa(dp3032
g2939
S'C:\\Users\\nilton\\Desktop\\scripts\\curso_de_python\\web2py\\xmlrpclib.pyc'
p3033
sg2941
(dp3034
sg2943
I1297
sg2944
(dp3035
sg2946
S'(self=<xmlrpclib.SafeTransport instance at 0x05A25AD0>, connection=<httplib.HTTPS instance at 0x05A30F08>, request_body="<?xml version=\'1.0\'?>\\n<methodCall>\\n<methodName>V...string></value>\\n</param>\\n</params>\\n</methodCall>\\n")'
p3036
sg2948
S'send_content'
p3037
sa(dp3038
g2939
S'C:\\Users\\nilton\\Desktop\\scripts\\curso_de_python\\web2py\\httplib.pyc'
p3039
sg2941
(dp3040
sg2943
I860
sg2944
(dp3041
sg2946
S'(self=<httplib.HTTPSConnection instance at 0x05A253A0>)'
p3042
sg2948
S'endheaders'
p3043
sa(dp3044
g2939
S'C:\\Users\\nilton\\Desktop\\scripts\\curso_de_python\\web2py\\httplib.pyc'
p3045
sg2941
(dp3046
sg2943
I732
sg2944
(dp3047
sg2946
S'(self=<httplib.HTTPSConnection instance at 0x05A253A0>)'
p3048
sg2948
S'_send_output'
p3049
sa(dp3050
g2939
S'C:\\Users\\nilton\\Desktop\\scripts\\curso_de_python\\web2py\\httplib.pyc'
p3051
sg2941
(dp3052
sg2943
I699
sg2944
(dp3053
sg2946
S"(self=<httplib.HTTPSConnection instance at 0x05A253A0>, str='POST /RPC2 HTTP/1.0\\r\\nHost: 187.103.137.248\\r\\nUser...\\r\\nContent-Type: text/xml\\r\\nContent-Length: 299\\r\\n\\r\\n')"
p3054
sg2948
S'send'
p3055
sa(dp3056
g2939
S'C:\\Users\\nilton\\Desktop\\scripts\\curso_de_python\\web2py\\httplib.pyc'
p3057
sg2941
(dp3058
sg2943
I1134
sg2944
(dp3059
sg2946
S'(self=<httplib.HTTPSConnection instance at 0x05A253A0>)'
p3060
sg2948
S'connect'
p3061
sa(dp3062
g2939
S'C:\\Users\\nilton\\Desktop\\scripts\\curso_de_python\\web2py\\<string>'
p3063
sg2941
(dp3064
sg2943
I1
sg2944
(dp3065
sg2946
S"(self=<socket._socketobject object at 0x05C84570>, *args=(('187.103.137.248', 443),))"
p3066
sg2948
g3061
sasS'pyver'
p3067
S'Python 2.5.4: C:\\Users\\nilton\\Desktop\\scripts\\curso_de_python\\web2py\\web2py_no_console.exe'
p3068
sS'session'
p3069
g53
(g54
g55
NtRp3070
(dp3071
g58
(dp3072
sg60
(lp3073
g53
(g62
g55
NtRp3074
(dp3075
g58
(dp3076
g66
I5
ssg67
Nsg60
(lp3077
sbasbsS'etype'
p3078
S"<class 'socket.error'>"
p3079
sS'date'
p3080
S'Tue Jan 24 12:21:49 2012'
p3081
sS'response'
p3082
g53
(g54
g55
NtRp3083
(dp3084
g58
(dp3085
sg60
(lp3086
g53
(g62
g55
NtRp3087
(dp3088
g58
(dp3089
g66
I5
ssg67
Nsg60
(lp3090
g53
(g69
g55
NtRp3091
(dp3092
g58
(dp3093
sg67
g3087
sg60
(lp3094
g53
(g74
g55
NtRp3095
(dp3096
g58
(dp3097
g78
g79
ssg67
g3091
sg60
(lp3098
g151
asbag53
(g74
g55
NtRp3099
(dp3100
g58
(dp3101
g85
g86
ssg67
g3091
sg60
(lp3102
S':'
asbag53
(g74
g55
NtRp3103
(dp3104
g58
(dp3105
sg67
g3091
sg60
(lp3106
g53
(g54
g55
NtRp3107
(dp3108
g58
(dp3109
g66
I5
ssg67
g3103
sg60
(lp3110
S'<cStringIO.StringO object at 0x0293BDA0>'
p3111
asbasbasbag53
(g69
g55
NtRp3112
(dp3113
g58
(dp3114
sg67
g3087
sg60
(lp3115
g53
(g74
g55
NtRp3116
(dp3117
g58
(dp3118
g78
g79
ssg67
g3112
sg60
(lp3119
g217
asbag53
(g74
g55
NtRp3120
(dp3121
g58
(dp3122
g85
g86
ssg67
g3112
sg60
(lp3123
S':'
asbag53
(g74
g55
NtRp3124
(dp3125
g58
(dp3126
sg67
g3112
sg60
(lp3127
g53
(g54
g55
NtRp3128
(dp3129
g58
(dp3130
g66
I5
ssg67
g3124
sg60
(lp3131
g53
(g62
g55
NtRp3132
(dp3133
g58
(dp3134
g66
I4
ssg67
Nsg60
(lp3135
g53
(g69
g55
NtRp3136
(dp3137
g58
(dp3138
sg67
g3132
sg60
(lp3139
g53
(g74
g55
NtRp3140
(dp3141
g58
(dp3142
g78
g79
ssg67
g3136
sg60
(lp3143
S'session_id_xcpadmin'
p3144
asbag53
(g74
g55
NtRp3145
(dp3146
g58
(dp3147
g85
g86
ssg67
g3136
sg60
(lp3148
S':'
asbag53
(g74
g55
NtRp3149
(dp3150
g58
(dp3151
sg67
g3136
sg60
(lp3152
g53
(g54
g55
NtRp3153
(dp3154
g58
(dp3155
g66
I4
ssg67
g3149
sg60
(lp3156
g53
(g62
g55
NtRp3157
(dp3158
g58
(dp3159
g66
I3
ssg67
Nsg60
(lp3160
g53
(g69
g55
NtRp3161
(dp3162
g58
(dp3163
sg67
g3157
sg60
(lp3164
g53
(g74
g55
NtRp3165
(dp3166
g58
(dp3167
g78
g79
ssg67
g3161
sg60
(lp3168
g267
asbag53
(g74
g55
NtRp3169
(dp3170
g58
(dp3171
g85
g86
ssg67
g3161
sg60
(lp3172
S':'
asbag53
(g74
g55
NtRp3173
(dp3174
g58
(dp3175
sg67
g3161
sg60
(lp3176
g53
(g54
g55
NtRp3177
(dp3178
g58
(dp3179
g66
I3
ssg67
g3173
sg60
(lp3180
S''
asbasbasbag53
(g69
g55
NtRp3181
(dp3182
g58
(dp3183
sg67
g3157
sg60
(lp3184
g53
(g74
g55
NtRp3185
(dp3186
g58
(dp3187
g78
g79
ssg67
g3181
sg60
(lp3188
g288
asbag53
(g74
g55
NtRp3189
(dp3190
g58
(dp3191
g85
g86
ssg67
g3181
sg60
(lp3192
S':'
asbag53
(g74
g55
NtRp3193
(dp3194
g58
(dp3195
sg67
g3181
sg60
(lp3196
g53
(g54
g55
NtRp3197
(dp3198
g58
(dp3199
g66
I3
ssg67
g3193
sg60
(lp3200
S''
asbasbasbag53
(g69
g55
NtRp3201
(dp3202
g58
(dp3203
sg67
g3157
sg60
(lp3204
g53
(g74
g55
NtRp3205
(dp3206
g58
(dp3207
g78
g79
ssg67
g3201
sg60
(lp3208
g309
asbag53
(g74
g55
NtRp3209
(dp3210
g58
(dp3211
g85
g86
ssg67
g3201
sg60
(lp3212
S':'
asbag53
(g74
g55
NtRp3213
(dp3214
g58
(dp3215
sg67
g3201
sg60
(lp3216
g53
(g54
g55
NtRp3217
(dp3218
g58
(dp3219
g66
I3
ssg67
g3213
sg60
(lp3220
S''
asbasbasbag53
(g69
g55
NtRp3221
(dp3222
g58
(dp3223
sg67
g3157
sg60
(lp3224
g53
(g74
g55
NtRp3225
(dp3226
g58
(dp3227
g78
g79
ssg67
g3221
sg60
(lp3228
g330
asbag53
(g74
g55
NtRp3229
(dp3230
g58
(dp3231
g85
g86
ssg67
g3221
sg60
(lp3232
S':'
asbag53
(g74
g55
NtRp3233
(dp3234
g58
(dp3235
sg67
g3221
sg60
(lp3236
g53
(g54
g55
NtRp3237
(dp3238
g58
(dp3239
g66
I3
ssg67
g3233
sg60
(lp3240
S''
asbasbasbag53
(g69
g55
NtRp3241
(dp3242
g58
(dp3243
sg67
g3157
sg60
(lp3244
g53
(g74
g55
NtRp3245
(dp3246
g58
(dp3247
g78
g79
ssg67
g3241
sg60
(lp3248
g351
asbag53
(g74
g55
NtRp3249
(dp3250
g58
(dp3251
g85
g86
ssg67
g3241
sg60
(lp3252
S':'
asbag53
(g74
g55
NtRp3253
(dp3254
g58
(dp3255
sg67
g3241
sg60
(lp3256
g53
(g54
g55
NtRp3257
(dp3258
g58
(dp3259
g66
I3
ssg67
g3253
sg60
(lp3260
S'/'
asbasbasbag53
(g69
g55
NtRp3261
(dp3262
g58
(dp3263
sg67
g3157
sg60
(lp3264
g53
(g74
g55
NtRp3265
(dp3266
g58
(dp3267
g78
g79
ssg67
g3261
sg60
(lp3268
g372
asbag53
(g74
g55
NtRp3269
(dp3270
g58
(dp3271
g85
g86
ssg67
g3261
sg60
(lp3272
S':'
asbag53
(g74
g55
NtRp3273
(dp3274
g58
(dp3275
sg67
g3261
sg60
(lp3276
g53
(g54
g55
NtRp3277
(dp3278
g58
(dp3279
g66
I3
ssg67
g3273
sg60
(lp3280
S''
asbasbasbag53
(g69
g55
NtRp3281
(dp3282
g58
(dp3283
sg67
g3157
sg60
(lp3284
g53
(g74
g55
NtRp3285
(dp3286
g58
(dp3287
g78
g79
ssg67
g3281
sg60
(lp3288
g393
asbag53
(g74
g55
NtRp3289
(dp3290
g58
(dp3291
g85
g86
ssg67
g3281
sg60
(lp3292
S':'
asbag53
(g74
g55
NtRp3293
(dp3294
g58
(dp3295
sg67
g3281
sg60
(lp3296
g53
(g54
g55
NtRp3297
(dp3298
g58
(dp3299
g66
I3
ssg67
g3293
sg60
(lp3300
S''
asbasbasbasbasbasbasbasbasbasbasbag53
(g69
g55
NtRp3301
(dp3302
g58
(dp3303
sg67
g3087
sg60
(lp3304
g53
(g74
g55
NtRp3305
(dp3306
g58
(dp3307
g78
g79
ssg67
g3301
sg60
(lp3308
S'files'
p3309
asbag53
(g74
g55
NtRp3310
(dp3311
g58
(dp3312
g85
g86
ssg67
g3301
sg60
(lp3313
S':'
asbag53
(g74
g55
NtRp3314
(dp3315
g58
(dp3316
sg67
g3301
sg60
(lp3317
g53
(g54
g55
NtRp3318
(dp3319
g58
(dp3320
g66
I5
ssg67
g3314
sg60
(lp3321
g53
(g62
g55
NtRp3322
(dp3323
g58
(dp3324
g66
I4
ssg67
Nsg60
(lp3325
sbasbasbasbag53
(g69
g55
NtRp3326
(dp3327
g58
(dp3328
sg67
g3087
sg60
(lp3329
g53
(g74
g55
NtRp3330
(dp3331
g58
(dp3332
g78
g79
ssg67
g3326
sg60
(lp3333
S'flash'
p3334
asbag53
(g74
g55
NtRp3335
(dp3336
g58
(dp3337
g85
g86
ssg67
g3326
sg60
(lp3338
S':'
asbag53
(g74
g55
NtRp3339
(dp3340
g58
(dp3341
sg67
g3326
sg60
(lp3342
g53
(g54
g55
NtRp3343
(dp3344
g58
(dp3345
g66
I5
ssg67
g3339
sg60
(lp3346
S''
asbasbasbag53
(g69
g55
NtRp3347
(dp3348
g58
(dp3349
sg67
g3087
sg60
(lp3350
g53
(g74
g55
NtRp3351
(dp3352
g58
(dp3353
g78
g79
ssg67
g3347
sg60
(lp3354
S'generic_patterns'
p3355
asbag53
(g74
g55
NtRp3356
(dp3357
g58
(dp3358
g85
g86
ssg67
g3347
sg60
(lp3359
S':'
asbag53
(g74
g55
NtRp3360
(dp3361
g58
(dp3362
sg67
g3347
sg60
(lp3363
g53
(g54
g55
NtRp3364
(dp3365
g58
(dp3366
g66
I5
ssg67
g3360
sg60
(lp3367
g53
(g62
g55
NtRp3368
(dp3369
g58
(dp3370
g66
I4
ssg67
Nsg60
(lp3371
g53
(g69
g55
NtRp3372
(dp3373
g58
(dp3374
sg67
g3368
sg60
(lp3375
g53
(g74
g55
NtRp3376
(dp3377
g58
(dp3378
sg67
g3372
sg60
(lp3379
g53
(g54
g55
NtRp3380
(dp3381
g58
(dp3382
g66
I4
ssg67
g3376
sg60
(lp3383
S'*'
asbasbasbasbasbasbasbag53
(g69
g55
NtRp3384
(dp3385
g58
(dp3386
sg67
g3087
sg60
(lp3387
g53
(g74
g55
NtRp3388
(dp3389
g58
(dp3390
g78
g79
ssg67
g3384
sg60
(lp3391
S'headers'
p3392
asbag53
(g74
g55
NtRp3393
(dp3394
g58
(dp3395
g85
g86
ssg67
g3384
sg60
(lp3396
S':'
asbag53
(g74
g55
NtRp3397
(dp3398
g58
(dp3399
sg67
g3384
sg60
(lp3400
g53
(g54
g55
NtRp3401
(dp3402
g58
(dp3403
g66
I5
ssg67
g3397
sg60
(lp3404
g53
(g62
g55
NtRp3405
(dp3406
g58
(dp3407
g66
I4
ssg67
Nsg60
(lp3408
g53
(g69
g55
NtRp3409
(dp3410
g58
(dp3411
sg67
g3405
sg60
(lp3412
g53
(g74
g55
NtRp3413
(dp3414
g58
(dp3415
g78
g79
ssg67
g3409
sg60
(lp3416
S'Cache-Control'
p3417
asbag53
(g74
g55
NtRp3418
(dp3419
g58
(dp3420
g85
g86
ssg67
g3409
sg60
(lp3421
S':'
asbag53
(g74
g55
NtRp3422
(dp3423
g58
(dp3424
sg67
g3409
sg60
(lp3425
g53
(g54
g55
NtRp3426
(dp3427
g58
(dp3428
g66
I4
ssg67
g3422
sg60
(lp3429
S'no-store, no-cache, must-revalidate, post-check=0, pre-check=0'
p3430
asbasbasbag53
(g69
g55
NtRp3431
(dp3432
g58
(dp3433
sg67
g3405
sg60
(lp3434
g53
(g74
g55
NtRp3435
(dp3436
g58
(dp3437
g78
g79
ssg67
g3431
sg60
(lp3438
S'Content-Type'
p3439
asbag53
(g74
g55
NtRp3440
(dp3441
g58
(dp3442
g85
g86
ssg67
g3431
sg60
(lp3443
S':'
asbag53
(g74
g55
NtRp3444
(dp3445
g58
(dp3446
sg67
g3431
sg60
(lp3447
g53
(g54
g55
NtRp3448
(dp3449
g58
(dp3450
g66
I4
ssg67
g3444
sg60
(lp3451
S'text/html; charset=utf-8'
p3452
asbasbasbag53
(g69
g55
NtRp3453
(dp3454
g58
(dp3455
sg67
g3405
sg60
(lp3456
g53
(g74
g55
NtRp3457
(dp3458
g58
(dp3459
g78
g79
ssg67
g3453
sg60
(lp3460
S'Expires'
p3461
asbag53
(g74
g55
NtRp3462
(dp3463
g58
(dp3464
g85
g86
ssg67
g3453
sg60
(lp3465
S':'
asbag53
(g74
g55
NtRp3466
(dp3467
g58
(dp3468
sg67
g3453
sg60
(lp3469
g53
(g54
g55
NtRp3470
(dp3471
g58
(dp3472
g66
I4
ssg67
g3466
sg60
(lp3473
S'Tue, 24 Jan 2012 14:21:22 GMT'
p3474
asbasbasbag53
(g69
g55
NtRp3475
(dp3476
g58
(dp3477
sg67
g3405
sg60
(lp3478
g53
(g74
g55
NtRp3479
(dp3480
g58
(dp3481
g78
g79
ssg67
g3475
sg60
(lp3482
S'Pragma'
p3483
asbag53
(g74
g55
NtRp3484
(dp3485
g58
(dp3486
g85
g86
ssg67
g3475
sg60
(lp3487
S':'
asbag53
(g74
g55
NtRp3488
(dp3489
g58
(dp3490
sg67
g3475
sg60
(lp3491
g53
(g54
g55
NtRp3492
(dp3493
g58
(dp3494
g66
I4
ssg67
g3488
sg60
(lp3495
S'no-cache'
p3496
asbasbasbag53
(g69
g55
NtRp3497
(dp3498
g58
(dp3499
sg67
g3405
sg60
(lp3500
g53
(g74
g55
NtRp3501
(dp3502
g58
(dp3503
g78
g79
ssg67
g3497
sg60
(lp3504
S'X-Powered-By'
p3505
asbag53
(g74
g55
NtRp3506
(dp3507
g58
(dp3508
g85
g86
ssg67
g3497
sg60
(lp3509
S':'
asbag53
(g74
g55
NtRp3510
(dp3511
g58
(dp3512
sg67
g3497
sg60
(lp3513
g53
(g54
g55
NtRp3514
(dp3515
g58
(dp3516
g66
I4
ssg67
g3510
sg60
(lp3517
S'web2py'
p3518
asbasbasbasbasbasbasbag53
(g69
g55
NtRp3519
(dp3520
g58
(dp3521
sg67
g3087
sg60
(lp3522
g53
(g74
g55
NtRp3523
(dp3524
g58
(dp3525
g78
g79
ssg67
g3519
sg60
(lp3526
S'menu'
p3527
asbag53
(g74
g55
NtRp3528
(dp3529
g58
(dp3530
g85
g86
ssg67
g3519
sg60
(lp3531
S':'
asbag53
(g74
g55
NtRp3532
(dp3533
g58
(dp3534
sg67
g3519
sg60
(lp3535
g53
(g54
g55
NtRp3536
(dp3537
g58
(dp3538
g66
I5
ssg67
g3532
sg60
(lp3539
g53
(g62
g55
NtRp3540
(dp3541
g58
(dp3542
g66
I4
ssg67
Nsg60
(lp3543
g53
(g69
g55
NtRp3544
(dp3545
g58
(dp3546
sg67
g3540
sg60
(lp3547
g53
(g74
g55
NtRp3548
(dp3549
g58
(dp3550
sg67
g3544
sg60
(lp3551
g53
(g54
g55
NtRp3552
(dp3553
g58
(dp3554
g66
I4
ssg67
g3548
sg60
(lp3555
g53
(g62
g55
NtRp3556
(dp3557
g58
(dp3558
g66
I3
ssg67
Nsg60
(lp3559
g53
(g69
g55
NtRp3560
(dp3561
g58
(dp3562
sg67
g3556
sg60
(lp3563
g53
(g74
g55
NtRp3564
(dp3565
g58
(dp3566
sg67
g3560
sg60
(lp3567
g53
(g54
g55
NtRp3568
(dp3569
g58
(dp3570
g66
I3
ssg67
g3564
sg60
(lp3571
cgluon.languages
lazyT_unpickle
p3572
(S't\x04\x00\x00\x00Home'
tRp3573
asbasbasbag53
(g69
g55
NtRp3574
(dp3575
g58
(dp3576
sg67
g3556
sg60
(lp3577
g53
(g74
g55
NtRp3578
(dp3579
g58
(dp3580
sg67
g3574
sg60
(lp3581
g53
(g54
g55
NtRp3582
(dp3583
g58
(dp3584
g66
I3
ssg67
g3578
sg60
(lp3585
g96
asbasbasbag53
(g69
g55
NtRp3586
(dp3587
g58
(dp3588
sg67
g3556
sg60
(lp3589
g53
(g74
g55
NtRp3590
(dp3591
g58
(dp3592
sg67
g3586
sg60
(lp3593
g53
(g54
g55
NtRp3594
(dp3595
g58
(dp3596
g66
I3
ssg67
g3590
sg60
(lp3597
S'/xcpadmin/default/index'
p3598
asbasbasbag53
(g69
g55
NtRp3599
(dp3600
g58
(dp3601
sg67
g3556
sg60
(lp3602
g53
(g74
g55
NtRp3603
(dp3604
g58
(dp3605
sg67
g3599
sg60
(lp3606
g53
(g54
g55
NtRp3607
(dp3608
g58
(dp3609
g66
I3
ssg67
g3603
sg60
(lp3610
g53
(g62
g55
NtRp3611
(dp3612
g58
(dp3613
g66
I2
ssg67
Nsg60
(lp3614
sbasbasbasbasbasbasbasbag53
(g69
g55
NtRp3615
(dp3616
g58
(dp3617
sg67
g3540
sg60
(lp3618
g53
(g74
g55
NtRp3619
(dp3620
g58
(dp3621
sg67
g3615
sg60
(lp3622
g53
(g54
g55
NtRp3623
(dp3624
g58
(dp3625
g66
I4
ssg67
g3619
sg60
(lp3626
g53
(g62
g55
NtRp3627
(dp3628
g58
(dp3629
g66
I3
ssg67
Nsg60
(lp3630
g53
(g69
g55
NtRp3631
(dp3632
g58
(dp3633
sg67
g3627
sg60
(lp3634
g53
(g74
g55
NtRp3635
(dp3636
g58
(dp3637
sg67
g3631
sg60
(lp3638
g53
(g54
g55
NtRp3639
(dp3640
g58
(dp3641
g66
I3
ssg67
g3635
sg60
(lp3642
g53
(cgluon.html
SPAN
p3643
g55
NtRp3644
(dp3645
g58
(dp3646
g78
S'color:yellow'
p3647
ssg67
Nsg60
(lp3648
g3518
asbasbasbasbag53
(g69
g55
NtRp3649
(dp3650
g58
(dp3651
sg67
g3627
sg60
(lp3652
g53
(g74
g55
NtRp3653
(dp3654
g58
(dp3655
sg67
g3649
sg60
(lp3656
g53
(g54
g55
NtRp3657
(dp3658
g58
(dp3659
g66
I3
ssg67
g3653
sg60
(lp3660
g96
asbasbasbag53
(g69
g55
NtRp3661
(dp3662
g58
(dp3663
sg67
g3627
sg60
(lp3664
g53
(g74
g55
NtRp3665
(dp3666
g58
(dp3667
sg67
g3661
sg60
(lp3668
g53
(g54
g55
NtRp3669
(dp3670
g58
(dp3671
g66
I3
ssg67
g3665
sg60
(lp3672
S'None'
p3673
asbasbasbag53
(g69
g55
NtRp3674
(dp3675
g58
(dp3676
sg67
g3627
sg60
(lp3677
g53
(g74
g55
NtRp3678
(dp3679
g58
(dp3680
sg67
g3674
sg60
(lp3681
g53
(g54
g55
NtRp3682
(dp3683
g58
(dp3684
g66
I3
ssg67
g3678
sg60
(lp3685
g53
(g62
g55
NtRp3686
(dp3687
g58
(dp3688
g66
I2
ssg67
Nsg60
(lp3689
g53
(g69
g55
NtRp3690
(dp3691
g58
(dp3692
sg67
g3686
sg60
(lp3693
g53
(g74
g55
NtRp3694
(dp3695
g58
(dp3696
sg67
g3690
sg60
(lp3697
g53
(g54
g55
NtRp3698
(dp3699
g58
(dp3700
g66
I2
ssg67
g3694
sg60
(lp3701
g53
(g62
g55
NtRp3702
(dp3703
g58
(dp3704
g66
I1
ssg67
Nsg60
(lp3705
g53
(g69
g55
NtRp3706
(dp3707
g58
(dp3708
sg67
g3702
sg60
(lp3709
g53
(g74
g55
NtRp3710
(dp3711
g58
(dp3712
sg67
g3706
sg60
(lp3713
g53
(g54
g55
NtRp3714
(dp3715
g58
(dp3716
g66
I1
ssg67
g3710
sg60
(lp3717
g3572
(S's\x08\x00\x00\x00My Sites'
tRp3718
asbasbasbag53
(g69
g55
NtRp3719
(dp3720
g58
(dp3721
sg67
g3702
sg60
(lp3722
g53
(g74
g55
NtRp3723
(dp3724
g58
(dp3725
sg67
g3719
sg60
(lp3726
g53
(g54
g55
NtRp3727
(dp3728
g58
(dp3729
g66
I1
ssg67
g3723
sg60
(lp3730
I00
asbasbasbag53
(g69
g55
NtRp3731
(dp3732
g58
(dp3733
sg67
g3702
sg60
(lp3734
g53
(g74
g55
NtRp3735
(dp3736
g58
(dp3737
sg67
g3731
sg60
(lp3738
g53
(g54
g55
NtRp3739
(dp3740
g58
(dp3741
g66
I1
ssg67
g3735
sg60
(lp3742
S'/admin/default/site'
p3743
asbasbasbasbasbasbasbag53
(g69
g55
NtRp3744
(dp3745
g58
(dp3746
sg67
g3686
sg60
(lp3747
g53
(g74
g55
NtRp3748
(dp3749
g58
(dp3750
sg67
g3744
sg60
(lp3751
g53
(g54
g55
NtRp3752
(dp3753
g58
(dp3754
g66
I2
ssg67
g3748
sg60
(lp3755
g53
(g62
g55
NtRp3756
(dp3757
g58
(dp3758
g66
I1
ssg67
Nsg60
(lp3759
g53
(g69
g55
NtRp3760
(dp3761
g58
(dp3762
sg67
g3756
sg60
(lp3763
g53
(g74
g55
NtRp3764
(dp3765
g58
(dp3766
sg67
g3760
sg60
(lp3767
g53
(g54
g55
NtRp3768
(dp3769
g58
(dp3770
g66
I1
ssg67
g3764
sg60
(lp3771
g3572
(S's\x08\x00\x00\x00This App'
tRp3772
asbasbasbag53
(g69
g55
NtRp3773
(dp3774
g58
(dp3775
sg67
g3756
sg60
(lp3776
g53
(g74
g55
NtRp3777
(dp3778
g58
(dp3779
sg67
g3773
sg60
(lp3780
g53
(g54
g55
NtRp3781
(dp3782
g58
(dp3783
g66
I1
ssg67
g3777
sg60
(lp3784
I00
asbasbasbag53
(g69
g55
NtRp3785
(dp3786
g58
(dp3787
sg67
g3756
sg60
(lp3788
g53
(g74
g55
NtRp3789
(dp3790
g58
(dp3791
sg67
g3785
sg60
(lp3792
g53
(g54
g55
NtRp3793
(dp3794
g58
(dp3795
g66
I1
ssg67
g3789
sg60
(lp3796
S'/admin/default/design/xcpadmin'
p3797
asbasbasbag53
(g69
g55
NtRp3798
(dp3799
g58
(dp3800
sg67
g3756
sg60
(lp3801
g53
(g74
g55
NtRp3802
(dp3803
g58
(dp3804
sg67
g3798
sg60
(lp3805
g53
(g54
g55
NtRp3806
(dp3807
g58
(dp3808
g66
I1
ssg67
g3802
sg60
(lp3809
(lp3810
(g3572
(S't\x0b\x00\x00\x00Controlador'
tRp3811
I00
S'/admin/default/edit/xcpadmin/controllers/listvm.py'
tp3812
a(g3572
(S's\x0e\x00\x00\x00Visualiza\xc3\xa7\xc3\xa3o'
tRp3813
I00
S'/admin/default/edit/xcpadmin/views/listvm/index.html'
tp3814
a(g3572
(S't\x06\x00\x00\x00Layout'
tRp3815
I00
S'/admin/default/edit/xcpadmin/views/layout.html'
tp3816
a(g3572
(S't\n\x00\x00\x00Stylesheet'
tRp3817
I00
S'/admin/default/edit/xcpadmin/static/css/web2py.css'
tp3818
a(g3572
(S's\t\x00\x00\x00Modelo BD'
tRp3819
I00
S'/admin/default/edit/xcpadmin/models/db.py'
tp3820
a(g3572
(S's\x0e\x00\x00\x00Modelo de Menu'
tRp3821
I00
S'/admin/default/edit/xcpadmin/models/menu.py'
tp3822
a(g3572
(S's\x0e\x00\x00\x00Banco de dados'
tRp3823
I00
S'/xcpadmin/appadmin/index'
tp3824
a(g3572
(S't\x06\x00\x00\x00Errors'
tRp3825
I00
S'/admin/default/errors/xcpadmin'
tp3826
a(g3572
(S't\x05\x00\x00\x00About'
tRp3827
I00
S'/admin/default/about/xcpadmin'
tp3828
aasbasbasbasbasbasbasbag53
(g69
g55
NtRp3829
(dp3830
g58
(dp3831
sg67
g3686
sg60
(lp3832
g53
(g74
g55
NtRp3833
(dp3834
g58
(dp3835
sg67
g3829
sg60
(lp3836
g53
(g54
g55
NtRp3837
(dp3838
g58
(dp3839
g66
I2
ssg67
g3833
sg60
(lp3840
g53
(g62
g55
NtRp3841
(dp3842
g58
(dp3843
g66
I1
ssg67
Nsg60
(lp3844
g53
(g69
g55
NtRp3845
(dp3846
g58
(dp3847
sg67
g3841
sg60
(lp3848
g53
(g74
g55
NtRp3849
(dp3850
g58
(dp3851
sg67
g3845
sg60
(lp3852
g53
(g54
g55
NtRp3853
(dp3854
g58
(dp3855
g66
I1
ssg67
g3849
sg60
(lp3856
S'web2py.com'
p3857
asbasbasbag53
(g69
g55
NtRp3858
(dp3859
g58
(dp3860
sg67
g3841
sg60
(lp3861
g53
(g74
g55
NtRp3862
(dp3863
g58
(dp3864
sg67
g3858
sg60
(lp3865
g53
(g54
g55
NtRp3866
(dp3867
g58
(dp3868
g66
I1
ssg67
g3862
sg60
(lp3869
I00
asbasbasbag53
(g69
g55
NtRp3870
(dp3871
g58
(dp3872
sg67
g3841
sg60
(lp3873
g53
(g74
g55
NtRp3874
(dp3875
g58
(dp3876
sg67
g3870
sg60
(lp3877
g53
(g54
g55
NtRp3878
(dp3879
g58
(dp3880
g66
I1
ssg67
g3874
sg60
(lp3881
S'http://www.web2py.com'
p3882
asbasbasbag53
(g69
g55
NtRp3883
(dp3884
g58
(dp3885
sg67
g3841
sg60
(lp3886
g53
(g74
g55
NtRp3887
(dp3888
g58
(dp3889
sg67
g3883
sg60
(lp3890
g53
(g54
g55
NtRp3891
(dp3892
g58
(dp3893
g66
I1
ssg67
g3887
sg60
(lp3894
(lp3895
(g3572
(S't\x08\x00\x00\x00Download'
tRp3896
I00
S'http://www.web2py.com/examples/default/download'
p3897
tp3898
a(g3572
(S't\x07\x00\x00\x00Support'
tRp3899
I00
S'http://www.web2py.com/examples/default/support'
p3900
tp3901
a(g3572
(S't\x04\x00\x00\x00Demo'
tRp3902
I00
S'http://web2py.com/demo_admin'
p3903
tp3904
a(g3572
(S's\x0e\x00\x00\x00Quick Examples'
tRp3905
I00
S'http://web2py.com/examples/default/examples'
p3906
tp3907
a(g3572
(S't\x03\x00\x00\x00FAQ'
tRp3908
I00
S'http://web2py.com/AlterEgo'
p3909
tp3910
a(g3572
(S't\x06\x00\x00\x00Videos'
tRp3911
I00
S'http://www.web2py.com/examples/default/videos/'
p3912
tp3913
a(g3572
(S's\x11\x00\x00\x00Free Applications'
tRp3914
I00
S'http://web2py.com/appliances'
p3915
tp3916
a(g3572
(S't\x07\x00\x00\x00Plugins'
tRp3917
I00
S'http://web2py.com/plugins'
p3918
tp3919
a(g3572
(S't\x07\x00\x00\x00Layouts'
tRp3920
I00
S'http://web2py.com/layouts'
p3921
tp3922
a(g3572
(S't\x07\x00\x00\x00Recipes'
tRp3923
I00
S'http://web2pyslices.com/'
p3924
tp3925
a(g3572
(S't\x08\x00\x00\x00Semantic'
tRp3926
I00
S'http://web2py.com/semantic'
p3927
tp3928
aasbasbasbasbasbasbasbag53
(g69
g55
NtRp3929
(dp3930
g58
(dp3931
sg67
g3686
sg60
(lp3932
g53
(g74
g55
NtRp3933
(dp3934
g58
(dp3935
sg67
g3929
sg60
(lp3936
g53
(g54
g55
NtRp3937
(dp3938
g58
(dp3939
g66
I2
ssg67
g3933
sg60
(lp3940
g53
(g62
g55
NtRp3941
(dp3942
g58
(dp3943
g66
I1
ssg67
Nsg60
(lp3944
g53
(g69
g55
NtRp3945
(dp3946
g58
(dp3947
sg67
g3941
sg60
(lp3948
g53
(g74
g55
NtRp3949
(dp3950
g58
(dp3951
sg67
g3945
sg60
(lp3952
g53
(g54
g55
NtRp3953
(dp3954
g58
(dp3955
g66
I1
ssg67
g3949
sg60
(lp3956
g3572
(S't\r\x00\x00\x00Documentation'
tRp3957
asbasbasbag53
(g69
g55
NtRp3958
(dp3959
g58
(dp3960
sg67
g3941
sg60
(lp3961
g53
(g74
g55
NtRp3962
(dp3963
g58
(dp3964
sg67
g3958
sg60
(lp3965
g53
(g54
g55
NtRp3966
(dp3967
g58
(dp3968
g66
I1
ssg67
g3962
sg60
(lp3969
I00
asbasbasbag53
(g69
g55
NtRp3970
(dp3971
g58
(dp3972
sg67
g3941
sg60
(lp3973
g53
(g74
g55
NtRp3974
(dp3975
g58
(dp3976
sg67
g3970
sg60
(lp3977
g53
(g54
g55
NtRp3978
(dp3979
g58
(dp3980
g66
I1
ssg67
g3974
sg60
(lp3981
S'http://www.web2py.com/book'
p3982
asbasbasbag53
(g69
g55
NtRp3983
(dp3984
g58
(dp3985
sg67
g3941
sg60
(lp3986
g53
(g74
g55
NtRp3987
(dp3988
g58
(dp3989
sg67
g3983
sg60
(lp3990
g53
(g54
g55
NtRp3991
(dp3992
g58
(dp3993
g66
I1
ssg67
g3987
sg60
(lp3994
(lp3995
(g3572
(S't\x07\x00\x00\x00Preface'
tRp3996
I00
S'http://www.web2py.com/book/default/chapter/00'
p3997
tp3998
a(g3572
(S't\x0c\x00\x00\x00Introduction'
tRp3999
I00
S'http://www.web2py.com/book/default/chapter/01'
p4000
tp4001
a(g3572
(S't\x06\x00\x00\x00Python'
tRp4002
I00
S'http://www.web2py.com/book/default/chapter/02'
p4003
tp4004
a(g3572
(S't\x08\x00\x00\x00Overview'
tRp4005
I00
S'http://www.web2py.com/book/default/chapter/03'
p4006
tp4007
a(g3572
(S's\x08\x00\x00\x00The Core'
tRp4008
I00
S'http://www.web2py.com/book/default/chapter/04'
p4009
tp4010
a(g3572
(S's\t\x00\x00\x00The Views'
tRp4011
I00
S'http://www.web2py.com/book/default/chapter/05'
p4012
tp4013
a(g3572
(S's\x0e\x00\x00\x00Banco de dados'
tRp4014
I00
S'http://www.web2py.com/book/default/chapter/06'
p4015
tp4016
a(g3572
(S's\x14\x00\x00\x00Forms and Validators'
tRp4017
I00
S'http://www.web2py.com/book/default/chapter/07'
p4018
tp4019
a(g3572
(S's\r\x00\x00\x00Email and SMS'
tRp4020
I00
S'http://www.web2py.com/book/default/chapter/08'
p4021
tp4022
a(g3572
(S's\x0e\x00\x00\x00Access Control'
tRp4023
I00
S'http://www.web2py.com/book/default/chapter/09'
p4024
tp4025
a(g3572
(S't\x08\x00\x00\x00Services'
tRp4026
I00
S'http://www.web2py.com/book/default/chapter/10'
p4027
tp4028
a(g3572
(S's\x0c\x00\x00\x00Ajax Recipes'
tRp4029
I00
S'http://www.web2py.com/book/default/chapter/11'
p4030
tp4031
a(g3572
(S's\x16\x00\x00\x00Components and Plugins'
tRp4032
I00
S'http://www.web2py.com/book/default/chapter/12'
p4033
tp4034
a(g3572
(S's\x12\x00\x00\x00Deployment Recipes'
tRp4035
I00
S'http://www.web2py.com/book/default/chapter/13'
p4036
tp4037
a(g3572
(S's\r\x00\x00\x00Other Recipes'
tRp4038
I00
S'http://www.web2py.com/book/default/chapter/14'
p4039
tp4040
a(g3572
(S's\r\x00\x00\x00Buy this book'
tRp4041
I00
S'http://stores.lulu.com/web2py'
p4042
tp4043
aasbasbasbasbasbasbasbag53
(g69
g55
NtRp4044
(dp4045
g58
(dp4046
sg67
g3686
sg60
(lp4047
g53
(g74
g55
NtRp4048
(dp4049
g58
(dp4050
sg67
g4044
sg60
(lp4051
g53
(g54
g55
NtRp4052
(dp4053
g58
(dp4054
g66
I2
ssg67
g4048
sg60
(lp4055
g53
(g62
g55
NtRp4056
(dp4057
g58
(dp4058
g66
I1
ssg67
Nsg60
(lp4059
g53
(g69
g55
NtRp4060
(dp4061
g58
(dp4062
sg67
g4056
sg60
(lp4063
g53
(g74
g55
NtRp4064
(dp4065
g58
(dp4066
sg67
g4060
sg60
(lp4067
g53
(g54
g55
NtRp4068
(dp4069
g58
(dp4070
g66
I1
ssg67
g4064
sg60
(lp4071
g3572
(S't\t\x00\x00\x00Community'
tRp4072
asbasbasbag53
(g69
g55
NtRp4073
(dp4074
g58
(dp4075
sg67
g4056
sg60
(lp4076
g53
(g74
g55
NtRp4077
(dp4078
g58
(dp4079
sg67
g4073
sg60
(lp4080
g53
(g54
g55
NtRp4081
(dp4082
g58
(dp4083
g66
I1
ssg67
g4077
sg60
(lp4084
I00
asbasbasbag53
(g69
g55
NtRp4085
(dp4086
g58
(dp4087
sg67
g4056
sg60
(lp4088
g53
(g74
g55
NtRp4089
(dp4090
g58
(dp4091
sg67
g4085
sg60
(lp4092
g53
(g54
g55
NtRp4093
(dp4094
g58
(dp4095
g66
I1
ssg67
g4089
sg60
(lp4096
Nasbasbasbag53
(g69
g55
NtRp4097
(dp4098
g58
(dp4099
sg67
g4056
sg60
(lp4100
g53
(g74
g55
NtRp4101
(dp4102
g58
(dp4103
sg67
g4097
sg60
(lp4104
g53
(g54
g55
NtRp4105
(dp4106
g58
(dp4107
g66
I1
ssg67
g4101
sg60
(lp4108
(lp4109
(g3572
(S't\x06\x00\x00\x00Groups'
tRp4110
I00
S'http://www.web2py.com/examples/default/usergroups'
p4111
tp4112
a(g3572
(S't\x07\x00\x00\x00Twitter'
tRp4113
I00
S'http://twitter.com/web2py'
p4114
tp4115
a(g3572
(S's\t\x00\x00\x00Live Chat'
tRp4116
I00
S'http://webchat.freenode.net/?channels=web2py'
p4117
tp4118
aasbasbasbasbasbasbasbag53
(g69
g55
NtRp4119
(dp4120
g58
(dp4121
sg67
g3686
sg60
(lp4122
g53
(g74
g55
NtRp4123
(dp4124
g58
(dp4125
sg67
g4119
sg60
(lp4126
g53
(g54
g55
NtRp4127
(dp4128
g58
(dp4129
g66
I2
ssg67
g4123
sg60
(lp4130
g53
(g62
g55
NtRp4131
(dp4132
g58
(dp4133
g66
I1
ssg67
Nsg60
(lp4134
g53
(g69
g55
NtRp4135
(dp4136
g58
(dp4137
sg67
g4131
sg60
(lp4138
g53
(g74
g55
NtRp4139
(dp4140
g58
(dp4141
sg67
g4135
sg60
(lp4142
g53
(g54
g55
NtRp4143
(dp4144
g58
(dp4145
g66
I1
ssg67
g4139
sg60
(lp4146
g3572
(S't\x07\x00\x00\x00Plugins'
tRp4147
asbasbasbag53
(g69
g55
NtRp4148
(dp4149
g58
(dp4150
sg67
g4131
sg60
(lp4151
g53
(g74
g55
NtRp4152
(dp4153
g58
(dp4154
sg67
g4148
sg60
(lp4155
g53
(g54
g55
NtRp4156
(dp4157
g58
(dp4158
g66
I1
ssg67
g4152
sg60
(lp4159
I00
asbasbasbag53
(g69
g55
NtRp4160
(dp4161
g58
(dp4162
sg67
g4131
sg60
(lp4163
g53
(g74
g55
NtRp4164
(dp4165
g58
(dp4166
sg67
g4160
sg60
(lp4167
g53
(g54
g55
NtRp4168
(dp4169
g58
(dp4170
g66
I1
ssg67
g4164
sg60
(lp4171
Nasbasbasbag53
(g69
g55
NtRp4172
(dp4173
g58
(dp4174
sg67
g4131
sg60
(lp4175
g53
(g74
g55
NtRp4176
(dp4177
g58
(dp4178
sg67
g4172
sg60
(lp4179
g53
(g54
g55
NtRp4180
(dp4181
g58
(dp4182
g66
I1
ssg67
g4176
sg60
(lp4183
(lp4184
(S'plugin_wiki'
p4185
I00
S'http://web2py.com/examples/default/download'
p4186
tp4187
a(g3572
(S's\r\x00\x00\x00Other Plugins'
tRp4188
I00
g3918
tp4189
a(g3572
(S's\x0e\x00\x00\x00Layout Plugins'
tRp4190
I00
g3921
tp4191
aasbasbasbasbasbasbasbasbasbasbasbasbasbasbasbasbasbasbasbag53
(g69
g55
NtRp4192
(dp4193
g58
(dp4194
sg67
g3087
sg60
(lp4195
g53
(g74
g55
NtRp4196
(dp4197
g58
(dp4198
g78
g79
ssg67
g4192
sg60
(lp4199
S'meta'
p4200
asbag53
(g74
g55
NtRp4201
(dp4202
g58
(dp4203
g85
g86
ssg67
g4192
sg60
(lp4204
S':'
asbag53
(g74
g55
NtRp4205
(dp4206
g58
(dp4207
sg67
g4192
sg60
(lp4208
g53
(g54
g55
NtRp4209
(dp4210
g58
(dp4211
g66
I5
ssg67
g4205
sg60
(lp4212
g53
(g62
g55
NtRp4213
(dp4214
g58
(dp4215
g66
I4
ssg67
Nsg60
(lp4216
g53
(g69
g55
NtRp4217
(dp4218
g58
(dp4219
sg67
g4213
sg60
(lp4220
g53
(g74
g55
NtRp4221
(dp4222
g58
(dp4223
g78
g79
ssg67
g4217
sg60
(lp4224
S'author'
p4225
asbag53
(g74
g55
NtRp4226
(dp4227
g58
(dp4228
g85
g86
ssg67
g4217
sg60
(lp4229
S':'
asbag53
(g74
g55
NtRp4230
(dp4231
g58
(dp4232
sg67
g4217
sg60
(lp4233
g53
(g54
g55
NtRp4234
(dp4235
g58
(dp4236
g66
I4
ssg67
g4230
sg60
(lp4237
S'Your Name <you@example.com>'
p4238
asbasbasbag53
(g69
g55
NtRp4239
(dp4240
g58
(dp4241
sg67
g4213
sg60
(lp4242
g53
(g74
g55
NtRp4243
(dp4244
g58
(dp4245
g78
g79
ssg67
g4239
sg60
(lp4246
S'copyright'
p4247
asbag53
(g74
g55
NtRp4248
(dp4249
g58
(dp4250
g85
g86
ssg67
g4239
sg60
(lp4251
S':'
asbag53
(g74
g55
NtRp4252
(dp4253
g58
(dp4254
sg67
g4239
sg60
(lp4255
g53
(g54
g55
NtRp4256
(dp4257
g58
(dp4258
g66
I4
ssg67
g4252
sg60
(lp4259
S'Copyright 2011'
p4260
asbasbasbag53
(g69
g55
NtRp4261
(dp4262
g58
(dp4263
sg67
g4213
sg60
(lp4264
g53
(g74
g55
NtRp4265
(dp4266
g58
(dp4267
g78
g79
ssg67
g4261
sg60
(lp4268
S'description'
p4269
asbag53
(g74
g55
NtRp4270
(dp4271
g58
(dp4272
g85
g86
ssg67
g4261
sg60
(lp4273
S':'
asbag53
(g74
g55
NtRp4274
(dp4275
g58
(dp4276
sg67
g4261
sg60
(lp4277
g53
(g54
g55
NtRp4278
(dp4279
g58
(dp4280
g66
I4
ssg67
g4274
sg60
(lp4281
S'a cool new app'
p4282
asbasbasbag53
(g69
g55
NtRp4283
(dp4284
g58
(dp4285
sg67
g4213
sg60
(lp4286
g53
(g74
g55
NtRp4287
(dp4288
g58
(dp4289
g78
g79
ssg67
g4283
sg60
(lp4290
S'generator'
p4291
asbag53
(g74
g55
NtRp4292
(dp4293
g58
(dp4294
g85
g86
ssg67
g4283
sg60
(lp4295
S':'
asbag53
(g74
g55
NtRp4296
(dp4297
g58
(dp4298
sg67
g4283
sg60
(lp4299
g53
(g54
g55
NtRp4300
(dp4301
g58
(dp4302
g66
I4
ssg67
g4296
sg60
(lp4303
S'Web2py Web Framework'
p4304
asbasbasbag53
(g69
g55
NtRp4305
(dp4306
g58
(dp4307
sg67
g4213
sg60
(lp4308
g53
(g74
g55
NtRp4309
(dp4310
g58
(dp4311
g78
g79
ssg67
g4305
sg60
(lp4312
S'keywords'
p4313
asbag53
(g74
g55
NtRp4314
(dp4315
g58
(dp4316
g85
g86
ssg67
g4305
sg60
(lp4317
S':'
asbag53
(g74
g55
NtRp4318
(dp4319
g58
(dp4320
sg67
g4305
sg60
(lp4321
g53
(g54
g55
NtRp4322
(dp4323
g58
(dp4324
g66
I4
ssg67
g4318
sg60
(lp4325
S'web2py, python, framework'
p4326
asbasbasbasbasbasbasbag53
(g69
g55
NtRp4327
(dp4328
g58
(dp4329
sg67
g3087
sg60
(lp4330
g53
(g74
g55
NtRp4331
(dp4332
g58
(dp4333
g78
g79
ssg67
g4327
sg60
(lp4334
S'postprocessing'
p4335
asbag53
(g74
g55
NtRp4336
(dp4337
g58
(dp4338
g85
g86
ssg67
g4327
sg60
(lp4339
S':'
asbag53
(g74
g55
NtRp4340
(dp4341
g58
(dp4342
sg67
g4327
sg60
(lp4343
g53
(g54
g55
NtRp4344
(dp4345
g58
(dp4346
g66
I5
ssg67
g4340
sg60
(lp4347
g53
(g62
g55
NtRp4348
(dp4349
g58
(dp4350
g66
I4
ssg67
Nsg60
(lp4351
sbasbasbasbag53
(g69
g55
NtRp4352
(dp4353
g58
(dp4354
sg67
g3087
sg60
(lp4355
g53
(g74
g55
NtRp4356
(dp4357
g58
(dp4358
g78
g79
ssg67
g4352
sg60
(lp4359
S'session_file'
p4360
asbag53
(g74
g55
NtRp4361
(dp4362
g58
(dp4363
g85
g86
ssg67
g4352
sg60
(lp4364
S':'
asbag53
(g74
g55
NtRp4365
(dp4366
g58
(dp4367
sg67
g4352
sg60
(lp4368
g53
(g54
g55
NtRp4369
(dp4370
g58
(dp4371
g66
I5
ssg67
g4365
sg60
(lp4372
S"<open file 'C:\\Users\\nilton\\Desktop\\scripts\\curso_de_python\\web2py\\applications\\xcpadmin\\sessions\\127.0.0.1-0cb88dcb-67b2-4748-8846-25f35503a0e7', mode 'rb+' at 0x05C97C38>"
p4373
asbasbasbag53
(g69
g55
NtRp4374
(dp4375
g58
(dp4376
sg67
g3087
sg60
(lp4377
g53
(g74
g55
NtRp4378
(dp4379
g58
(dp4380
g78
g79
ssg67
g4374
sg60
(lp4381
S'session_filename'
p4382
asbag53
(g74
g55
NtRp4383
(dp4384
g58
(dp4385
g85
g86
ssg67
g4374
sg60
(lp4386
S':'
asbag53
(g74
g55
NtRp4387
(dp4388
g58
(dp4389
sg67
g4374
sg60
(lp4390
g53
(g54
g55
NtRp4391
(dp4392
g58
(dp4393
g66
I5
ssg67
g4387
sg60
(lp4394
S'C:\\Users\\nilton\\Desktop\\scripts\\curso_de_python\\web2py\\applications\\xcpadmin\\sessions\\127.0.0.1-0cb88dcb-67b2-4748-8846-25f35503a0e7'
p4395
asbasbasbag53
(g69
g55
NtRp4396
(dp4397
g58
(dp4398
sg67
g3087
sg60
(lp4399
g53
(g74
g55
NtRp4400
(dp4401
g58
(dp4402
g78
g79
ssg67
g4396
sg60
(lp4403
S'session_id'
p4404
asbag53
(g74
g55
NtRp4405
(dp4406
g58
(dp4407
g85
g86
ssg67
g4396
sg60
(lp4408
S':'
asbag53
(g74
g55
NtRp4409
(dp4410
g58
(dp4411
sg67
g4396
sg60
(lp4412
g53
(g54
g55
NtRp4413
(dp4414
g58
(dp4415
g66
I5
ssg67
g4409
sg60
(lp4416
S'127.0.0.1-0cb88dcb-67b2-4748-8846-25f35503a0e7'
p4417
asbasbasbag53
(g69
g55
NtRp4418
(dp4419
g58
(dp4420
sg67
g3087
sg60
(lp4421
g53
(g74
g55
NtRp4422
(dp4423
g58
(dp4424
g78
g79
ssg67
g4418
sg60
(lp4425
S'session_id_name'
p4426
asbag53
(g74
g55
NtRp4427
(dp4428
g58
(dp4429
g85
g86
ssg67
g4418
sg60
(lp4430
S':'
asbag53
(g74
g55
NtRp4431
(dp4432
g58
(dp4433
sg67
g4418
sg60
(lp4434
g53
(g54
g55
NtRp4435
(dp4436
g58
(dp4437
g66
I5
ssg67
g4431
sg60
(lp4438
g3144
asbasbasbag53
(g69
g55
NtRp4439
(dp4440
g58
(dp4441
sg67
g3087
sg60
(lp4442
g53
(g74
g55
NtRp4443
(dp4444
g58
(dp4445
g78
g79
ssg67
g4439
sg60
(lp4446
S'session_locked'
p4447
asbag53
(g74
g55
NtRp4448
(dp4449
g58
(dp4450
g85
g86
ssg67
g4439
sg60
(lp4451
S':'
asbag53
(g74
g55
NtRp4452
(dp4453
g58
(dp4454
sg67
g4439
sg60
(lp4455
g53
(g54
g55
NtRp4456
(dp4457
g58
(dp4458
g66
I5
ssg67
g4452
sg60
(lp4459
g1613
asbasbasbag53
(g69
g55
NtRp4460
(dp4461
g58
(dp4462
sg67
g3087
sg60
(lp4463
g53
(g74
g55
NtRp4464
(dp4465
g58
(dp4466
g78
g79
ssg67
g4460
sg60
(lp4467
S'session_new'
p4468
asbag53
(g74
g55
NtRp4469
(dp4470
g58
(dp4471
g85
g86
ssg67
g4460
sg60
(lp4472
S':'
asbag53
(g74
g55
NtRp4473
(dp4474
g58
(dp4475
sg67
g4460
sg60
(lp4476
g53
(g54
g55
NtRp4477
(dp4478
g58
(dp4479
g66
I5
ssg67
g4473
sg60
(lp4480
g96
asbasbasbag53
(g69
g55
NtRp4481
(dp4482
g58
(dp4483
sg67
g3087
sg60
(lp4484
g53
(g74
g55
NtRp4485
(dp4486
g58
(dp4487
g78
g79
ssg67
g4481
sg60
(lp4488
S'status'
p4489
asbag53
(g74
g55
NtRp4490
(dp4491
g58
(dp4492
g85
g86
ssg67
g4481
sg60
(lp4493
S':'
asbag53
(g74
g55
NtRp4494
(dp4495
g58
(dp4496
sg67
g4481
sg60
(lp4497
g53
(g54
g55
NtRp4498
(dp4499
g58
(dp4500
g66
I5
ssg67
g4494
sg60
(lp4501
S'200'
p4502
asbasbasbag53
(g69
g55
NtRp4503
(dp4504
g58
(dp4505
sg67
g3087
sg60
(lp4506
g53
(g74
g55
NtRp4507
(dp4508
g58
(dp4509
g78
g79
ssg67
g4503
sg60
(lp4510
S'subtitle'
p4511
asbag53
(g74
g55
NtRp4512
(dp4513
g58
(dp4514
g85
g86
ssg67
g4503
sg60
(lp4515
S':'
asbag53
(g74
g55
NtRp4516
(dp4517
g58
(dp4518
sg67
g4503
sg60
(lp4519
g53
(g54
g55
NtRp4520
(dp4521
g58
(dp4522
g66
I5
ssg67
g4516
sg60
(lp4523
g3572
(S's\x0f\x00\x00\x00Personalize-me!'
tRp4524
asbasbasbag53
(g69
g55
NtRp4525
(dp4526
g58
(dp4527
sg67
g3087
sg60
(lp4528
g53
(g74
g55
NtRp4529
(dp4530
g58
(dp4531
g78
g79
ssg67
g4525
sg60
(lp4532
S'title'
p4533
asbag53
(g74
g55
NtRp4534
(dp4535
g58
(dp4536
g85
g86
ssg67
g4525
sg60
(lp4537
S':'
asbag53
(g74
g55
NtRp4538
(dp4539
g58
(dp4540
sg67
g4525
sg60
(lp4541
g53
(g54
g55
NtRp4542
(dp4543
g58
(dp4544
g66
I5
ssg67
g4538
sg60
(lp4545
S'XCP ADMIN'
p4546
asbasbasbag53
(g69
g55
NtRp4547
(dp4548
g58
(dp4549
sg67
g3087
sg60
(lp4550
g53
(g74
g55
NtRp4551
(dp4552
g58
(dp4553
g78
g79
ssg67
g4547
sg60
(lp4554
g2277
asbag53
(g74
g55
NtRp4555
(dp4556
g58
(dp4557
g85
g86
ssg67
g4547
sg60
(lp4558
S':'
asbag53
(g74
g55
NtRp4559
(dp4560
g58
(dp4561
sg67
g4547
sg60
(lp4562
g53
(g54
g55
NtRp4563
(dp4564
g58
(dp4565
g66
I5
ssg67
g4559
sg60
(lp4566
g2290
asbasbasbag53
(g69
g55
NtRp4567
(dp4568
g58
(dp4569
sg67
g3087
sg60
(lp4570
g53
(g74
g55
NtRp4571
(dp4572
g58
(dp4573
g78
g79
ssg67
g4567
sg60
(lp4574
S'view'
p4575
asbag53
(g74
g55
NtRp4576
(dp4577
g58
(dp4578
g85
g86
ssg67
g4567
sg60
(lp4579
S':'
asbag53
(g74
g55
NtRp4580
(dp4581
g58
(dp4582
sg67
g4567
sg60
(lp4583
g53
(g54
g55
NtRp4584
(dp4585
g58
(dp4586
g66
I5
ssg67
g4580
sg60
(lp4587
S'listvm/index.html'
p4588
asbasbasbasbasbsS'locals'
p4589
(dp4590
S'self'
p4591
S'<socket._socketobject object at 0x05C84570>'
p4592
sg28
S"(('187.103.137.248', 443),)"
p4593
sssS'traceback'
p4594
S'Traceback (most recent call last):\n  File "gluon/restricted.py", line 204, in restricted\n  File "C:\\Users\\nilton\\Desktop\\scripts\\curso_de_python\\web2py\\applications\\xcpadmin\\controllers/listvm.py", line 26, in <module>\n  File "gluon/globals.py", line 172, in <lambda>\n  File "C:\\Users\\nilton\\Desktop\\scripts\\curso_de_python\\web2py\\applications\\xcpadmin\\controllers/listvm.py", line 17, in index\n  File "applications\\xcpadmin\\modules\\XenAPI.py", line 229, in __call__\n  File "applications\\xcpadmin\\modules\\XenAPI.py", line 133, in xenapi_request\n  File "xmlrpclib.pyc", line 1147, in __call__\n  File "xmlrpclib.pyc", line 1437, in __request\n  File "xmlrpclib.pyc", line 1183, in request\n  File "xmlrpclib.pyc", line 1297, in send_content\n  File "httplib.pyc", line 860, in endheaders\n  File "httplib.pyc", line 732, in _send_output\n  File "httplib.pyc", line 699, in send\n  File "httplib.pyc", line 1134, in connect\n  File "<string>", line 1, in connect\nerror: (10060, \'Operation timed out\')\n'
p4595
s.