(dp1
S'output'
p2
S"<type 'exceptions.TypeError'> <DateTime '19700101T00:00:00Z' at 29653c8> is not JSON serializable"
p3
sS'layer'
p4
S'C:\\Users\\nilton\\Desktop\\scripts\\curso_de_python\\web2py\\applications\\xcpadmin\\controllers/listvm.py'
p5
sS'code'
p6
S'# coding: utf8\n# tente algo como\n\nimport sys, time\nimport XenAPI\n\ndef index():\n    response.title = "XCP ADMIN"\n    url = \'http://192.168.20.192\'\n    username = \'root\'\n    password = \'123456\'\n    session = XenAPI.Session(url)\n    session.xenapi.login_with_password(username, password)\n    vms = session.xenapi.VM.get_all()\n    vm_list = {}\n    for vm in vms:\n        get = session.xenapi.VM.get_record(vm)\n        get["memory_static_max"] = str(( int(get["memory_static_max"]) / (1024 * 1024) ))\n        vm_list[vm] = get\n\n            \n\n    return dict(table=vm_list)\n    \n    \ndef get_data():\n    response.title = "XCP ADMIN"\n    url = \'http://192.168.20.192\'\n    username = \'root\'\n    password = \'123456\'\n    session = XenAPI.Session(url)\n    session.xenapi.login_with_password(username, password)\n    vms = session.xenapi.VM.get_all()\n    vm_list = {}\n    for vm in vms:\n        get = session.xenapi.VM.get_record(vm)\n        get["memory_static_max"] = str(( int(get["memory_static_max"]) / (1024 * 1024) ))\n        vm_list[vm] = get\n    \n    return response.json(vm_list)\n\nresponse._vars=response._caller(get_data)\n'
p7
sS'snapshot'
p8
(dp9
S'exception'
p10
(dp11
S'__hash__'
p12
S"<method-wrapper '__hash__' of exceptions.TypeError object at 0x05B178C8>"
p13
sS'__setattr__'
p14
S"<method-wrapper '__setattr__' of exceptions.TypeError object at 0x05B178C8>"
p15
sS'__reduce_ex__'
p16
S'<built-in method __reduce_ex__ of exceptions.TypeError object at 0x05B178C8>'
p17
sS'__getslice__'
p18
S"<method-wrapper '__getslice__' of exceptions.TypeError object at 0x05B178C8>"
p19
sS'__getitem__'
p20
S"<method-wrapper '__getitem__' of exceptions.TypeError object at 0x05B178C8>"
p21
sS'__setstate__'
p22
S'<built-in method __setstate__ of exceptions.TypeError object at 0x05B178C8>'
p23
sS'__reduce__'
p24
S'<built-in method __reduce__ of exceptions.TypeError object at 0x05B178C8>'
p25
sS'__str__'
p26
S"<method-wrapper '__str__' of exceptions.TypeError object at 0x05B178C8>"
p27
sS'args'
p28
S'("<DateTime \'19700101T00:00:00Z\' at 29653c8> is not JSON serializable",)'
p29
sS'__getattribute__'
p30
S"<method-wrapper '__getattribute__' of exceptions.TypeError object at 0x05B178C8>"
p31
sS'__class__'
p32
S"<type 'exceptions.TypeError'>"
p33
sS'__delattr__'
p34
S"<method-wrapper '__delattr__' of exceptions.TypeError object at 0x05B178C8>"
p35
sS'__repr__'
p36
S"<method-wrapper '__repr__' of exceptions.TypeError object at 0x05B178C8>"
p37
sS'__dict__'
p38
S'{}'
p39
sS'__doc__'
p40
S"'Inappropriate argument type.'"
p41
sS'__init__'
p42
S"<method-wrapper '__init__' of exceptions.TypeError object at 0x05B178C8>"
p43
sS'__new__'
p44
S'<built-in method __new__ of type object at 0x1E1CCD78>'
p45
ssS'evalue'
p46
S"<DateTime '19700101T00:00:00Z' at 29653c8> is not JSON serializable"
p47
sS'request'
p48
ccopy_reg
_reconstructor
p49
(cgluon.html
BEAUTIFY
p50
c__builtin__
object
p51
NtRp52
(dp53
S'attributes'
p54
(dp55
sS'components'
p56
(lp57
g49
(cgluon.html
TABLE
p58
g51
NtRp59
(dp60
g54
(dp61
S'level'
p62
I5
ssS'parent'
p63
Nsg56
(lp64
g49
(cgluon.html
TR
p65
g51
NtRp66
(dp67
g54
(dp68
sg63
g59
sg56
(lp69
g49
(cgluon.html
TD
p70
g51
NtRp71
(dp72
g54
(dp73
S'_style'
p74
S'font-weight:bold;vertical-align:top'
p75
ssg63
g66
sg56
(lp76
S'ajax'
p77
asbag49
(g70
g51
NtRp78
(dp79
g54
(dp80
S'_valign'
p81
S'top'
p82
ssg63
g66
sg56
(lp83
S':'
asbag49
(g70
g51
NtRp84
(dp85
g54
(dp86
sg63
g66
sg56
(lp87
g49
(g50
g51
NtRp88
(dp89
g54
(dp90
g62
I5
ssg63
g84
sg56
(lp91
S'False'
p92
asbasbasbag49
(g65
g51
NtRp93
(dp94
g54
(dp95
sg63
g59
sg56
(lp96
g49
(g70
g51
NtRp97
(dp98
g54
(dp99
g74
g75
ssg63
g93
sg56
(lp100
S'application'
p101
asbag49
(g70
g51
NtRp102
(dp103
g54
(dp104
g81
g82
ssg63
g93
sg56
(lp105
S':'
asbag49
(g70
g51
NtRp106
(dp107
g54
(dp108
sg63
g93
sg56
(lp109
g49
(g50
g51
NtRp110
(dp111
g54
(dp112
g62
I5
ssg63
g106
sg56
(lp113
S'xcpadmin'
p114
asbasbasbag49
(g65
g51
NtRp115
(dp116
g54
(dp117
sg63
g59
sg56
(lp118
g49
(g70
g51
NtRp119
(dp120
g54
(dp121
g74
g75
ssg63
g115
sg56
(lp122
g28
asbag49
(g70
g51
NtRp123
(dp124
g54
(dp125
g81
g82
ssg63
g115
sg56
(lp126
S':'
asbag49
(g70
g51
NtRp127
(dp128
g54
(dp129
sg63
g115
sg56
(lp130
g49
(g50
g51
NtRp131
(dp132
g54
(dp133
g62
I5
ssg63
g127
sg56
(lp134
g49
(g58
g51
NtRp135
(dp136
g54
(dp137
g62
I4
ssg63
Nsg56
(lp138
sbasbasbasbag49
(g65
g51
NtRp139
(dp140
g54
(dp141
sg63
g59
sg56
(lp142
g49
(g70
g51
NtRp143
(dp144
g54
(dp145
g74
g75
ssg63
g139
sg56
(lp146
S'body'
p147
asbag49
(g70
g51
NtRp148
(dp149
g54
(dp150
g81
g82
ssg63
g139
sg56
(lp151
S':'
asbag49
(g70
g51
NtRp152
(dp153
g54
(dp154
sg63
g139
sg56
(lp155
g49
(g50
g51
NtRp156
(dp157
g54
(dp158
g62
I5
ssg63
g152
sg56
(lp159
S'<cStringIO.StringO object at 0x06838AC0>'
p160
asbasbasbag49
(g65
g51
NtRp161
(dp162
g54
(dp163
sg63
g59
sg56
(lp164
g49
(g70
g51
NtRp165
(dp166
g54
(dp167
g74
g75
ssg63
g161
sg56
(lp168
S'client'
p169
asbag49
(g70
g51
NtRp170
(dp171
g54
(dp172
g81
g82
ssg63
g161
sg56
(lp173
S':'
asbag49
(g70
g51
NtRp174
(dp175
g54
(dp176
sg63
g161
sg56
(lp177
g49
(g50
g51
NtRp178
(dp179
g54
(dp180
g62
I5
ssg63
g174
sg56
(lp181
S'127.0.0.1'
p182
asbasbasbag49
(g65
g51
NtRp183
(dp184
g54
(dp185
sg63
g59
sg56
(lp186
g49
(g70
g51
NtRp187
(dp188
g54
(dp189
g74
g75
ssg63
g183
sg56
(lp190
S'controller'
p191
asbag49
(g70
g51
NtRp192
(dp193
g54
(dp194
g81
g82
ssg63
g183
sg56
(lp195
S':'
asbag49
(g70
g51
NtRp196
(dp197
g54
(dp198
sg63
g183
sg56
(lp199
g49
(g50
g51
NtRp200
(dp201
g54
(dp202
g62
I5
ssg63
g196
sg56
(lp203
S'listvm'
p204
asbasbasbag49
(g65
g51
NtRp205
(dp206
g54
(dp207
sg63
g59
sg56
(lp208
g49
(g70
g51
NtRp209
(dp210
g54
(dp211
g74
g75
ssg63
g205
sg56
(lp212
S'cookies'
p213
asbag49
(g70
g51
NtRp214
(dp215
g54
(dp216
g81
g82
ssg63
g205
sg56
(lp217
S':'
asbag49
(g70
g51
NtRp218
(dp219
g54
(dp220
sg63
g205
sg56
(lp221
g49
(g50
g51
NtRp222
(dp223
g54
(dp224
g62
I5
ssg63
g218
sg56
(lp225
g49
(g58
g51
NtRp226
(dp227
g54
(dp228
g62
I4
ssg63
Nsg56
(lp229
g49
(g65
g51
NtRp230
(dp231
g54
(dp232
sg63
g226
sg56
(lp233
g49
(g70
g51
NtRp234
(dp235
g54
(dp236
g74
g75
ssg63
g230
sg56
(lp237
S'session_id_admin'
p238
asbag49
(g70
g51
NtRp239
(dp240
g54
(dp241
g81
g82
ssg63
g230
sg56
(lp242
S':'
asbag49
(g70
g51
NtRp243
(dp244
g54
(dp245
sg63
g230
sg56
(lp246
g49
(g50
g51
NtRp247
(dp248
g54
(dp249
g62
I4
ssg63
g243
sg56
(lp250
g49
(g58
g51
NtRp251
(dp252
g54
(dp253
g62
I3
ssg63
Nsg56
(lp254
g49
(g65
g51
NtRp255
(dp256
g54
(dp257
sg63
g251
sg56
(lp258
g49
(g70
g51
NtRp259
(dp260
g54
(dp261
g74
g75
ssg63
g255
sg56
(lp262
S'comment'
p263
asbag49
(g70
g51
NtRp264
(dp265
g54
(dp266
g81
g82
ssg63
g255
sg56
(lp267
S':'
asbag49
(g70
g51
NtRp268
(dp269
g54
(dp270
sg63
g255
sg56
(lp271
g49
(g50
g51
NtRp272
(dp273
g54
(dp274
g62
I3
ssg63
g268
sg56
(lp275
S''
asbasbasbag49
(g65
g51
NtRp276
(dp277
g54
(dp278
sg63
g251
sg56
(lp279
g49
(g70
g51
NtRp280
(dp281
g54
(dp282
g74
g75
ssg63
g276
sg56
(lp283
S'domain'
p284
asbag49
(g70
g51
NtRp285
(dp286
g54
(dp287
g81
g82
ssg63
g276
sg56
(lp288
S':'
asbag49
(g70
g51
NtRp289
(dp290
g54
(dp291
sg63
g276
sg56
(lp292
g49
(g50
g51
NtRp293
(dp294
g54
(dp295
g62
I3
ssg63
g289
sg56
(lp296
S''
asbasbasbag49
(g65
g51
NtRp297
(dp298
g54
(dp299
sg63
g251
sg56
(lp300
g49
(g70
g51
NtRp301
(dp302
g54
(dp303
g74
g75
ssg63
g297
sg56
(lp304
S'expires'
p305
asbag49
(g70
g51
NtRp306
(dp307
g54
(dp308
g81
g82
ssg63
g297
sg56
(lp309
S':'
asbag49
(g70
g51
NtRp310
(dp311
g54
(dp312
sg63
g297
sg56
(lp313
g49
(g50
g51
NtRp314
(dp315
g54
(dp316
g62
I3
ssg63
g310
sg56
(lp317
S''
asbasbasbag49
(g65
g51
NtRp318
(dp319
g54
(dp320
sg63
g251
sg56
(lp321
g49
(g70
g51
NtRp322
(dp323
g54
(dp324
g74
g75
ssg63
g318
sg56
(lp325
S'max-age'
p326
asbag49
(g70
g51
NtRp327
(dp328
g54
(dp329
g81
g82
ssg63
g318
sg56
(lp330
S':'
asbag49
(g70
g51
NtRp331
(dp332
g54
(dp333
sg63
g318
sg56
(lp334
g49
(g50
g51
NtRp335
(dp336
g54
(dp337
g62
I3
ssg63
g331
sg56
(lp338
S''
asbasbasbag49
(g65
g51
NtRp339
(dp340
g54
(dp341
sg63
g251
sg56
(lp342
g49
(g70
g51
NtRp343
(dp344
g54
(dp345
g74
g75
ssg63
g339
sg56
(lp346
S'path'
p347
asbag49
(g70
g51
NtRp348
(dp349
g54
(dp350
g81
g82
ssg63
g339
sg56
(lp351
S':'
asbag49
(g70
g51
NtRp352
(dp353
g54
(dp354
sg63
g339
sg56
(lp355
g49
(g50
g51
NtRp356
(dp357
g54
(dp358
g62
I3
ssg63
g352
sg56
(lp359
S''
asbasbasbag49
(g65
g51
NtRp360
(dp361
g54
(dp362
sg63
g251
sg56
(lp363
g49
(g70
g51
NtRp364
(dp365
g54
(dp366
g74
g75
ssg63
g360
sg56
(lp367
S'secure'
p368
asbag49
(g70
g51
NtRp369
(dp370
g54
(dp371
g81
g82
ssg63
g360
sg56
(lp372
S':'
asbag49
(g70
g51
NtRp373
(dp374
g54
(dp375
sg63
g360
sg56
(lp376
g49
(g50
g51
NtRp377
(dp378
g54
(dp379
g62
I3
ssg63
g373
sg56
(lp380
S''
asbasbasbag49
(g65
g51
NtRp381
(dp382
g54
(dp383
sg63
g251
sg56
(lp384
g49
(g70
g51
NtRp385
(dp386
g54
(dp387
g74
g75
ssg63
g381
sg56
(lp388
S'version'
p389
asbag49
(g70
g51
NtRp390
(dp391
g54
(dp392
g81
g82
ssg63
g381
sg56
(lp393
S':'
asbag49
(g70
g51
NtRp394
(dp395
g54
(dp396
sg63
g381
sg56
(lp397
g49
(g50
g51
NtRp398
(dp399
g54
(dp400
g62
I3
ssg63
g394
sg56
(lp401
S''
asbasbasbasbasbasbasbag49
(g65
g51
NtRp402
(dp403
g54
(dp404
sg63
g226
sg56
(lp405
g49
(g70
g51
NtRp406
(dp407
g54
(dp408
g74
g75
ssg63
g402
sg56
(lp409
S'session_id_welcome'
p410
asbag49
(g70
g51
NtRp411
(dp412
g54
(dp413
g81
g82
ssg63
g402
sg56
(lp414
S':'
asbag49
(g70
g51
NtRp415
(dp416
g54
(dp417
sg63
g402
sg56
(lp418
g49
(g50
g51
NtRp419
(dp420
g54
(dp421
g62
I4
ssg63
g415
sg56
(lp422
g49
(g58
g51
NtRp423
(dp424
g54
(dp425
g62
I3
ssg63
Nsg56
(lp426
g49
(g65
g51
NtRp427
(dp428
g54
(dp429
sg63
g423
sg56
(lp430
g49
(g70
g51
NtRp431
(dp432
g54
(dp433
g74
g75
ssg63
g427
sg56
(lp434
g263
asbag49
(g70
g51
NtRp435
(dp436
g54
(dp437
g81
g82
ssg63
g427
sg56
(lp438
S':'
asbag49
(g70
g51
NtRp439
(dp440
g54
(dp441
sg63
g427
sg56
(lp442
g49
(g50
g51
NtRp443
(dp444
g54
(dp445
g62
I3
ssg63
g439
sg56
(lp446
S''
asbasbasbag49
(g65
g51
NtRp447
(dp448
g54
(dp449
sg63
g423
sg56
(lp450
g49
(g70
g51
NtRp451
(dp452
g54
(dp453
g74
g75
ssg63
g447
sg56
(lp454
g284
asbag49
(g70
g51
NtRp455
(dp456
g54
(dp457
g81
g82
ssg63
g447
sg56
(lp458
S':'
asbag49
(g70
g51
NtRp459
(dp460
g54
(dp461
sg63
g447
sg56
(lp462
g49
(g50
g51
NtRp463
(dp464
g54
(dp465
g62
I3
ssg63
g459
sg56
(lp466
S''
asbasbasbag49
(g65
g51
NtRp467
(dp468
g54
(dp469
sg63
g423
sg56
(lp470
g49
(g70
g51
NtRp471
(dp472
g54
(dp473
g74
g75
ssg63
g467
sg56
(lp474
g305
asbag49
(g70
g51
NtRp475
(dp476
g54
(dp477
g81
g82
ssg63
g467
sg56
(lp478
S':'
asbag49
(g70
g51
NtRp479
(dp480
g54
(dp481
sg63
g467
sg56
(lp482
g49
(g50
g51
NtRp483
(dp484
g54
(dp485
g62
I3
ssg63
g479
sg56
(lp486
S''
asbasbasbag49
(g65
g51
NtRp487
(dp488
g54
(dp489
sg63
g423
sg56
(lp490
g49
(g70
g51
NtRp491
(dp492
g54
(dp493
g74
g75
ssg63
g487
sg56
(lp494
g326
asbag49
(g70
g51
NtRp495
(dp496
g54
(dp497
g81
g82
ssg63
g487
sg56
(lp498
S':'
asbag49
(g70
g51
NtRp499
(dp500
g54
(dp501
sg63
g487
sg56
(lp502
g49
(g50
g51
NtRp503
(dp504
g54
(dp505
g62
I3
ssg63
g499
sg56
(lp506
S''
asbasbasbag49
(g65
g51
NtRp507
(dp508
g54
(dp509
sg63
g423
sg56
(lp510
g49
(g70
g51
NtRp511
(dp512
g54
(dp513
g74
g75
ssg63
g507
sg56
(lp514
g347
asbag49
(g70
g51
NtRp515
(dp516
g54
(dp517
g81
g82
ssg63
g507
sg56
(lp518
S':'
asbag49
(g70
g51
NtRp519
(dp520
g54
(dp521
sg63
g507
sg56
(lp522
g49
(g50
g51
NtRp523
(dp524
g54
(dp525
g62
I3
ssg63
g519
sg56
(lp526
S''
asbasbasbag49
(g65
g51
NtRp527
(dp528
g54
(dp529
sg63
g423
sg56
(lp530
g49
(g70
g51
NtRp531
(dp532
g54
(dp533
g74
g75
ssg63
g527
sg56
(lp534
g368
asbag49
(g70
g51
NtRp535
(dp536
g54
(dp537
g81
g82
ssg63
g527
sg56
(lp538
S':'
asbag49
(g70
g51
NtRp539
(dp540
g54
(dp541
sg63
g527
sg56
(lp542
g49
(g50
g51
NtRp543
(dp544
g54
(dp545
g62
I3
ssg63
g539
sg56
(lp546
S''
asbasbasbag49
(g65
g51
NtRp547
(dp548
g54
(dp549
sg63
g423
sg56
(lp550
g49
(g70
g51
NtRp551
(dp552
g54
(dp553
g74
g75
ssg63
g547
sg56
(lp554
g389
asbag49
(g70
g51
NtRp555
(dp556
g54
(dp557
g81
g82
ssg63
g547
sg56
(lp558
S':'
asbag49
(g70
g51
NtRp559
(dp560
g54
(dp561
sg63
g547
sg56
(lp562
g49
(g50
g51
NtRp563
(dp564
g54
(dp565
g62
I3
ssg63
g559
sg56
(lp566
S''
asbasbasbasbasbasbasbag49
(g65
g51
NtRp567
(dp568
g54
(dp569
sg63
g226
sg56
(lp570
g49
(g70
g51
NtRp571
(dp572
g54
(dp573
g74
g75
ssg63
g567
sg56
(lp574
S'session_id_xcpadmin'
p575
asbag49
(g70
g51
NtRp576
(dp577
g54
(dp578
g81
g82
ssg63
g567
sg56
(lp579
S':'
asbag49
(g70
g51
NtRp580
(dp581
g54
(dp582
sg63
g567
sg56
(lp583
g49
(g50
g51
NtRp584
(dp585
g54
(dp586
g62
I4
ssg63
g580
sg56
(lp587
g49
(g58
g51
NtRp588
(dp589
g54
(dp590
g62
I3
ssg63
Nsg56
(lp591
g49
(g65
g51
NtRp592
(dp593
g54
(dp594
sg63
g588
sg56
(lp595
g49
(g70
g51
NtRp596
(dp597
g54
(dp598
g74
g75
ssg63
g592
sg56
(lp599
g263
asbag49
(g70
g51
NtRp600
(dp601
g54
(dp602
g81
g82
ssg63
g592
sg56
(lp603
S':'
asbag49
(g70
g51
NtRp604
(dp605
g54
(dp606
sg63
g592
sg56
(lp607
g49
(g50
g51
NtRp608
(dp609
g54
(dp610
g62
I3
ssg63
g604
sg56
(lp611
S''
asbasbasbag49
(g65
g51
NtRp612
(dp613
g54
(dp614
sg63
g588
sg56
(lp615
g49
(g70
g51
NtRp616
(dp617
g54
(dp618
g74
g75
ssg63
g612
sg56
(lp619
g284
asbag49
(g70
g51
NtRp620
(dp621
g54
(dp622
g81
g82
ssg63
g612
sg56
(lp623
S':'
asbag49
(g70
g51
NtRp624
(dp625
g54
(dp626
sg63
g612
sg56
(lp627
g49
(g50
g51
NtRp628
(dp629
g54
(dp630
g62
I3
ssg63
g624
sg56
(lp631
S''
asbasbasbag49
(g65
g51
NtRp632
(dp633
g54
(dp634
sg63
g588
sg56
(lp635
g49
(g70
g51
NtRp636
(dp637
g54
(dp638
g74
g75
ssg63
g632
sg56
(lp639
g305
asbag49
(g70
g51
NtRp640
(dp641
g54
(dp642
g81
g82
ssg63
g632
sg56
(lp643
S':'
asbag49
(g70
g51
NtRp644
(dp645
g54
(dp646
sg63
g632
sg56
(lp647
g49
(g50
g51
NtRp648
(dp649
g54
(dp650
g62
I3
ssg63
g644
sg56
(lp651
S''
asbasbasbag49
(g65
g51
NtRp652
(dp653
g54
(dp654
sg63
g588
sg56
(lp655
g49
(g70
g51
NtRp656
(dp657
g54
(dp658
g74
g75
ssg63
g652
sg56
(lp659
g326
asbag49
(g70
g51
NtRp660
(dp661
g54
(dp662
g81
g82
ssg63
g652
sg56
(lp663
S':'
asbag49
(g70
g51
NtRp664
(dp665
g54
(dp666
sg63
g652
sg56
(lp667
g49
(g50
g51
NtRp668
(dp669
g54
(dp670
g62
I3
ssg63
g664
sg56
(lp671
S''
asbasbasbag49
(g65
g51
NtRp672
(dp673
g54
(dp674
sg63
g588
sg56
(lp675
g49
(g70
g51
NtRp676
(dp677
g54
(dp678
g74
g75
ssg63
g672
sg56
(lp679
g347
asbag49
(g70
g51
NtRp680
(dp681
g54
(dp682
g81
g82
ssg63
g672
sg56
(lp683
S':'
asbag49
(g70
g51
NtRp684
(dp685
g54
(dp686
sg63
g672
sg56
(lp687
g49
(g50
g51
NtRp688
(dp689
g54
(dp690
g62
I3
ssg63
g684
sg56
(lp691
S''
asbasbasbag49
(g65
g51
NtRp692
(dp693
g54
(dp694
sg63
g588
sg56
(lp695
g49
(g70
g51
NtRp696
(dp697
g54
(dp698
g74
g75
ssg63
g692
sg56
(lp699
g368
asbag49
(g70
g51
NtRp700
(dp701
g54
(dp702
g81
g82
ssg63
g692
sg56
(lp703
S':'
asbag49
(g70
g51
NtRp704
(dp705
g54
(dp706
sg63
g692
sg56
(lp707
g49
(g50
g51
NtRp708
(dp709
g54
(dp710
g62
I3
ssg63
g704
sg56
(lp711
S''
asbasbasbag49
(g65
g51
NtRp712
(dp713
g54
(dp714
sg63
g588
sg56
(lp715
g49
(g70
g51
NtRp716
(dp717
g54
(dp718
g74
g75
ssg63
g712
sg56
(lp719
g389
asbag49
(g70
g51
NtRp720
(dp721
g54
(dp722
g81
g82
ssg63
g712
sg56
(lp723
S':'
asbag49
(g70
g51
NtRp724
(dp725
g54
(dp726
sg63
g712
sg56
(lp727
g49
(g50
g51
NtRp728
(dp729
g54
(dp730
g62
I3
ssg63
g724
sg56
(lp731
S''
asbasbasbasbasbasbasbasbasbasbasbag49
(g65
g51
NtRp732
(dp733
g54
(dp734
sg63
g59
sg56
(lp735
g49
(g70
g51
NtRp736
(dp737
g54
(dp738
g74
g75
ssg63
g732
sg56
(lp739
S'env'
p740
asbag49
(g70
g51
NtRp741
(dp742
g54
(dp743
g81
g82
ssg63
g732
sg56
(lp744
S':'
asbag49
(g70
g51
NtRp745
(dp746
g54
(dp747
sg63
g732
sg56
(lp748
g49
(g50
g51
NtRp749
(dp750
g54
(dp751
g62
I5
ssg63
g745
sg56
(lp752
g49
(g58
g51
NtRp753
(dp754
g54
(dp755
g62
I4
ssg63
Nsg56
(lp756
g49
(g65
g51
NtRp757
(dp758
g54
(dp759
sg63
g753
sg56
(lp760
g49
(g70
g51
NtRp761
(dp762
g54
(dp763
g74
g75
ssg63
g757
sg56
(lp764
S'app_folders'
p765
asbag49
(g70
g51
NtRp766
(dp767
g54
(dp768
g81
g82
ssg63
g757
sg56
(lp769
S':'
asbag49
(g70
g51
NtRp770
(dp771
g54
(dp772
sg63
g757
sg56
(lp773
g49
(g50
g51
NtRp774
(dp775
g54
(dp776
g62
I4
ssg63
g770
sg56
(lp777
S"set(['C:\\\\Users\\\\nilton\\\\Desktop\\\\scripts\\\\curso_de_python\\\\web2py\\\\applications\\\\admin\\\\', 'C:\\\\Users\\\\nilton\\\\Desktop\\\\scripts\\\\curso_de_python\\\\web2py\\\\applications\\\\xcpadmin\\\\', 'C:\\\\Users\\\\nilton\\\\Desktop\\\\scripts\\\\curso_de_python\\\\web2py\\\\applications\\\\welcome\\\\'])"
p778
asbasbasbag49
(g65
g51
NtRp779
(dp780
g54
(dp781
sg63
g753
sg56
(lp782
g49
(g70
g51
NtRp783
(dp784
g54
(dp785
g74
g75
ssg63
g779
sg56
(lp786
S'applications_parent'
p787
asbag49
(g70
g51
NtRp788
(dp789
g54
(dp790
g81
g82
ssg63
g779
sg56
(lp791
S':'
asbag49
(g70
g51
NtRp792
(dp793
g54
(dp794
sg63
g779
sg56
(lp795
g49
(g50
g51
NtRp796
(dp797
g54
(dp798
g62
I4
ssg63
g792
sg56
(lp799
S'C:\\Users\\nilton\\Desktop\\scripts\\curso_de_python\\web2py'
p800
asbasbasbag49
(g65
g51
NtRp801
(dp802
g54
(dp803
sg63
g753
sg56
(lp804
g49
(g70
g51
NtRp805
(dp806
g54
(dp807
g74
g75
ssg63
g801
sg56
(lp808
S'cmd_args'
p809
asbag49
(g70
g51
NtRp810
(dp811
g54
(dp812
g81
g82
ssg63
g801
sg56
(lp813
S':'
asbag49
(g70
g51
NtRp814
(dp815
g54
(dp816
sg63
g801
sg56
(lp817
g49
(g50
g51
NtRp818
(dp819
g54
(dp820
g62
I4
ssg63
g814
sg56
(lp821
g49
(g58
g51
NtRp822
(dp823
g54
(dp824
g62
I3
ssg63
Nsg56
(lp825
sbasbasbasbag49
(g65
g51
NtRp826
(dp827
g54
(dp828
sg63
g753
sg56
(lp829
g49
(g70
g51
NtRp830
(dp831
g54
(dp832
g74
g75
ssg63
g826
sg56
(lp833
S'cmd_options'
p834
asbag49
(g70
g51
NtRp835
(dp836
g54
(dp837
g81
g82
ssg63
g826
sg56
(lp838
S':'
asbag49
(g70
g51
NtRp839
(dp840
g54
(dp841
sg63
g826
sg56
(lp842
g49
(g50
g51
NtRp843
(dp844
g54
(dp845
g62
I4
ssg63
g839
sg56
(lp846
S"<Values at 0x27674b8: {'verbose': False, 'ip': '127.0.0.1', 'shutdown_timeout': 5, 'taskbar': False, 'nocron': False, 'pid_filename': 'httpserver.pid', 'maxthreads': None, 'softcron': False, 'server_name': 'nilton-NOT', 'bpython': False, 'nogui': False, 'port': 8000, 'extcron': False, 'debuglevel': 30, 'test': None, 'folder': 'C:\\\\Users\\\\nilton\\\\Desktop\\\\scripts\\\\curso_de_python\\\\web2py', 'config': '', 'import_models': False, 'winservice': '', 'shell': None, 'run': '', 'log_filename': 'httpserver.log', 'args': [''], 'socket_timeout': 1, 'ssl_ca_certificate': None, 'scheduler': None, 'profiler_filename': None, 'ssl_private_key': '', 'password': '<ask>', 'request_queue_size': 5, 'ssl_certificate': '', 'cronjob': False, 'numthreads': None, 'quiet': False, 'interfaces': None, 'minthreads': None, 'timeout': 10, 'plain': False, 'nobanner': False}>"
p847
asbasbasbag49
(g65
g51
NtRp848
(dp849
g54
(dp850
sg63
g753
sg56
(lp851
g49
(g70
g51
NtRp852
(dp853
g54
(dp854
g74
g75
ssg63
g848
sg56
(lp855
S'db_sessions'
p856
asbag49
(g70
g51
NtRp857
(dp858
g54
(dp859
g81
g82
ssg63
g848
sg56
(lp860
S':'
asbag49
(g70
g51
NtRp861
(dp862
g54
(dp863
sg63
g848
sg56
(lp864
g49
(g50
g51
NtRp865
(dp866
g54
(dp867
g62
I4
ssg63
g861
sg56
(lp868
S'set([])'
p869
asbasbasbag49
(g65
g51
NtRp870
(dp871
g54
(dp872
sg63
g753
sg56
(lp873
g49
(g70
g51
NtRp874
(dp875
g54
(dp876
g74
g75
ssg63
g870
sg56
(lp877
S'debugging'
p878
asbag49
(g70
g51
NtRp879
(dp880
g54
(dp881
g81
g82
ssg63
g870
sg56
(lp882
S':'
asbag49
(g70
g51
NtRp883
(dp884
g54
(dp885
sg63
g870
sg56
(lp886
g49
(g50
g51
NtRp887
(dp888
g54
(dp889
g62
I4
ssg63
g883
sg56
(lp890
g92
asbasbasbag49
(g65
g51
NtRp891
(dp892
g54
(dp893
sg63
g753
sg56
(lp894
g49
(g70
g51
NtRp895
(dp896
g54
(dp897
g74
g75
ssg63
g891
sg56
(lp898
S'gluon_parent'
p899
asbag49
(g70
g51
NtRp900
(dp901
g54
(dp902
g81
g82
ssg63
g891
sg56
(lp903
S':'
asbag49
(g70
g51
NtRp904
(dp905
g54
(dp906
sg63
g891
sg56
(lp907
g49
(g50
g51
NtRp908
(dp909
g54
(dp910
g62
I4
ssg63
g904
sg56
(lp911
S'C:\\Users\\nilton\\Desktop\\scripts\\curso_de_python\\web2py'
p912
asbasbasbag49
(g65
g51
NtRp913
(dp914
g54
(dp915
sg63
g753
sg56
(lp916
g49
(g70
g51
NtRp917
(dp918
g54
(dp919
g74
g75
ssg63
g913
sg56
(lp920
S'http_accept'
p921
asbag49
(g70
g51
NtRp922
(dp923
g54
(dp924
g81
g82
ssg63
g913
sg56
(lp925
S':'
asbag49
(g70
g51
NtRp926
(dp927
g54
(dp928
sg63
g913
sg56
(lp929
g49
(g50
g51
NtRp930
(dp931
g54
(dp932
g62
I4
ssg63
g926
sg56
(lp933
S'text/html,application/xhtml+xml,application/xml;q=0.9,*/*;q=0.8'
p934
asbasbasbag49
(g65
g51
NtRp935
(dp936
g54
(dp937
sg63
g753
sg56
(lp938
g49
(g70
g51
NtRp939
(dp940
g54
(dp941
g74
g75
ssg63
g935
sg56
(lp942
S'http_accept_charset'
p943
asbag49
(g70
g51
NtRp944
(dp945
g54
(dp946
g81
g82
ssg63
g935
sg56
(lp947
S':'
asbag49
(g70
g51
NtRp948
(dp949
g54
(dp950
sg63
g935
sg56
(lp951
g49
(g50
g51
NtRp952
(dp953
g54
(dp954
g62
I4
ssg63
g948
sg56
(lp955
S'ISO-8859-1,utf-8;q=0.7,*;q=0.7'
p956
asbasbasbag49
(g65
g51
NtRp957
(dp958
g54
(dp959
sg63
g753
sg56
(lp960
g49
(g70
g51
NtRp961
(dp962
g54
(dp963
g74
g75
ssg63
g957
sg56
(lp964
S'http_accept_encoding'
p965
asbag49
(g70
g51
NtRp966
(dp967
g54
(dp968
g81
g82
ssg63
g957
sg56
(lp969
S':'
asbag49
(g70
g51
NtRp970
(dp971
g54
(dp972
sg63
g957
sg56
(lp973
g49
(g50
g51
NtRp974
(dp975
g54
(dp976
g62
I4
ssg63
g970
sg56
(lp977
S'gzip, deflate'
p978
asbasbasbag49
(g65
g51
NtRp979
(dp980
g54
(dp981
sg63
g753
sg56
(lp982
g49
(g70
g51
NtRp983
(dp984
g54
(dp985
g74
g75
ssg63
g979
sg56
(lp986
S'http_accept_language'
p987
asbag49
(g70
g51
NtRp988
(dp989
g54
(dp990
g81
g82
ssg63
g979
sg56
(lp991
S':'
asbag49
(g70
g51
NtRp992
(dp993
g54
(dp994
sg63
g979
sg56
(lp995
g49
(g50
g51
NtRp996
(dp997
g54
(dp998
g62
I4
ssg63
g992
sg56
(lp999
S'pt-br,pt;q=0.8,en-us;q=0.5,en;q=0.3'
p1000
asbasbasbag49
(g65
g51
NtRp1001
(dp1002
g54
(dp1003
sg63
g753
sg56
(lp1004
g49
(g70
g51
NtRp1005
(dp1006
g54
(dp1007
g74
g75
ssg63
g1001
sg56
(lp1008
S'http_connection'
p1009
asbag49
(g70
g51
NtRp1010
(dp1011
g54
(dp1012
g81
g82
ssg63
g1001
sg56
(lp1013
S':'
asbag49
(g70
g51
NtRp1014
(dp1015
g54
(dp1016
sg63
g1001
sg56
(lp1017
g49
(g50
g51
NtRp1018
(dp1019
g54
(dp1020
g62
I4
ssg63
g1014
sg56
(lp1021
S'keep-alive'
p1022
asbasbasbag49
(g65
g51
NtRp1023
(dp1024
g54
(dp1025
sg63
g753
sg56
(lp1026
g49
(g70
g51
NtRp1027
(dp1028
g54
(dp1029
g74
g75
ssg63
g1023
sg56
(lp1030
S'http_cookie'
p1031
asbag49
(g70
g51
NtRp1032
(dp1033
g54
(dp1034
g81
g82
ssg63
g1023
sg56
(lp1035
S':'
asbag49
(g70
g51
NtRp1036
(dp1037
g54
(dp1038
sg63
g1023
sg56
(lp1039
g49
(g50
g51
NtRp1040
(dp1041
g54
(dp1042
g62
I4
ssg63
g1036
sg56
(lp1043
S'session_id_welcome=127.0.0.1-e2ee4819-196b-48ee-b9a6-c158d9c6823f; session_id_xcpadmin=127.0.0.1-0cb88dcb-67b2-4748-8846-25f35503a0e7; session_id_admin=127.0.0.1-4133fdb4-b4c5-4fa8-b713-fdd8b0e34bbb'
p1044
asbasbasbag49
(g65
g51
NtRp1045
(dp1046
g54
(dp1047
sg63
g753
sg56
(lp1048
g49
(g70
g51
NtRp1049
(dp1050
g54
(dp1051
g74
g75
ssg63
g1045
sg56
(lp1052
S'http_host'
p1053
asbag49
(g70
g51
NtRp1054
(dp1055
g54
(dp1056
g81
g82
ssg63
g1045
sg56
(lp1057
S':'
asbag49
(g70
g51
NtRp1058
(dp1059
g54
(dp1060
sg63
g1045
sg56
(lp1061
g49
(g50
g51
NtRp1062
(dp1063
g54
(dp1064
g62
I4
ssg63
g1058
sg56
(lp1065
S'127.0.0.1:8000'
p1066
asbasbasbag49
(g65
g51
NtRp1067
(dp1068
g54
(dp1069
sg63
g753
sg56
(lp1070
g49
(g70
g51
NtRp1071
(dp1072
g54
(dp1073
g74
g75
ssg63
g1067
sg56
(lp1074
S'http_user_agent'
p1075
asbag49
(g70
g51
NtRp1076
(dp1077
g54
(dp1078
g81
g82
ssg63
g1067
sg56
(lp1079
S':'
asbag49
(g70
g51
NtRp1080
(dp1081
g54
(dp1082
sg63
g1067
sg56
(lp1083
g49
(g50
g51
NtRp1084
(dp1085
g54
(dp1086
g62
I4
ssg63
g1080
sg56
(lp1087
S'Mozilla/5.0 (Windows NT 6.1; rv:9.0.1) Gecko/20100101 Firefox/9.0.1'
p1088
asbasbasbag49
(g65
g51
NtRp1089
(dp1090
g54
(dp1091
sg63
g753
sg56
(lp1092
g49
(g70
g51
NtRp1093
(dp1094
g54
(dp1095
g74
g75
ssg63
g1089
sg56
(lp1096
S'is_jython'
p1097
asbag49
(g70
g51
NtRp1098
(dp1099
g54
(dp1100
g81
g82
ssg63
g1089
sg56
(lp1101
S':'
asbag49
(g70
g51
NtRp1102
(dp1103
g54
(dp1104
sg63
g1089
sg56
(lp1105
g49
(g50
g51
NtRp1106
(dp1107
g54
(dp1108
g62
I4
ssg63
g1102
sg56
(lp1109
g92
asbasbasbag49
(g65
g51
NtRp1110
(dp1111
g54
(dp1112
sg63
g753
sg56
(lp1113
g49
(g70
g51
NtRp1114
(dp1115
g54
(dp1116
g74
g75
ssg63
g1110
sg56
(lp1117
S'is_pypy'
p1118
asbag49
(g70
g51
NtRp1119
(dp1120
g54
(dp1121
g81
g82
ssg63
g1110
sg56
(lp1122
S':'
asbag49
(g70
g51
NtRp1123
(dp1124
g54
(dp1125
sg63
g1110
sg56
(lp1126
g49
(g50
g51
NtRp1127
(dp1128
g54
(dp1129
g62
I4
ssg63
g1123
sg56
(lp1130
g92
asbasbasbag49
(g65
g51
NtRp1131
(dp1132
g54
(dp1133
sg63
g753
sg56
(lp1134
g49
(g70
g51
NtRp1135
(dp1136
g54
(dp1137
g74
g75
ssg63
g1131
sg56
(lp1138
S'path_info'
p1139
asbag49
(g70
g51
NtRp1140
(dp1141
g54
(dp1142
g81
g82
ssg63
g1131
sg56
(lp1143
S':'
asbag49
(g70
g51
NtRp1144
(dp1145
g54
(dp1146
sg63
g1131
sg56
(lp1147
g49
(g50
g51
NtRp1148
(dp1149
g54
(dp1150
g62
I4
ssg63
g1144
sg56
(lp1151
S'/xcpadmin/listvm/get_data'
p1152
asbasbasbag49
(g65
g51
NtRp1153
(dp1154
g54
(dp1155
sg63
g753
sg56
(lp1156
g49
(g70
g51
NtRp1157
(dp1158
g54
(dp1159
g74
g75
ssg63
g1153
sg56
(lp1160
S'query_string'
p1161
asbag49
(g70
g51
NtRp1162
(dp1163
g54
(dp1164
g81
g82
ssg63
g1153
sg56
(lp1165
S':'
asbag49
(g70
g51
NtRp1166
(dp1167
g54
(dp1168
sg63
g1153
sg56
(lp1169
g49
(g50
g51
NtRp1170
(dp1171
g54
(dp1172
g62
I4
ssg63
g1166
sg56
(lp1173
S''
asbasbasbag49
(g65
g51
NtRp1174
(dp1175
g54
(dp1176
sg63
g753
sg56
(lp1177
g49
(g70
g51
NtRp1178
(dp1179
g54
(dp1180
g74
g75
ssg63
g1174
sg56
(lp1181
S'remote_addr'
p1182
asbag49
(g70
g51
NtRp1183
(dp1184
g54
(dp1185
g81
g82
ssg63
g1174
sg56
(lp1186
S':'
asbag49
(g70
g51
NtRp1187
(dp1188
g54
(dp1189
sg63
g1174
sg56
(lp1190
g49
(g50
g51
NtRp1191
(dp1192
g54
(dp1193
g62
I4
ssg63
g1187
sg56
(lp1194
g182
asbasbasbag49
(g65
g51
NtRp1195
(dp1196
g54
(dp1197
sg63
g753
sg56
(lp1198
g49
(g70
g51
NtRp1199
(dp1200
g54
(dp1201
g74
g75
ssg63
g1195
sg56
(lp1202
S'remote_port'
p1203
asbag49
(g70
g51
NtRp1204
(dp1205
g54
(dp1206
g81
g82
ssg63
g1195
sg56
(lp1207
S':'
asbag49
(g70
g51
NtRp1208
(dp1209
g54
(dp1210
sg63
g1195
sg56
(lp1211
g49
(g50
g51
NtRp1212
(dp1213
g54
(dp1214
g62
I4
ssg63
g1208
sg56
(lp1215
S'58632'
p1216
asbasbasbag49
(g65
g51
NtRp1217
(dp1218
g54
(dp1219
sg63
g753
sg56
(lp1220
g49
(g70
g51
NtRp1221
(dp1222
g54
(dp1223
g74
g75
ssg63
g1217
sg56
(lp1224
S'request_method'
p1225
asbag49
(g70
g51
NtRp1226
(dp1227
g54
(dp1228
g81
g82
ssg63
g1217
sg56
(lp1229
S':'
asbag49
(g70
g51
NtRp1230
(dp1231
g54
(dp1232
sg63
g1217
sg56
(lp1233
g49
(g50
g51
NtRp1234
(dp1235
g54
(dp1236
g62
I4
ssg63
g1230
sg56
(lp1237
S'GET'
p1238
asbasbasbag49
(g65
g51
NtRp1239
(dp1240
g54
(dp1241
sg63
g753
sg56
(lp1242
g49
(g70
g51
NtRp1243
(dp1244
g54
(dp1245
g74
g75
ssg63
g1239
sg56
(lp1246
S'script_name'
p1247
asbag49
(g70
g51
NtRp1248
(dp1249
g54
(dp1250
g81
g82
ssg63
g1239
sg56
(lp1251
S':'
asbag49
(g70
g51
NtRp1252
(dp1253
g54
(dp1254
sg63
g1239
sg56
(lp1255
g49
(g50
g51
NtRp1256
(dp1257
g54
(dp1258
g62
I4
ssg63
g1252
sg56
(lp1259
S''
asbasbasbag49
(g65
g51
NtRp1260
(dp1261
g54
(dp1262
sg63
g753
sg56
(lp1263
g49
(g70
g51
NtRp1264
(dp1265
g54
(dp1266
g74
g75
ssg63
g1260
sg56
(lp1267
S'server_name'
p1268
asbag49
(g70
g51
NtRp1269
(dp1270
g54
(dp1271
g81
g82
ssg63
g1260
sg56
(lp1272
S':'
asbag49
(g70
g51
NtRp1273
(dp1274
g54
(dp1275
sg63
g1260
sg56
(lp1276
g49
(g50
g51
NtRp1277
(dp1278
g54
(dp1279
g62
I4
ssg63
g1273
sg56
(lp1280
S'nilton-NOT'
p1281
asbasbasbag49
(g65
g51
NtRp1282
(dp1283
g54
(dp1284
sg63
g753
sg56
(lp1285
g49
(g70
g51
NtRp1286
(dp1287
g54
(dp1288
g74
g75
ssg63
g1282
sg56
(lp1289
S'server_port'
p1290
asbag49
(g70
g51
NtRp1291
(dp1292
g54
(dp1293
g81
g82
ssg63
g1282
sg56
(lp1294
S':'
asbag49
(g70
g51
NtRp1295
(dp1296
g54
(dp1297
sg63
g1282
sg56
(lp1298
g49
(g50
g51
NtRp1299
(dp1300
g54
(dp1301
g62
I4
ssg63
g1295
sg56
(lp1302
S'8000'
p1303
asbasbasbag49
(g65
g51
NtRp1304
(dp1305
g54
(dp1306
sg63
g753
sg56
(lp1307
g49
(g70
g51
NtRp1308
(dp1309
g54
(dp1310
g74
g75
ssg63
g1304
sg56
(lp1311
S'server_protocol'
p1312
asbag49
(g70
g51
NtRp1313
(dp1314
g54
(dp1315
g81
g82
ssg63
g1304
sg56
(lp1316
S':'
asbag49
(g70
g51
NtRp1317
(dp1318
g54
(dp1319
sg63
g1304
sg56
(lp1320
g49
(g50
g51
NtRp1321
(dp1322
g54
(dp1323
g62
I4
ssg63
g1317
sg56
(lp1324
S'HTTP/1.1'
p1325
asbasbasbag49
(g65
g51
NtRp1326
(dp1327
g54
(dp1328
sg63
g753
sg56
(lp1329
g49
(g70
g51
NtRp1330
(dp1331
g54
(dp1332
g74
g75
ssg63
g1326
sg56
(lp1333
S'server_software'
p1334
asbag49
(g70
g51
NtRp1335
(dp1336
g54
(dp1337
g81
g82
ssg63
g1326
sg56
(lp1338
S':'
asbag49
(g70
g51
NtRp1339
(dp1340
g54
(dp1341
sg63
g1326
sg56
(lp1342
g49
(g50
g51
NtRp1343
(dp1344
g54
(dp1345
g62
I4
ssg63
g1339
sg56
(lp1346
S'Rocket 1.2.4'
p1347
asbasbasbag49
(g65
g51
NtRp1348
(dp1349
g54
(dp1350
sg63
g753
sg56
(lp1351
g49
(g70
g51
NtRp1352
(dp1353
g54
(dp1354
g74
g75
ssg63
g1348
sg56
(lp1355
S'web2py_crontype'
p1356
asbag49
(g70
g51
NtRp1357
(dp1358
g54
(dp1359
g81
g82
ssg63
g1348
sg56
(lp1360
S':'
asbag49
(g70
g51
NtRp1361
(dp1362
g54
(dp1363
sg63
g1348
sg56
(lp1364
g49
(g50
g51
NtRp1365
(dp1366
g54
(dp1367
g62
I4
ssg63
g1361
sg56
(lp1368
S'hard'
p1369
asbasbasbag49
(g65
g51
NtRp1370
(dp1371
g54
(dp1372
sg63
g753
sg56
(lp1373
g49
(g70
g51
NtRp1374
(dp1375
g54
(dp1376
g74
g75
ssg63
g1370
sg56
(lp1377
S'web2py_path'
p1378
asbag49
(g70
g51
NtRp1379
(dp1380
g54
(dp1381
g81
g82
ssg63
g1370
sg56
(lp1382
S':'
asbag49
(g70
g51
NtRp1383
(dp1384
g54
(dp1385
sg63
g1370
sg56
(lp1386
g49
(g50
g51
NtRp1387
(dp1388
g54
(dp1389
g62
I4
ssg63
g1383
sg56
(lp1390
g800
asbasbasbag49
(g65
g51
NtRp1391
(dp1392
g54
(dp1393
sg63
g753
sg56
(lp1394
g49
(g70
g51
NtRp1395
(dp1396
g54
(dp1397
g74
g75
ssg63
g1391
sg56
(lp1398
S'web2py_version'
p1399
asbag49
(g70
g51
NtRp1400
(dp1401
g54
(dp1402
g81
g82
ssg63
g1391
sg56
(lp1403
S':'
asbag49
(g70
g51
NtRp1404
(dp1405
g54
(dp1406
sg63
g1391
sg56
(lp1407
g49
(g50
g51
NtRp1408
(dp1409
g54
(dp1410
g62
I4
ssg63
g1404
sg56
(lp1411
g49
(g58
g51
NtRp1412
(dp1413
g54
(dp1414
g62
I3
ssg63
Nsg56
(lp1415
g49
(g65
g51
NtRp1416
(dp1417
g54
(dp1418
sg63
g1412
sg56
(lp1419
g49
(g70
g51
NtRp1420
(dp1421
g54
(dp1422
sg63
g1416
sg56
(lp1423
g49
(g50
g51
NtRp1424
(dp1425
g54
(dp1426
g62
I3
ssg63
g1420
sg56
(lp1427
S'1'
asbasbasbag49
(g65
g51
NtRp1428
(dp1429
g54
(dp1430
sg63
g1412
sg56
(lp1431
g49
(g70
g51
NtRp1432
(dp1433
g54
(dp1434
sg63
g1428
sg56
(lp1435
g49
(g50
g51
NtRp1436
(dp1437
g54
(dp1438
g62
I3
ssg63
g1432
sg56
(lp1439
S'99'
p1440
asbasbasbag49
(g65
g51
NtRp1441
(dp1442
g54
(dp1443
sg63
g1412
sg56
(lp1444
g49
(g70
g51
NtRp1445
(dp1446
g54
(dp1447
sg63
g1441
sg56
(lp1448
g49
(g50
g51
NtRp1449
(dp1450
g54
(dp1451
g62
I3
ssg63
g1445
sg56
(lp1452
S'4'
asbasbasbag49
(g65
g51
NtRp1453
(dp1454
g54
(dp1455
sg63
g1412
sg56
(lp1456
g49
(g70
g51
NtRp1457
(dp1458
g54
(dp1459
sg63
g1453
sg56
(lp1460
g49
(g50
g51
NtRp1461
(dp1462
g54
(dp1463
g62
I3
ssg63
g1457
sg56
(lp1464
S'datetime.datetime(2011, 12, 14, 14, 46, 14)'
p1465
asbasbasbag49
(g65
g51
NtRp1466
(dp1467
g54
(dp1468
sg63
g1412
sg56
(lp1469
g49
(g70
g51
NtRp1470
(dp1471
g54
(dp1472
sg63
g1466
sg56
(lp1473
g49
(g50
g51
NtRp1474
(dp1475
g54
(dp1476
g62
I3
ssg63
g1470
sg56
(lp1477
S'stable'
p1478
asbasbasbasbasbasbasbag49
(g65
g51
NtRp1479
(dp1480
g54
(dp1481
sg63
g753
sg56
(lp1482
g49
(g70
g51
NtRp1483
(dp1484
g54
(dp1485
g74
g75
ssg63
g1479
sg56
(lp1486
S'wsgi_errors'
p1487
asbag49
(g70
g51
NtRp1488
(dp1489
g54
(dp1490
g81
g82
ssg63
g1479
sg56
(lp1491
S':'
asbag49
(g70
g51
NtRp1492
(dp1493
g54
(dp1494
sg63
g1479
sg56
(lp1495
g49
(g50
g51
NtRp1496
(dp1497
g54
(dp1498
g62
I4
ssg63
g1492
sg56
(lp1499
S'<__main__.Stderr object at 0x0124A670>'
p1500
asbasbasbag49
(g65
g51
NtRp1501
(dp1502
g54
(dp1503
sg63
g753
sg56
(lp1504
g49
(g70
g51
NtRp1505
(dp1506
g54
(dp1507
g74
g75
ssg63
g1501
sg56
(lp1508
S'wsgi_file_wrapper'
p1509
asbag49
(g70
g51
NtRp1510
(dp1511
g54
(dp1512
g81
g82
ssg63
g1501
sg56
(lp1513
S':'
asbag49
(g70
g51
NtRp1514
(dp1515
g54
(dp1516
sg63
g1501
sg56
(lp1517
g49
(g50
g51
NtRp1518
(dp1519
g54
(dp1520
g62
I4
ssg63
g1514
sg56
(lp1521
S'<class wsgiref.util.FileWrapper at 0x01BDBBA0>'
p1522
asbasbasbag49
(g65
g51
NtRp1523
(dp1524
g54
(dp1525
sg63
g753
sg56
(lp1526
g49
(g70
g51
NtRp1527
(dp1528
g54
(dp1529
g74
g75
ssg63
g1523
sg56
(lp1530
S'wsgi_input'
p1531
asbag49
(g70
g51
NtRp1532
(dp1533
g54
(dp1534
g81
g82
ssg63
g1523
sg56
(lp1535
S':'
asbag49
(g70
g51
NtRp1536
(dp1537
g54
(dp1538
sg63
g1523
sg56
(lp1539
g49
(g50
g51
NtRp1540
(dp1541
g54
(dp1542
g62
I4
ssg63
g1536
sg56
(lp1543
S'<socket._fileobject object at 0x05876070>'
p1544
asbasbasbag49
(g65
g51
NtRp1545
(dp1546
g54
(dp1547
sg63
g753
sg56
(lp1548
g49
(g70
g51
NtRp1549
(dp1550
g54
(dp1551
g74
g75
ssg63
g1545
sg56
(lp1552
S'wsgi_multiprocess'
p1553
asbag49
(g70
g51
NtRp1554
(dp1555
g54
(dp1556
g81
g82
ssg63
g1545
sg56
(lp1557
S':'
asbag49
(g70
g51
NtRp1558
(dp1559
g54
(dp1560
sg63
g1545
sg56
(lp1561
g49
(g50
g51
NtRp1562
(dp1563
g54
(dp1564
g62
I4
ssg63
g1558
sg56
(lp1565
g92
asbasbasbag49
(g65
g51
NtRp1566
(dp1567
g54
(dp1568
sg63
g753
sg56
(lp1569
g49
(g70
g51
NtRp1570
(dp1571
g54
(dp1572
g74
g75
ssg63
g1566
sg56
(lp1573
S'wsgi_multithread'
p1574
asbag49
(g70
g51
NtRp1575
(dp1576
g54
(dp1577
g81
g82
ssg63
g1566
sg56
(lp1578
S':'
asbag49
(g70
g51
NtRp1579
(dp1580
g54
(dp1581
sg63
g1566
sg56
(lp1582
g49
(g50
g51
NtRp1583
(dp1584
g54
(dp1585
g62
I4
ssg63
g1579
sg56
(lp1586
S'True'
p1587
asbasbasbag49
(g65
g51
NtRp1588
(dp1589
g54
(dp1590
sg63
g753
sg56
(lp1591
g49
(g70
g51
NtRp1592
(dp1593
g54
(dp1594
g74
g75
ssg63
g1588
sg56
(lp1595
S'wsgi_run_once'
p1596
asbag49
(g70
g51
NtRp1597
(dp1598
g54
(dp1599
g81
g82
ssg63
g1588
sg56
(lp1600
S':'
asbag49
(g70
g51
NtRp1601
(dp1602
g54
(dp1603
sg63
g1588
sg56
(lp1604
g49
(g50
g51
NtRp1605
(dp1606
g54
(dp1607
g62
I4
ssg63
g1601
sg56
(lp1608
g92
asbasbasbag49
(g65
g51
NtRp1609
(dp1610
g54
(dp1611
sg63
g753
sg56
(lp1612
g49
(g70
g51
NtRp1613
(dp1614
g54
(dp1615
g74
g75
ssg63
g1609
sg56
(lp1616
S'wsgi_url_scheme'
p1617
asbag49
(g70
g51
NtRp1618
(dp1619
g54
(dp1620
g81
g82
ssg63
g1609
sg56
(lp1621
S':'
asbag49
(g70
g51
NtRp1622
(dp1623
g54
(dp1624
sg63
g1609
sg56
(lp1625
g49
(g50
g51
NtRp1626
(dp1627
g54
(dp1628
g62
I4
ssg63
g1622
sg56
(lp1629
S'http'
p1630
asbasbasbag49
(g65
g51
NtRp1631
(dp1632
g54
(dp1633
sg63
g753
sg56
(lp1634
g49
(g70
g51
NtRp1635
(dp1636
g54
(dp1637
g74
g75
ssg63
g1631
sg56
(lp1638
S'wsgi_version'
p1639
asbag49
(g70
g51
NtRp1640
(dp1641
g54
(dp1642
g81
g82
ssg63
g1631
sg56
(lp1643
S':'
asbag49
(g70
g51
NtRp1644
(dp1645
g54
(dp1646
sg63
g1631
sg56
(lp1647
g49
(g50
g51
NtRp1648
(dp1649
g54
(dp1650
g62
I4
ssg63
g1644
sg56
(lp1651
g49
(g58
g51
NtRp1652
(dp1653
g54
(dp1654
g62
I3
ssg63
Nsg56
(lp1655
g49
(g65
g51
NtRp1656
(dp1657
g54
(dp1658
sg63
g1652
sg56
(lp1659
g49
(g70
g51
NtRp1660
(dp1661
g54
(dp1662
sg63
g1656
sg56
(lp1663
g49
(g50
g51
NtRp1664
(dp1665
g54
(dp1666
g62
I3
ssg63
g1660
sg56
(lp1667
S'1'
asbasbasbag49
(g65
g51
NtRp1668
(dp1669
g54
(dp1670
sg63
g1652
sg56
(lp1671
g49
(g70
g51
NtRp1672
(dp1673
g54
(dp1674
sg63
g1668
sg56
(lp1675
g49
(g50
g51
NtRp1676
(dp1677
g54
(dp1678
g62
I3
ssg63
g1672
sg56
(lp1679
S'0'
asbasbasbasbasbasbasbasbasbasbasbag49
(g65
g51
NtRp1680
(dp1681
g54
(dp1682
sg63
g59
sg56
(lp1683
g49
(g70
g51
NtRp1684
(dp1685
g54
(dp1686
g74
g75
ssg63
g1680
sg56
(lp1687
S'extension'
p1688
asbag49
(g70
g51
NtRp1689
(dp1690
g54
(dp1691
g81
g82
ssg63
g1680
sg56
(lp1692
S':'
asbag49
(g70
g51
NtRp1693
(dp1694
g54
(dp1695
sg63
g1680
sg56
(lp1696
g49
(g50
g51
NtRp1697
(dp1698
g54
(dp1699
g62
I5
ssg63
g1693
sg56
(lp1700
S'html'
p1701
asbasbasbag49
(g65
g51
NtRp1702
(dp1703
g54
(dp1704
sg63
g59
sg56
(lp1705
g49
(g70
g51
NtRp1706
(dp1707
g54
(dp1708
g74
g75
ssg63
g1702
sg56
(lp1709
S'folder'
p1710
asbag49
(g70
g51
NtRp1711
(dp1712
g54
(dp1713
g81
g82
ssg63
g1702
sg56
(lp1714
S':'
asbag49
(g70
g51
NtRp1715
(dp1716
g54
(dp1717
sg63
g1702
sg56
(lp1718
g49
(g50
g51
NtRp1719
(dp1720
g54
(dp1721
g62
I5
ssg63
g1715
sg56
(lp1722
S'C:\\Users\\nilton\\Desktop\\scripts\\curso_de_python\\web2py\\applications\\xcpadmin\\'
p1723
asbasbasbag49
(g65
g51
NtRp1724
(dp1725
g54
(dp1726
sg63
g59
sg56
(lp1727
g49
(g70
g51
NtRp1728
(dp1729
g54
(dp1730
g74
g75
ssg63
g1724
sg56
(lp1731
S'function'
p1732
asbag49
(g70
g51
NtRp1733
(dp1734
g54
(dp1735
g81
g82
ssg63
g1724
sg56
(lp1736
S':'
asbag49
(g70
g51
NtRp1737
(dp1738
g54
(dp1739
sg63
g1724
sg56
(lp1740
g49
(g50
g51
NtRp1741
(dp1742
g54
(dp1743
g62
I5
ssg63
g1737
sg56
(lp1744
S'get_data'
p1745
asbasbasbag49
(g65
g51
NtRp1746
(dp1747
g54
(dp1748
sg63
g59
sg56
(lp1749
g49
(g70
g51
NtRp1750
(dp1751
g54
(dp1752
g74
g75
ssg63
g1746
sg56
(lp1753
S'get_vars'
p1754
asbag49
(g70
g51
NtRp1755
(dp1756
g54
(dp1757
g81
g82
ssg63
g1746
sg56
(lp1758
S':'
asbag49
(g70
g51
NtRp1759
(dp1760
g54
(dp1761
sg63
g1746
sg56
(lp1762
g49
(g50
g51
NtRp1763
(dp1764
g54
(dp1765
g62
I5
ssg63
g1759
sg56
(lp1766
g49
(g58
g51
NtRp1767
(dp1768
g54
(dp1769
g62
I4
ssg63
Nsg56
(lp1770
sbasbasbasbag49
(g65
g51
NtRp1771
(dp1772
g54
(dp1773
sg63
g59
sg56
(lp1774
g49
(g70
g51
NtRp1775
(dp1776
g54
(dp1777
g74
g75
ssg63
g1771
sg56
(lp1778
S'global_settings'
p1779
asbag49
(g70
g51
NtRp1780
(dp1781
g54
(dp1782
g81
g82
ssg63
g1771
sg56
(lp1783
S':'
asbag49
(g70
g51
NtRp1784
(dp1785
g54
(dp1786
sg63
g1771
sg56
(lp1787
g49
(g50
g51
NtRp1788
(dp1789
g54
(dp1790
g62
I5
ssg63
g1784
sg56
(lp1791
g49
(g58
g51
NtRp1792
(dp1793
g54
(dp1794
g62
I4
ssg63
Nsg56
(lp1795
g49
(g65
g51
NtRp1796
(dp1797
g54
(dp1798
sg63
g1792
sg56
(lp1799
g49
(g70
g51
NtRp1800
(dp1801
g54
(dp1802
g74
g75
ssg63
g1796
sg56
(lp1803
g765
asbag49
(g70
g51
NtRp1804
(dp1805
g54
(dp1806
g81
g82
ssg63
g1796
sg56
(lp1807
S':'
asbag49
(g70
g51
NtRp1808
(dp1809
g54
(dp1810
sg63
g1796
sg56
(lp1811
g49
(g50
g51
NtRp1812
(dp1813
g54
(dp1814
g62
I4
ssg63
g1808
sg56
(lp1815
S"set(['C:\\\\Users\\\\nilton\\\\Desktop\\\\scripts\\\\curso_de_python\\\\web2py\\\\applications\\\\admin\\\\', 'C:\\\\Users\\\\nilton\\\\Desktop\\\\scripts\\\\curso_de_python\\\\web2py\\\\applications\\\\xcpadmin\\\\', 'C:\\\\Users\\\\nilton\\\\Desktop\\\\scripts\\\\curso_de_python\\\\web2py\\\\applications\\\\welcome\\\\'])"
p1816
asbasbasbag49
(g65
g51
NtRp1817
(dp1818
g54
(dp1819
sg63
g1792
sg56
(lp1820
g49
(g70
g51
NtRp1821
(dp1822
g54
(dp1823
g74
g75
ssg63
g1817
sg56
(lp1824
g787
asbag49
(g70
g51
NtRp1825
(dp1826
g54
(dp1827
g81
g82
ssg63
g1817
sg56
(lp1828
S':'
asbag49
(g70
g51
NtRp1829
(dp1830
g54
(dp1831
sg63
g1817
sg56
(lp1832
g49
(g50
g51
NtRp1833
(dp1834
g54
(dp1835
g62
I4
ssg63
g1829
sg56
(lp1836
g800
asbasbasbag49
(g65
g51
NtRp1837
(dp1838
g54
(dp1839
sg63
g1792
sg56
(lp1840
g49
(g70
g51
NtRp1841
(dp1842
g54
(dp1843
g74
g75
ssg63
g1837
sg56
(lp1844
g809
asbag49
(g70
g51
NtRp1845
(dp1846
g54
(dp1847
g81
g82
ssg63
g1837
sg56
(lp1848
S':'
asbag49
(g70
g51
NtRp1849
(dp1850
g54
(dp1851
sg63
g1837
sg56
(lp1852
g49
(g50
g51
NtRp1853
(dp1854
g54
(dp1855
g62
I4
ssg63
g1849
sg56
(lp1856
g49
(g58
g51
NtRp1857
(dp1858
g54
(dp1859
g62
I3
ssg63
Nsg56
(lp1860
sbasbasbasbag49
(g65
g51
NtRp1861
(dp1862
g54
(dp1863
sg63
g1792
sg56
(lp1864
g49
(g70
g51
NtRp1865
(dp1866
g54
(dp1867
g74
g75
ssg63
g1861
sg56
(lp1868
g834
asbag49
(g70
g51
NtRp1869
(dp1870
g54
(dp1871
g81
g82
ssg63
g1861
sg56
(lp1872
S':'
asbag49
(g70
g51
NtRp1873
(dp1874
g54
(dp1875
sg63
g1861
sg56
(lp1876
g49
(g50
g51
NtRp1877
(dp1878
g54
(dp1879
g62
I4
ssg63
g1873
sg56
(lp1880
S"<Values at 0x27674b8: {'verbose': False, 'ip': '127.0.0.1', 'shutdown_timeout': 5, 'taskbar': False, 'nocron': False, 'pid_filename': 'httpserver.pid', 'maxthreads': None, 'softcron': False, 'server_name': 'nilton-NOT', 'bpython': False, 'nogui': False, 'port': 8000, 'extcron': False, 'debuglevel': 30, 'test': None, 'folder': 'C:\\\\Users\\\\nilton\\\\Desktop\\\\scripts\\\\curso_de_python\\\\web2py', 'config': '', 'import_models': False, 'winservice': '', 'shell': None, 'run': '', 'log_filename': 'httpserver.log', 'args': [''], 'socket_timeout': 1, 'ssl_ca_certificate': None, 'scheduler': None, 'profiler_filename': None, 'ssl_private_key': '', 'password': '<ask>', 'request_queue_size': 5, 'ssl_certificate': '', 'cronjob': False, 'numthreads': None, 'quiet': False, 'interfaces': None, 'minthreads': None, 'timeout': 10, 'plain': False, 'nobanner': False}>"
p1881
asbasbasbag49
(g65
g51
NtRp1882
(dp1883
g54
(dp1884
sg63
g1792
sg56
(lp1885
g49
(g70
g51
NtRp1886
(dp1887
g54
(dp1888
g74
g75
ssg63
g1882
sg56
(lp1889
g856
asbag49
(g70
g51
NtRp1890
(dp1891
g54
(dp1892
g81
g82
ssg63
g1882
sg56
(lp1893
S':'
asbag49
(g70
g51
NtRp1894
(dp1895
g54
(dp1896
sg63
g1882
sg56
(lp1897
g49
(g50
g51
NtRp1898
(dp1899
g54
(dp1900
g62
I4
ssg63
g1894
sg56
(lp1901
S'set([])'
p1902
asbasbasbag49
(g65
g51
NtRp1903
(dp1904
g54
(dp1905
sg63
g1792
sg56
(lp1906
g49
(g70
g51
NtRp1907
(dp1908
g54
(dp1909
g74
g75
ssg63
g1903
sg56
(lp1910
g878
asbag49
(g70
g51
NtRp1911
(dp1912
g54
(dp1913
g81
g82
ssg63
g1903
sg56
(lp1914
S':'
asbag49
(g70
g51
NtRp1915
(dp1916
g54
(dp1917
sg63
g1903
sg56
(lp1918
g49
(g50
g51
NtRp1919
(dp1920
g54
(dp1921
g62
I4
ssg63
g1915
sg56
(lp1922
g92
asbasbasbag49
(g65
g51
NtRp1923
(dp1924
g54
(dp1925
sg63
g1792
sg56
(lp1926
g49
(g70
g51
NtRp1927
(dp1928
g54
(dp1929
g74
g75
ssg63
g1923
sg56
(lp1930
g899
asbag49
(g70
g51
NtRp1931
(dp1932
g54
(dp1933
g81
g82
ssg63
g1923
sg56
(lp1934
S':'
asbag49
(g70
g51
NtRp1935
(dp1936
g54
(dp1937
sg63
g1923
sg56
(lp1938
g49
(g50
g51
NtRp1939
(dp1940
g54
(dp1941
g62
I4
ssg63
g1935
sg56
(lp1942
g912
asbasbasbag49
(g65
g51
NtRp1943
(dp1944
g54
(dp1945
sg63
g1792
sg56
(lp1946
g49
(g70
g51
NtRp1947
(dp1948
g54
(dp1949
g74
g75
ssg63
g1943
sg56
(lp1950
g1097
asbag49
(g70
g51
NtRp1951
(dp1952
g54
(dp1953
g81
g82
ssg63
g1943
sg56
(lp1954
S':'
asbag49
(g70
g51
NtRp1955
(dp1956
g54
(dp1957
sg63
g1943
sg56
(lp1958
g49
(g50
g51
NtRp1959
(dp1960
g54
(dp1961
g62
I4
ssg63
g1955
sg56
(lp1962
g92
asbasbasbag49
(g65
g51
NtRp1963
(dp1964
g54
(dp1965
sg63
g1792
sg56
(lp1966
g49
(g70
g51
NtRp1967
(dp1968
g54
(dp1969
g74
g75
ssg63
g1963
sg56
(lp1970
g1118
asbag49
(g70
g51
NtRp1971
(dp1972
g54
(dp1973
g81
g82
ssg63
g1963
sg56
(lp1974
S':'
asbag49
(g70
g51
NtRp1975
(dp1976
g54
(dp1977
sg63
g1963
sg56
(lp1978
g49
(g50
g51
NtRp1979
(dp1980
g54
(dp1981
g62
I4
ssg63
g1975
sg56
(lp1982
g92
asbasbasbag49
(g65
g51
NtRp1983
(dp1984
g54
(dp1985
sg63
g1792
sg56
(lp1986
g49
(g70
g51
NtRp1987
(dp1988
g54
(dp1989
g74
g75
ssg63
g1983
sg56
(lp1990
g1356
asbag49
(g70
g51
NtRp1991
(dp1992
g54
(dp1993
g81
g82
ssg63
g1983
sg56
(lp1994
S':'
asbag49
(g70
g51
NtRp1995
(dp1996
g54
(dp1997
sg63
g1983
sg56
(lp1998
g49
(g50
g51
NtRp1999
(dp2000
g54
(dp2001
g62
I4
ssg63
g1995
sg56
(lp2002
g1369
asbasbasbag49
(g65
g51
NtRp2003
(dp2004
g54
(dp2005
sg63
g1792
sg56
(lp2006
g49
(g70
g51
NtRp2007
(dp2008
g54
(dp2009
g74
g75
ssg63
g2003
sg56
(lp2010
g1399
asbag49
(g70
g51
NtRp2011
(dp2012
g54
(dp2013
g81
g82
ssg63
g2003
sg56
(lp2014
S':'
asbag49
(g70
g51
NtRp2015
(dp2016
g54
(dp2017
sg63
g2003
sg56
(lp2018
g49
(g50
g51
NtRp2019
(dp2020
g54
(dp2021
g62
I4
ssg63
g2015
sg56
(lp2022
g49
(g58
g51
NtRp2023
(dp2024
g54
(dp2025
g62
I3
ssg63
Nsg56
(lp2026
g49
(g65
g51
NtRp2027
(dp2028
g54
(dp2029
sg63
g2023
sg56
(lp2030
g49
(g70
g51
NtRp2031
(dp2032
g54
(dp2033
sg63
g2027
sg56
(lp2034
g49
(g50
g51
NtRp2035
(dp2036
g54
(dp2037
g62
I3
ssg63
g2031
sg56
(lp2038
S'1'
asbasbasbag49
(g65
g51
NtRp2039
(dp2040
g54
(dp2041
sg63
g2023
sg56
(lp2042
g49
(g70
g51
NtRp2043
(dp2044
g54
(dp2045
sg63
g2039
sg56
(lp2046
g49
(g50
g51
NtRp2047
(dp2048
g54
(dp2049
g62
I3
ssg63
g2043
sg56
(lp2050
S'99'
p2051
asbasbasbag49
(g65
g51
NtRp2052
(dp2053
g54
(dp2054
sg63
g2023
sg56
(lp2055
g49
(g70
g51
NtRp2056
(dp2057
g54
(dp2058
sg63
g2052
sg56
(lp2059
g49
(g50
g51
NtRp2060
(dp2061
g54
(dp2062
g62
I3
ssg63
g2056
sg56
(lp2063
S'4'
asbasbasbag49
(g65
g51
NtRp2064
(dp2065
g54
(dp2066
sg63
g2023
sg56
(lp2067
g49
(g70
g51
NtRp2068
(dp2069
g54
(dp2070
sg63
g2064
sg56
(lp2071
g49
(g50
g51
NtRp2072
(dp2073
g54
(dp2074
g62
I3
ssg63
g2068
sg56
(lp2075
S'datetime.datetime(2011, 12, 14, 14, 46, 14)'
p2076
asbasbasbag49
(g65
g51
NtRp2077
(dp2078
g54
(dp2079
sg63
g2023
sg56
(lp2080
g49
(g70
g51
NtRp2081
(dp2082
g54
(dp2083
sg63
g2077
sg56
(lp2084
g49
(g50
g51
NtRp2085
(dp2086
g54
(dp2087
g62
I3
ssg63
g2081
sg56
(lp2088
g1478
asbasbasbasbasbasbasbasbasbasbasbag49
(g65
g51
NtRp2089
(dp2090
g54
(dp2091
sg63
g59
sg56
(lp2092
g49
(g70
g51
NtRp2093
(dp2094
g54
(dp2095
g74
g75
ssg63
g2089
sg56
(lp2096
S'is_https'
p2097
asbag49
(g70
g51
NtRp2098
(dp2099
g54
(dp2100
g81
g82
ssg63
g2089
sg56
(lp2101
S':'
asbag49
(g70
g51
NtRp2102
(dp2103
g54
(dp2104
sg63
g2089
sg56
(lp2105
g49
(g50
g51
NtRp2106
(dp2107
g54
(dp2108
g62
I5
ssg63
g2102
sg56
(lp2109
g92
asbasbasbag49
(g65
g51
NtRp2110
(dp2111
g54
(dp2112
sg63
g59
sg56
(lp2113
g49
(g70
g51
NtRp2114
(dp2115
g54
(dp2116
g74
g75
ssg63
g2110
sg56
(lp2117
S'is_local'
p2118
asbag49
(g70
g51
NtRp2119
(dp2120
g54
(dp2121
g81
g82
ssg63
g2110
sg56
(lp2122
S':'
asbag49
(g70
g51
NtRp2123
(dp2124
g54
(dp2125
sg63
g2110
sg56
(lp2126
g49
(g50
g51
NtRp2127
(dp2128
g54
(dp2129
g62
I5
ssg63
g2123
sg56
(lp2130
g1587
asbasbasbag49
(g65
g51
NtRp2131
(dp2132
g54
(dp2133
sg63
g59
sg56
(lp2134
g49
(g70
g51
NtRp2135
(dp2136
g54
(dp2137
g74
g75
ssg63
g2131
sg56
(lp2138
S'is_restful'
p2139
asbag49
(g70
g51
NtRp2140
(dp2141
g54
(dp2142
g81
g82
ssg63
g2131
sg56
(lp2143
S':'
asbag49
(g70
g51
NtRp2144
(dp2145
g54
(dp2146
sg63
g2131
sg56
(lp2147
g49
(g50
g51
NtRp2148
(dp2149
g54
(dp2150
g62
I5
ssg63
g2144
sg56
(lp2151
g92
asbasbasbag49
(g65
g51
NtRp2152
(dp2153
g54
(dp2154
sg63
g59
sg56
(lp2155
g49
(g70
g51
NtRp2156
(dp2157
g54
(dp2158
g74
g75
ssg63
g2152
sg56
(lp2159
S'now'
p2160
asbag49
(g70
g51
NtRp2161
(dp2162
g54
(dp2163
g81
g82
ssg63
g2152
sg56
(lp2164
S':'
asbag49
(g70
g51
NtRp2165
(dp2166
g54
(dp2167
sg63
g2152
sg56
(lp2168
g49
(g50
g51
NtRp2169
(dp2170
g54
(dp2171
g62
I5
ssg63
g2165
sg56
(lp2172
S'datetime.datetime(2012, 1, 24, 13, 39, 15, 114000)'
p2173
asbasbasbag49
(g65
g51
NtRp2174
(dp2175
g54
(dp2176
sg63
g59
sg56
(lp2177
g49
(g70
g51
NtRp2178
(dp2179
g54
(dp2180
g74
g75
ssg63
g2174
sg56
(lp2181
S'post_vars'
p2182
asbag49
(g70
g51
NtRp2183
(dp2184
g54
(dp2185
g81
g82
ssg63
g2174
sg56
(lp2186
S':'
asbag49
(g70
g51
NtRp2187
(dp2188
g54
(dp2189
sg63
g2174
sg56
(lp2190
g49
(g50
g51
NtRp2191
(dp2192
g54
(dp2193
g62
I5
ssg63
g2187
sg56
(lp2194
g49
(g58
g51
NtRp2195
(dp2196
g54
(dp2197
g62
I4
ssg63
Nsg56
(lp2198
sbasbasbasbag49
(g65
g51
NtRp2199
(dp2200
g54
(dp2201
sg63
g59
sg56
(lp2202
g49
(g70
g51
NtRp2203
(dp2204
g54
(dp2205
g74
g75
ssg63
g2199
sg56
(lp2206
S'url'
p2207
asbag49
(g70
g51
NtRp2208
(dp2209
g54
(dp2210
g81
g82
ssg63
g2199
sg56
(lp2211
S':'
asbag49
(g70
g51
NtRp2212
(dp2213
g54
(dp2214
sg63
g2199
sg56
(lp2215
g49
(g50
g51
NtRp2216
(dp2217
g54
(dp2218
g62
I5
ssg63
g2212
sg56
(lp2219
S'/xcpadmin/listvm/get_data'
p2220
asbasbasbag49
(g65
g51
NtRp2221
(dp2222
g54
(dp2223
sg63
g59
sg56
(lp2224
g49
(g70
g51
NtRp2225
(dp2226
g54
(dp2227
g74
g75
ssg63
g2221
sg56
(lp2228
S'utcnow'
p2229
asbag49
(g70
g51
NtRp2230
(dp2231
g54
(dp2232
g81
g82
ssg63
g2221
sg56
(lp2233
S':'
asbag49
(g70
g51
NtRp2234
(dp2235
g54
(dp2236
sg63
g2221
sg56
(lp2237
g49
(g50
g51
NtRp2238
(dp2239
g54
(dp2240
g62
I5
ssg63
g2234
sg56
(lp2241
S'datetime.datetime(2012, 1, 24, 15, 39, 15, 114000)'
p2242
asbasbasbag49
(g65
g51
NtRp2243
(dp2244
g54
(dp2245
sg63
g59
sg56
(lp2246
g49
(g70
g51
NtRp2247
(dp2248
g54
(dp2249
g74
g75
ssg63
g2243
sg56
(lp2250
S'uuid'
p2251
asbag49
(g70
g51
NtRp2252
(dp2253
g54
(dp2254
g81
g82
ssg63
g2243
sg56
(lp2255
S':'
asbag49
(g70
g51
NtRp2256
(dp2257
g54
(dp2258
sg63
g2243
sg56
(lp2259
g49
(g50
g51
NtRp2260
(dp2261
g54
(dp2262
g62
I5
ssg63
g2256
sg56
(lp2263
S'xcpadmin/127.0.0.1.2012-01-24.13-39-15.232cbe59-2d1a-47af-9118-5b62fbb3b304'
p2264
asbasbasbag49
(g65
g51
NtRp2265
(dp2266
g54
(dp2267
sg63
g59
sg56
(lp2268
g49
(g70
g51
NtRp2269
(dp2270
g54
(dp2271
g74
g75
ssg63
g2265
sg56
(lp2272
S'vars'
p2273
asbag49
(g70
g51
NtRp2274
(dp2275
g54
(dp2276
g81
g82
ssg63
g2265
sg56
(lp2277
S':'
asbag49
(g70
g51
NtRp2278
(dp2279
g54
(dp2280
sg63
g2265
sg56
(lp2281
g49
(g50
g51
NtRp2282
(dp2283
g54
(dp2284
g62
I5
ssg63
g2278
sg56
(lp2285
g49
(g58
g51
NtRp2286
(dp2287
g54
(dp2288
g62
I4
ssg63
Nsg56
(lp2289
sbasbasbasbag49
(g65
g51
NtRp2290
(dp2291
g54
(dp2292
sg63
g59
sg56
(lp2293
g49
(g70
g51
NtRp2294
(dp2295
g54
(dp2296
g74
g75
ssg63
g2290
sg56
(lp2297
S'wsgi'
p2298
asbag49
(g70
g51
NtRp2299
(dp2300
g54
(dp2301
g81
g82
ssg63
g2290
sg56
(lp2302
S':'
asbag49
(g70
g51
NtRp2303
(dp2304
g54
(dp2305
sg63
g2290
sg56
(lp2306
g49
(g50
g51
NtRp2307
(dp2308
g54
(dp2309
g62
I5
ssg63
g2303
sg56
(lp2310
g49
(g58
g51
NtRp2311
(dp2312
g54
(dp2313
g62
I4
ssg63
Nsg56
(lp2314
g49
(g65
g51
NtRp2315
(dp2316
g54
(dp2317
sg63
g2311
sg56
(lp2318
g49
(g70
g51
NtRp2319
(dp2320
g54
(dp2321
g74
g75
ssg63
g2315
sg56
(lp2322
S'environ'
p2323
asbag49
(g70
g51
NtRp2324
(dp2325
g54
(dp2326
g81
g82
ssg63
g2315
sg56
(lp2327
S':'
asbag49
(g70
g51
NtRp2328
(dp2329
g54
(dp2330
sg63
g2315
sg56
(lp2331
g49
(g50
g51
NtRp2332
(dp2333
g54
(dp2334
g62
I4
ssg63
g2328
sg56
(lp2335
g49
(g58
g51
NtRp2336
(dp2337
g54
(dp2338
g62
I3
ssg63
Nsg56
(lp2339
g49
(g65
g51
NtRp2340
(dp2341
g54
(dp2342
sg63
g2336
sg56
(lp2343
g49
(g70
g51
NtRp2344
(dp2345
g54
(dp2346
g74
g75
ssg63
g2340
sg56
(lp2347
S'HTTP_ACCEPT'
p2348
asbag49
(g70
g51
NtRp2349
(dp2350
g54
(dp2351
g81
g82
ssg63
g2340
sg56
(lp2352
S':'
asbag49
(g70
g51
NtRp2353
(dp2354
g54
(dp2355
sg63
g2340
sg56
(lp2356
g49
(g50
g51
NtRp2357
(dp2358
g54
(dp2359
g62
I3
ssg63
g2353
sg56
(lp2360
g934
asbasbasbag49
(g65
g51
NtRp2361
(dp2362
g54
(dp2363
sg63
g2336
sg56
(lp2364
g49
(g70
g51
NtRp2365
(dp2366
g54
(dp2367
g74
g75
ssg63
g2361
sg56
(lp2368
S'HTTP_ACCEPT_CHARSET'
p2369
asbag49
(g70
g51
NtRp2370
(dp2371
g54
(dp2372
g81
g82
ssg63
g2361
sg56
(lp2373
S':'
asbag49
(g70
g51
NtRp2374
(dp2375
g54
(dp2376
sg63
g2361
sg56
(lp2377
g49
(g50
g51
NtRp2378
(dp2379
g54
(dp2380
g62
I3
ssg63
g2374
sg56
(lp2381
g956
asbasbasbag49
(g65
g51
NtRp2382
(dp2383
g54
(dp2384
sg63
g2336
sg56
(lp2385
g49
(g70
g51
NtRp2386
(dp2387
g54
(dp2388
g74
g75
ssg63
g2382
sg56
(lp2389
S'HTTP_ACCEPT_ENCODING'
p2390
asbag49
(g70
g51
NtRp2391
(dp2392
g54
(dp2393
g81
g82
ssg63
g2382
sg56
(lp2394
S':'
asbag49
(g70
g51
NtRp2395
(dp2396
g54
(dp2397
sg63
g2382
sg56
(lp2398
g49
(g50
g51
NtRp2399
(dp2400
g54
(dp2401
g62
I3
ssg63
g2395
sg56
(lp2402
g978
asbasbasbag49
(g65
g51
NtRp2403
(dp2404
g54
(dp2405
sg63
g2336
sg56
(lp2406
g49
(g70
g51
NtRp2407
(dp2408
g54
(dp2409
g74
g75
ssg63
g2403
sg56
(lp2410
S'HTTP_ACCEPT_LANGUAGE'
p2411
asbag49
(g70
g51
NtRp2412
(dp2413
g54
(dp2414
g81
g82
ssg63
g2403
sg56
(lp2415
S':'
asbag49
(g70
g51
NtRp2416
(dp2417
g54
(dp2418
sg63
g2403
sg56
(lp2419
g49
(g50
g51
NtRp2420
(dp2421
g54
(dp2422
g62
I3
ssg63
g2416
sg56
(lp2423
g1000
asbasbasbag49
(g65
g51
NtRp2424
(dp2425
g54
(dp2426
sg63
g2336
sg56
(lp2427
g49
(g70
g51
NtRp2428
(dp2429
g54
(dp2430
g74
g75
ssg63
g2424
sg56
(lp2431
S'HTTP_CONNECTION'
p2432
asbag49
(g70
g51
NtRp2433
(dp2434
g54
(dp2435
g81
g82
ssg63
g2424
sg56
(lp2436
S':'
asbag49
(g70
g51
NtRp2437
(dp2438
g54
(dp2439
sg63
g2424
sg56
(lp2440
g49
(g50
g51
NtRp2441
(dp2442
g54
(dp2443
g62
I3
ssg63
g2437
sg56
(lp2444
g1022
asbasbasbag49
(g65
g51
NtRp2445
(dp2446
g54
(dp2447
sg63
g2336
sg56
(lp2448
g49
(g70
g51
NtRp2449
(dp2450
g54
(dp2451
g74
g75
ssg63
g2445
sg56
(lp2452
S'HTTP_COOKIE'
p2453
asbag49
(g70
g51
NtRp2454
(dp2455
g54
(dp2456
g81
g82
ssg63
g2445
sg56
(lp2457
S':'
asbag49
(g70
g51
NtRp2458
(dp2459
g54
(dp2460
sg63
g2445
sg56
(lp2461
g49
(g50
g51
NtRp2462
(dp2463
g54
(dp2464
g62
I3
ssg63
g2458
sg56
(lp2465
g1044
asbasbasbag49
(g65
g51
NtRp2466
(dp2467
g54
(dp2468
sg63
g2336
sg56
(lp2469
g49
(g70
g51
NtRp2470
(dp2471
g54
(dp2472
g74
g75
ssg63
g2466
sg56
(lp2473
S'HTTP_HOST'
p2474
asbag49
(g70
g51
NtRp2475
(dp2476
g54
(dp2477
g81
g82
ssg63
g2466
sg56
(lp2478
S':'
asbag49
(g70
g51
NtRp2479
(dp2480
g54
(dp2481
sg63
g2466
sg56
(lp2482
g49
(g50
g51
NtRp2483
(dp2484
g54
(dp2485
g62
I3
ssg63
g2479
sg56
(lp2486
g1066
asbasbasbag49
(g65
g51
NtRp2487
(dp2488
g54
(dp2489
sg63
g2336
sg56
(lp2490
g49
(g70
g51
NtRp2491
(dp2492
g54
(dp2493
g74
g75
ssg63
g2487
sg56
(lp2494
S'HTTP_USER_AGENT'
p2495
asbag49
(g70
g51
NtRp2496
(dp2497
g54
(dp2498
g81
g82
ssg63
g2487
sg56
(lp2499
S':'
asbag49
(g70
g51
NtRp2500
(dp2501
g54
(dp2502
sg63
g2487
sg56
(lp2503
g49
(g50
g51
NtRp2504
(dp2505
g54
(dp2506
g62
I3
ssg63
g2500
sg56
(lp2507
g1088
asbasbasbag49
(g65
g51
NtRp2508
(dp2509
g54
(dp2510
sg63
g2336
sg56
(lp2511
g49
(g70
g51
NtRp2512
(dp2513
g54
(dp2514
g74
g75
ssg63
g2508
sg56
(lp2515
S'PATH_INFO'
p2516
asbag49
(g70
g51
NtRp2517
(dp2518
g54
(dp2519
g81
g82
ssg63
g2508
sg56
(lp2520
S':'
asbag49
(g70
g51
NtRp2521
(dp2522
g54
(dp2523
sg63
g2508
sg56
(lp2524
g49
(g50
g51
NtRp2525
(dp2526
g54
(dp2527
g62
I3
ssg63
g2521
sg56
(lp2528
g1152
asbasbasbag49
(g65
g51
NtRp2529
(dp2530
g54
(dp2531
sg63
g2336
sg56
(lp2532
g49
(g70
g51
NtRp2533
(dp2534
g54
(dp2535
g74
g75
ssg63
g2529
sg56
(lp2536
S'QUERY_STRING'
p2537
asbag49
(g70
g51
NtRp2538
(dp2539
g54
(dp2540
g81
g82
ssg63
g2529
sg56
(lp2541
S':'
asbag49
(g70
g51
NtRp2542
(dp2543
g54
(dp2544
sg63
g2529
sg56
(lp2545
g49
(g50
g51
NtRp2546
(dp2547
g54
(dp2548
g62
I3
ssg63
g2542
sg56
(lp2549
S''
asbasbasbag49
(g65
g51
NtRp2550
(dp2551
g54
(dp2552
sg63
g2336
sg56
(lp2553
g49
(g70
g51
NtRp2554
(dp2555
g54
(dp2556
g74
g75
ssg63
g2550
sg56
(lp2557
S'REMOTE_ADDR'
p2558
asbag49
(g70
g51
NtRp2559
(dp2560
g54
(dp2561
g81
g82
ssg63
g2550
sg56
(lp2562
S':'
asbag49
(g70
g51
NtRp2563
(dp2564
g54
(dp2565
sg63
g2550
sg56
(lp2566
g49
(g50
g51
NtRp2567
(dp2568
g54
(dp2569
g62
I3
ssg63
g2563
sg56
(lp2570
g182
asbasbasbag49
(g65
g51
NtRp2571
(dp2572
g54
(dp2573
sg63
g2336
sg56
(lp2574
g49
(g70
g51
NtRp2575
(dp2576
g54
(dp2577
g74
g75
ssg63
g2571
sg56
(lp2578
S'REMOTE_PORT'
p2579
asbag49
(g70
g51
NtRp2580
(dp2581
g54
(dp2582
g81
g82
ssg63
g2571
sg56
(lp2583
S':'
asbag49
(g70
g51
NtRp2584
(dp2585
g54
(dp2586
sg63
g2571
sg56
(lp2587
g49
(g50
g51
NtRp2588
(dp2589
g54
(dp2590
g62
I3
ssg63
g2584
sg56
(lp2591
g1216
asbasbasbag49
(g65
g51
NtRp2592
(dp2593
g54
(dp2594
sg63
g2336
sg56
(lp2595
g49
(g70
g51
NtRp2596
(dp2597
g54
(dp2598
g74
g75
ssg63
g2592
sg56
(lp2599
S'REQUEST_METHOD'
p2600
asbag49
(g70
g51
NtRp2601
(dp2602
g54
(dp2603
g81
g82
ssg63
g2592
sg56
(lp2604
S':'
asbag49
(g70
g51
NtRp2605
(dp2606
g54
(dp2607
sg63
g2592
sg56
(lp2608
g49
(g50
g51
NtRp2609
(dp2610
g54
(dp2611
g62
I3
ssg63
g2605
sg56
(lp2612
g1238
asbasbasbag49
(g65
g51
NtRp2613
(dp2614
g54
(dp2615
sg63
g2336
sg56
(lp2616
g49
(g70
g51
NtRp2617
(dp2618
g54
(dp2619
g74
g75
ssg63
g2613
sg56
(lp2620
S'SCRIPT_NAME'
p2621
asbag49
(g70
g51
NtRp2622
(dp2623
g54
(dp2624
g81
g82
ssg63
g2613
sg56
(lp2625
S':'
asbag49
(g70
g51
NtRp2626
(dp2627
g54
(dp2628
sg63
g2613
sg56
(lp2629
g49
(g50
g51
NtRp2630
(dp2631
g54
(dp2632
g62
I3
ssg63
g2626
sg56
(lp2633
S''
asbasbasbag49
(g65
g51
NtRp2634
(dp2635
g54
(dp2636
sg63
g2336
sg56
(lp2637
g49
(g70
g51
NtRp2638
(dp2639
g54
(dp2640
g74
g75
ssg63
g2634
sg56
(lp2641
S'SERVER_NAME'
p2642
asbag49
(g70
g51
NtRp2643
(dp2644
g54
(dp2645
g81
g82
ssg63
g2634
sg56
(lp2646
S':'
asbag49
(g70
g51
NtRp2647
(dp2648
g54
(dp2649
sg63
g2634
sg56
(lp2650
g49
(g50
g51
NtRp2651
(dp2652
g54
(dp2653
g62
I3
ssg63
g2647
sg56
(lp2654
g1281
asbasbasbag49
(g65
g51
NtRp2655
(dp2656
g54
(dp2657
sg63
g2336
sg56
(lp2658
g49
(g70
g51
NtRp2659
(dp2660
g54
(dp2661
g74
g75
ssg63
g2655
sg56
(lp2662
S'SERVER_PORT'
p2663
asbag49
(g70
g51
NtRp2664
(dp2665
g54
(dp2666
g81
g82
ssg63
g2655
sg56
(lp2667
S':'
asbag49
(g70
g51
NtRp2668
(dp2669
g54
(dp2670
sg63
g2655
sg56
(lp2671
g49
(g50
g51
NtRp2672
(dp2673
g54
(dp2674
g62
I3
ssg63
g2668
sg56
(lp2675
g1303
asbasbasbag49
(g65
g51
NtRp2676
(dp2677
g54
(dp2678
sg63
g2336
sg56
(lp2679
g49
(g70
g51
NtRp2680
(dp2681
g54
(dp2682
g74
g75
ssg63
g2676
sg56
(lp2683
S'SERVER_PROTOCOL'
p2684
asbag49
(g70
g51
NtRp2685
(dp2686
g54
(dp2687
g81
g82
ssg63
g2676
sg56
(lp2688
S':'
asbag49
(g70
g51
NtRp2689
(dp2690
g54
(dp2691
sg63
g2676
sg56
(lp2692
g49
(g50
g51
NtRp2693
(dp2694
g54
(dp2695
g62
I3
ssg63
g2689
sg56
(lp2696
g1325
asbasbasbag49
(g65
g51
NtRp2697
(dp2698
g54
(dp2699
sg63
g2336
sg56
(lp2700
g49
(g70
g51
NtRp2701
(dp2702
g54
(dp2703
g74
g75
ssg63
g2697
sg56
(lp2704
S'SERVER_SOFTWARE'
p2705
asbag49
(g70
g51
NtRp2706
(dp2707
g54
(dp2708
g81
g82
ssg63
g2697
sg56
(lp2709
S':'
asbag49
(g70
g51
NtRp2710
(dp2711
g54
(dp2712
sg63
g2697
sg56
(lp2713
g49
(g50
g51
NtRp2714
(dp2715
g54
(dp2716
g62
I3
ssg63
g2710
sg56
(lp2717
g1347
asbasbasbag49
(g65
g51
NtRp2718
(dp2719
g54
(dp2720
sg63
g2336
sg56
(lp2721
g49
(g70
g51
NtRp2722
(dp2723
g54
(dp2724
g74
g75
ssg63
g2718
sg56
(lp2725
S'wsgi.errors'
p2726
asbag49
(g70
g51
NtRp2727
(dp2728
g54
(dp2729
g81
g82
ssg63
g2718
sg56
(lp2730
S':'
asbag49
(g70
g51
NtRp2731
(dp2732
g54
(dp2733
sg63
g2718
sg56
(lp2734
g49
(g50
g51
NtRp2735
(dp2736
g54
(dp2737
g62
I3
ssg63
g2731
sg56
(lp2738
S'<__main__.Stderr object at 0x0124A670>'
p2739
asbasbasbag49
(g65
g51
NtRp2740
(dp2741
g54
(dp2742
sg63
g2336
sg56
(lp2743
g49
(g70
g51
NtRp2744
(dp2745
g54
(dp2746
g74
g75
ssg63
g2740
sg56
(lp2747
S'wsgi.file_wrapper'
p2748
asbag49
(g70
g51
NtRp2749
(dp2750
g54
(dp2751
g81
g82
ssg63
g2740
sg56
(lp2752
S':'
asbag49
(g70
g51
NtRp2753
(dp2754
g54
(dp2755
sg63
g2740
sg56
(lp2756
g49
(g50
g51
NtRp2757
(dp2758
g54
(dp2759
g62
I3
ssg63
g2753
sg56
(lp2760
S'<class wsgiref.util.FileWrapper at 0x01BDBBA0>'
p2761
asbasbasbag49
(g65
g51
NtRp2762
(dp2763
g54
(dp2764
sg63
g2336
sg56
(lp2765
g49
(g70
g51
NtRp2766
(dp2767
g54
(dp2768
g74
g75
ssg63
g2762
sg56
(lp2769
S'wsgi.input'
p2770
asbag49
(g70
g51
NtRp2771
(dp2772
g54
(dp2773
g81
g82
ssg63
g2762
sg56
(lp2774
S':'
asbag49
(g70
g51
NtRp2775
(dp2776
g54
(dp2777
sg63
g2762
sg56
(lp2778
g49
(g50
g51
NtRp2779
(dp2780
g54
(dp2781
g62
I3
ssg63
g2775
sg56
(lp2782
S'<cStringIO.StringO object at 0x06838AC0>'
p2783
asbasbasbag49
(g65
g51
NtRp2784
(dp2785
g54
(dp2786
sg63
g2336
sg56
(lp2787
g49
(g70
g51
NtRp2788
(dp2789
g54
(dp2790
g74
g75
ssg63
g2784
sg56
(lp2791
S'wsgi.multiprocess'
p2792
asbag49
(g70
g51
NtRp2793
(dp2794
g54
(dp2795
g81
g82
ssg63
g2784
sg56
(lp2796
S':'
asbag49
(g70
g51
NtRp2797
(dp2798
g54
(dp2799
sg63
g2784
sg56
(lp2800
g49
(g50
g51
NtRp2801
(dp2802
g54
(dp2803
g62
I3
ssg63
g2797
sg56
(lp2804
g92
asbasbasbag49
(g65
g51
NtRp2805
(dp2806
g54
(dp2807
sg63
g2336
sg56
(lp2808
g49
(g70
g51
NtRp2809
(dp2810
g54
(dp2811
g74
g75
ssg63
g2805
sg56
(lp2812
S'wsgi.multithread'
p2813
asbag49
(g70
g51
NtRp2814
(dp2815
g54
(dp2816
g81
g82
ssg63
g2805
sg56
(lp2817
S':'
asbag49
(g70
g51
NtRp2818
(dp2819
g54
(dp2820
sg63
g2805
sg56
(lp2821
g49
(g50
g51
NtRp2822
(dp2823
g54
(dp2824
g62
I3
ssg63
g2818
sg56
(lp2825
g1587
asbasbasbag49
(g65
g51
NtRp2826
(dp2827
g54
(dp2828
sg63
g2336
sg56
(lp2829
g49
(g70
g51
NtRp2830
(dp2831
g54
(dp2832
g74
g75
ssg63
g2826
sg56
(lp2833
S'wsgi.run_once'
p2834
asbag49
(g70
g51
NtRp2835
(dp2836
g54
(dp2837
g81
g82
ssg63
g2826
sg56
(lp2838
S':'
asbag49
(g70
g51
NtRp2839
(dp2840
g54
(dp2841
sg63
g2826
sg56
(lp2842
g49
(g50
g51
NtRp2843
(dp2844
g54
(dp2845
g62
I3
ssg63
g2839
sg56
(lp2846
g92
asbasbasbag49
(g65
g51
NtRp2847
(dp2848
g54
(dp2849
sg63
g2336
sg56
(lp2850
g49
(g70
g51
NtRp2851
(dp2852
g54
(dp2853
g74
g75
ssg63
g2847
sg56
(lp2854
S'wsgi.url_scheme'
p2855
asbag49
(g70
g51
NtRp2856
(dp2857
g54
(dp2858
g81
g82
ssg63
g2847
sg56
(lp2859
S':'
asbag49
(g70
g51
NtRp2860
(dp2861
g54
(dp2862
sg63
g2847
sg56
(lp2863
g49
(g50
g51
NtRp2864
(dp2865
g54
(dp2866
g62
I3
ssg63
g2860
sg56
(lp2867
g1630
asbasbasbag49
(g65
g51
NtRp2868
(dp2869
g54
(dp2870
sg63
g2336
sg56
(lp2871
g49
(g70
g51
NtRp2872
(dp2873
g54
(dp2874
g74
g75
ssg63
g2868
sg56
(lp2875
S'wsgi.version'
p2876
asbag49
(g70
g51
NtRp2877
(dp2878
g54
(dp2879
g81
g82
ssg63
g2868
sg56
(lp2880
S':'
asbag49
(g70
g51
NtRp2881
(dp2882
g54
(dp2883
sg63
g2868
sg56
(lp2884
g49
(g50
g51
NtRp2885
(dp2886
g54
(dp2887
g62
I3
ssg63
g2881
sg56
(lp2888
S'1'
asbasbasbasbasbasbasbasbasbasbasbasbasbsS'frames'
p2889
(lp2890
(dp2891
S'file'
p2892
S'C:\\Users\\nilton\\Desktop\\scripts\\curso_de_python\\web2py\\gluon\\restricted.py'
p2893
sS'dump'
p2894
(dp2895
sS'lnum'
p2896
I204
sS'lines'
p2897
(dp2898
sS'call'
p2899
S"(code='# coding: utf8\\n# tente algo como\\n\\nimport sys, ti...list)\\n\\nresponse._vars=response._caller(get_data)\\n', environment={'A': <class 'gluon.html.A'>, 'Auth': <class 'gluon.tools.Auth'>, 'B': <class 'gluon.html.B'>, 'BEAUTIFY': <class 'gluon.html.BEAUTIFY'>, 'BODY': <class 'gluon.html.BODY'>, 'BR': <class 'gluon.html.BR'>, 'BUTTON': <class 'gluon.html.BUTTON'>, 'CAT': <class 'gluon.html.CAT'>, 'CENTER': <class 'gluon.html.CENTER'>, 'CLEANUP': <class 'gluon.validators.CLEANUP'>, ...}, layer=r'C:\\Users\\nilton\\Desktop\\scripts\\curso_de_python\\web2py\\applications\\xcpadmin\\controllers/listvm.py')"
p2900
sS'func'
p2901
S'restricted'
p2902
sa(dp2903
g2892
S'C:\\Users\\nilton\\Desktop\\scripts\\curso_de_python\\web2py\\applications\\xcpadmin\\controllers\\listvm.py'
p2904
sg2894
(dp2905
sg2896
I42
sg2897
(dp2906
I32
S'    session.xenapi.login_with_password(username, password)'
p2907
sI33
S'    vms = session.xenapi.VM.get_all()'
p2908
sI34
S'    vm_list = {}'
p2909
sI35
S'    for vm in vms:'
p2910
sI36
S'        get = session.xenapi.VM.get_record(vm)'
p2911
sI37
S'        get["memory_static_max"] = str(( int(get["memory_static_max"]) / (1024 * 1024) ))'
p2912
sI38
S'        vm_list[vm] = get'
p2913
sI39
S''
sI40
S'    return response.json(vm_list)'
p2914
sI31
S'    session = XenAPI.Session(url)'
p2915
ssg2899
S'()'
p2916
sg2901
S'<module>'
p2917
sa(dp2918
g2892
S'C:\\Users\\nilton\\Desktop\\scripts\\curso_de_python\\web2py\\gluon\\globals.py'
p2919
sg2894
(dp2920
sg2896
I172
sg2897
(dp2921
sg2899
S'(f=<function get_data at 0x058987B0>)'
p2922
sg2901
S'<lambda>'
p2923
sa(dp2924
g2892
S'C:\\Users\\nilton\\Desktop\\scripts\\curso_de_python\\web2py\\applications\\xcpadmin\\controllers\\listvm.py'
p2925
sg2894
(dp2926
sg2896
I40
sg2897
(dp2927
I32
S'    session.xenapi.login_with_password(username, password)'
p2928
sI33
S'    vms = session.xenapi.VM.get_all()'
p2929
sI34
S'    vm_list = {}'
p2930
sI35
S'    for vm in vms:'
p2931
sI36
S'        get = session.xenapi.VM.get_record(vm)'
p2932
sI37
S'        get["memory_static_max"] = str(( int(get["memory_static_max"]) / (1024 * 1024) ))'
p2933
sI38
S'        vm_list[vm] = get'
p2934
sI39
S''
sI40
S'    return response.json(vm_list)'
p2935
sI31
S'    session = XenAPI.Session(url)'
p2936
ssg2899
S'()'
p2937
sg2901
S'get_data'
p2938
sa(dp2939
g2892
S'C:\\Users\\nilton\\Desktop\\scripts\\curso_de_python\\web2py\\gluon\\globals.py'
p2940
sg2894
(dp2941
sg2896
I338
sg2897
(dp2942
sg2899
S"(self=<Storage {'body': <cStringIO.StringO object at 0... at 0x05CBE470>, 'view': 'listvm/get_data.html'}>, data={'OpaqueRef:015714ed-6d12-2b72-09d9-cb3342152330': {'HVM_boot_params': {}, 'HVM_boot_policy': '', 'HVM_shadow_multiplier': 1.0, 'PCI_bus': '', 'PV_args': 'graphical utf8', 'PV_bootloader': 'eliloader', 'PV_bootloader_args': '', 'PV_kernel': '', 'PV_legacy_args': '', 'PV_ramdisk': '', ...}, 'OpaqueRef:05a8c6e7-0562-67cc-ffdf-b21b22832756': {'HVM_boot_params': {}, 'HVM_boot_policy': '', 'HVM_shadow_multiplier': 1.0, 'PCI_bus': '', 'PV_args': 'graphical utf8', 'PV_bootloader': 'eliloader', 'PV_bootloader_args': '', 'PV_kernel': '', 'PV_legacy_args': '', 'PV_ramdisk': '', ...}, 'OpaqueRef:0b3f155f-f0de-61fb-e394-f23ed727ca02': {'HVM_boot_params': {'order': 'dc'}, 'HVM_boot_policy': 'BIOS order', 'HVM_shadow_multiplier': 4.0, 'PCI_bus': '', 'PV_args': '', 'PV_bootloader': '', 'PV_bootloader_args': '', 'PV_kernel': '', 'PV_legacy_args': '', 'PV_ramdisk': '', ...}, 'OpaqueRef:0bbd8eba-1247-2dde-be8e-60e147877e9c': {'HVM_boot_params': {'order': 'dc'}, 'HVM_boot_policy': 'BIOS order', 'HVM_shadow_multiplier': 1.0, 'PCI_bus': '', 'PV_args': '', 'PV_bootloader': '', 'PV_bootloader_args': '', 'PV_kernel': '', 'PV_legacy_args': '', 'PV_ramdisk': '', ...}, 'OpaqueRef:0bcfa8b8-b8ea-61cb-bca0-4ab6ac683d10': {'HVM_boot_params': {}, 'HVM_boot_policy': '', 'HVM_shadow_multiplier': 1.0, 'PCI_bus': '', 'PV_args': '-- quiet console=hvc0', 'PV_bootloader': 'eliloader', 'PV_bootloader_args': '', 'PV_kernel': '', 'PV_legacy_args': '', 'PV_ramdisk': '', ...}, 'OpaqueRef:105fb78c-86da-09f8-be9a-bcf5678ad6fa': {'HVM_boot_params': {'order': 'dc'}, 'HVM_boot_policy': 'BIOS order', 'HVM_shadow_multiplier': 1.0, 'PCI_bus': '', 'PV_args': '', 'PV_bootloader': '', 'PV_bootloader_args': '', 'PV_kernel': '', 'PV_legacy_args': '', 'PV_ramdisk': '', ...}, 'OpaqueRef:14bb5949-8c50-c415-fc41-0c524f559860': {'HVM_boot_params': {}, 'HVM_boot_policy': '', 'HVM_shadow_multiplier': 1.0, 'PCI_bus': '', 'PV_args': '', 'PV_bootloader': '', 'PV_bootloader_args': '', 'PV_kernel': '', 'PV_legacy_args': '', 'PV_ramdisk': '', ...}, 'OpaqueRef:1608a219-98bb-f0bc-282a-9106f1075c5c': {'HVM_boot_params': {'order': 'dc'}, 'HVM_boot_policy': 'BIOS order', 'HVM_shadow_multiplier': 1.0, 'PCI_bus': '', 'PV_args': '', 'PV_bootloader': '', 'PV_bootloader_args': '', 'PV_kernel': '', 'PV_legacy_args': '', 'PV_ramdisk': '', ...}, 'OpaqueRef:182cb279-5786-1a6a-a960-fe7d5649782a': {'HVM_boot_params': {}, 'HVM_boot_policy': '', 'HVM_shadow_multiplier': 1.0, 'PCI_bus': '', 'PV_args': 'console=ttyS0 xencons=ttyS', 'PV_bootloader': 'eliloader', 'PV_bootloader_args': '', 'PV_kernel': '', 'PV_legacy_args': '', 'PV_ramdisk': '', ...}, 'OpaqueRef:19c9172f-4ad8-8def-73f1-5db4925fcd44': {'HVM_boot_params': {}, 'HVM_boot_policy': '', 'HVM_shadow_multiplier': 1.0, 'PCI_bus': '', 'PV_args': 'graphical utf8', 'PV_bootloader': 'eliloader', 'PV_bootloader_args': '', 'PV_kernel': '', 'PV_legacy_args': '', 'PV_ramdisk': '', ...}, ...}, default=None)"
p2943
sg2901
S'json'
p2944
sa(dp2945
g2892
S'C:\\Users\\nilton\\Desktop\\scripts\\curso_de_python\\web2py\\gluon\\serializers.py'
p2946
sg2894
(dp2947
sg2896
I61
sg2897
(dp2948
sg2899
S"(value={'OpaqueRef:015714ed-6d12-2b72-09d9-cb3342152330': {'HVM_boot_params': {}, 'HVM_boot_policy': '', 'HVM_shadow_multiplier': 1.0, 'PCI_bus': '', 'PV_args': 'graphical utf8', 'PV_bootloader': 'eliloader', 'PV_bootloader_args': '', 'PV_kernel': '', 'PV_legacy_args': '', 'PV_ramdisk': '', ...}, 'OpaqueRef:05a8c6e7-0562-67cc-ffdf-b21b22832756': {'HVM_boot_params': {}, 'HVM_boot_policy': '', 'HVM_shadow_multiplier': 1.0, 'PCI_bus': '', 'PV_args': 'graphical utf8', 'PV_bootloader': 'eliloader', 'PV_bootloader_args': '', 'PV_kernel': '', 'PV_legacy_args': '', 'PV_ramdisk': '', ...}, 'OpaqueRef:0b3f155f-f0de-61fb-e394-f23ed727ca02': {'HVM_boot_params': {'order': 'dc'}, 'HVM_boot_policy': 'BIOS order', 'HVM_shadow_multiplier': 4.0, 'PCI_bus': '', 'PV_args': '', 'PV_bootloader': '', 'PV_bootloader_args': '', 'PV_kernel': '', 'PV_legacy_args': '', 'PV_ramdisk': '', ...}, 'OpaqueRef:0bbd8eba-1247-2dde-be8e-60e147877e9c': {'HVM_boot_params': {'order': 'dc'}, 'HVM_boot_policy': 'BIOS order', 'HVM_shadow_multiplier': 1.0, 'PCI_bus': '', 'PV_args': '', 'PV_bootloader': '', 'PV_bootloader_args': '', 'PV_kernel': '', 'PV_legacy_args': '', 'PV_ramdisk': '', ...}, 'OpaqueRef:0bcfa8b8-b8ea-61cb-bca0-4ab6ac683d10': {'HVM_boot_params': {}, 'HVM_boot_policy': '', 'HVM_shadow_multiplier': 1.0, 'PCI_bus': '', 'PV_args': '-- quiet console=hvc0', 'PV_bootloader': 'eliloader', 'PV_bootloader_args': '', 'PV_kernel': '', 'PV_legacy_args': '', 'PV_ramdisk': '', ...}, 'OpaqueRef:105fb78c-86da-09f8-be9a-bcf5678ad6fa': {'HVM_boot_params': {'order': 'dc'}, 'HVM_boot_policy': 'BIOS order', 'HVM_shadow_multiplier': 1.0, 'PCI_bus': '', 'PV_args': '', 'PV_bootloader': '', 'PV_bootloader_args': '', 'PV_kernel': '', 'PV_legacy_args': '', 'PV_ramdisk': '', ...}, 'OpaqueRef:14bb5949-8c50-c415-fc41-0c524f559860': {'HVM_boot_params': {}, 'HVM_boot_policy': '', 'HVM_shadow_multiplier': 1.0, 'PCI_bus': '', 'PV_args': '', 'PV_bootloader': '', 'PV_bootloader_args': '', 'PV_kernel': '', 'PV_legacy_args': '', 'PV_ramdisk': '', ...}, 'OpaqueRef:1608a219-98bb-f0bc-282a-9106f1075c5c': {'HVM_boot_params': {'order': 'dc'}, 'HVM_boot_policy': 'BIOS order', 'HVM_shadow_multiplier': 1.0, 'PCI_bus': '', 'PV_args': '', 'PV_bootloader': '', 'PV_bootloader_args': '', 'PV_kernel': '', 'PV_legacy_args': '', 'PV_ramdisk': '', ...}, 'OpaqueRef:182cb279-5786-1a6a-a960-fe7d5649782a': {'HVM_boot_params': {}, 'HVM_boot_policy': '', 'HVM_shadow_multiplier': 1.0, 'PCI_bus': '', 'PV_args': 'console=ttyS0 xencons=ttyS', 'PV_bootloader': 'eliloader', 'PV_bootloader_args': '', 'PV_kernel': '', 'PV_legacy_args': '', 'PV_ramdisk': '', ...}, 'OpaqueRef:19c9172f-4ad8-8def-73f1-5db4925fcd44': {'HVM_boot_params': {}, 'HVM_boot_policy': '', 'HVM_shadow_multiplier': 1.0, 'PCI_bus': '', 'PV_args': 'graphical utf8', 'PV_bootloader': 'eliloader', 'PV_bootloader_args': '', 'PV_kernel': '', 'PV_legacy_args': '', 'PV_ramdisk': '', ...}, ...}, default=<function custom_json at 0x01EFF7F0>)"
p2949
sg2901
g2944
sa(dp2950
g2892
S'C:\\Users\\nilton\\Desktop\\scripts\\curso_de_python\\web2py\\gluon\\contrib\\simplejson\\__init__.py'
p2951
sg2894
(dp2952
sg2896
I270
sg2897
(dp2953
sg2899
S"(obj={'OpaqueRef:015714ed-6d12-2b72-09d9-cb3342152330': {'HVM_boot_params': {}, 'HVM_boot_policy': '', 'HVM_shadow_multiplier': 1.0, 'PCI_bus': '', 'PV_args': 'graphical utf8', 'PV_bootloader': 'eliloader', 'PV_bootloader_args': '', 'PV_kernel': '', 'PV_legacy_args': '', 'PV_ramdisk': '', ...}, 'OpaqueRef:05a8c6e7-0562-67cc-ffdf-b21b22832756': {'HVM_boot_params': {}, 'HVM_boot_policy': '', 'HVM_shadow_multiplier': 1.0, 'PCI_bus': '', 'PV_args': 'graphical utf8', 'PV_bootloader': 'eliloader', 'PV_bootloader_args': '', 'PV_kernel': '', 'PV_legacy_args': '', 'PV_ramdisk': '', ...}, 'OpaqueRef:0b3f155f-f0de-61fb-e394-f23ed727ca02': {'HVM_boot_params': {'order': 'dc'}, 'HVM_boot_policy': 'BIOS order', 'HVM_shadow_multiplier': 4.0, 'PCI_bus': '', 'PV_args': '', 'PV_bootloader': '', 'PV_bootloader_args': '', 'PV_kernel': '', 'PV_legacy_args': '', 'PV_ramdisk': '', ...}, 'OpaqueRef:0bbd8eba-1247-2dde-be8e-60e147877e9c': {'HVM_boot_params': {'order': 'dc'}, 'HVM_boot_policy': 'BIOS order', 'HVM_shadow_multiplier': 1.0, 'PCI_bus': '', 'PV_args': '', 'PV_bootloader': '', 'PV_bootloader_args': '', 'PV_kernel': '', 'PV_legacy_args': '', 'PV_ramdisk': '', ...}, 'OpaqueRef:0bcfa8b8-b8ea-61cb-bca0-4ab6ac683d10': {'HVM_boot_params': {}, 'HVM_boot_policy': '', 'HVM_shadow_multiplier': 1.0, 'PCI_bus': '', 'PV_args': '-- quiet console=hvc0', 'PV_bootloader': 'eliloader', 'PV_bootloader_args': '', 'PV_kernel': '', 'PV_legacy_args': '', 'PV_ramdisk': '', ...}, 'OpaqueRef:105fb78c-86da-09f8-be9a-bcf5678ad6fa': {'HVM_boot_params': {'order': 'dc'}, 'HVM_boot_policy': 'BIOS order', 'HVM_shadow_multiplier': 1.0, 'PCI_bus': '', 'PV_args': '', 'PV_bootloader': '', 'PV_bootloader_args': '', 'PV_kernel': '', 'PV_legacy_args': '', 'PV_ramdisk': '', ...}, 'OpaqueRef:14bb5949-8c50-c415-fc41-0c524f559860': {'HVM_boot_params': {}, 'HVM_boot_policy': '', 'HVM_shadow_multiplier': 1.0, 'PCI_bus': '', 'PV_args': '', 'PV_bootloader': '', 'PV_bootloader_args': '', 'PV_kernel': '', 'PV_legacy_args': '', 'PV_ramdisk': '', ...}, 'OpaqueRef:1608a219-98bb-f0bc-282a-9106f1075c5c': {'HVM_boot_params': {'order': 'dc'}, 'HVM_boot_policy': 'BIOS order', 'HVM_shadow_multiplier': 1.0, 'PCI_bus': '', 'PV_args': '', 'PV_bootloader': '', 'PV_bootloader_args': '', 'PV_kernel': '', 'PV_legacy_args': '', 'PV_ramdisk': '', ...}, 'OpaqueRef:182cb279-5786-1a6a-a960-fe7d5649782a': {'HVM_boot_params': {}, 'HVM_boot_policy': '', 'HVM_shadow_multiplier': 1.0, 'PCI_bus': '', 'PV_args': 'console=ttyS0 xencons=ttyS', 'PV_bootloader': 'eliloader', 'PV_bootloader_args': '', 'PV_kernel': '', 'PV_legacy_args': '', 'PV_ramdisk': '', ...}, 'OpaqueRef:19c9172f-4ad8-8def-73f1-5db4925fcd44': {'HVM_boot_params': {}, 'HVM_boot_policy': '', 'HVM_shadow_multiplier': 1.0, 'PCI_bus': '', 'PV_args': 'graphical utf8', 'PV_bootloader': 'eliloader', 'PV_bootloader_args': '', 'PV_kernel': '', 'PV_legacy_args': '', 'PV_ramdisk': '', ...}, ...}, skipkeys=False, ensure_ascii=True, check_circular=True, allow_nan=True, cls=<class 'gluon.contrib.simplejson.encoder.JSONEncoder'>, indent=None, separators=None, encoding='utf-8', default=<function custom_json at 0x01EFF7F0>, use_decimal=False, **kw={})"
p2954
sg2901
S'dumps'
p2955
sa(dp2956
g2892
S'C:\\Users\\nilton\\Desktop\\scripts\\curso_de_python\\web2py\\gluon\\contrib\\simplejson\\encoder.py'
p2957
sg2894
(dp2958
sg2896
I217
sg2897
(dp2959
sg2899
S"(self=<gluon.contrib.simplejson.encoder.JSONEncoder object at 0x06082330>, o={'OpaqueRef:015714ed-6d12-2b72-09d9-cb3342152330': {'HVM_boot_params': {}, 'HVM_boot_policy': '', 'HVM_shadow_multiplier': 1.0, 'PCI_bus': '', 'PV_args': 'graphical utf8', 'PV_bootloader': 'eliloader', 'PV_bootloader_args': '', 'PV_kernel': '', 'PV_legacy_args': '', 'PV_ramdisk': '', ...}, 'OpaqueRef:05a8c6e7-0562-67cc-ffdf-b21b22832756': {'HVM_boot_params': {}, 'HVM_boot_policy': '', 'HVM_shadow_multiplier': 1.0, 'PCI_bus': '', 'PV_args': 'graphical utf8', 'PV_bootloader': 'eliloader', 'PV_bootloader_args': '', 'PV_kernel': '', 'PV_legacy_args': '', 'PV_ramdisk': '', ...}, 'OpaqueRef:0b3f155f-f0de-61fb-e394-f23ed727ca02': {'HVM_boot_params': {'order': 'dc'}, 'HVM_boot_policy': 'BIOS order', 'HVM_shadow_multiplier': 4.0, 'PCI_bus': '', 'PV_args': '', 'PV_bootloader': '', 'PV_bootloader_args': '', 'PV_kernel': '', 'PV_legacy_args': '', 'PV_ramdisk': '', ...}, 'OpaqueRef:0bbd8eba-1247-2dde-be8e-60e147877e9c': {'HVM_boot_params': {'order': 'dc'}, 'HVM_boot_policy': 'BIOS order', 'HVM_shadow_multiplier': 1.0, 'PCI_bus': '', 'PV_args': '', 'PV_bootloader': '', 'PV_bootloader_args': '', 'PV_kernel': '', 'PV_legacy_args': '', 'PV_ramdisk': '', ...}, 'OpaqueRef:0bcfa8b8-b8ea-61cb-bca0-4ab6ac683d10': {'HVM_boot_params': {}, 'HVM_boot_policy': '', 'HVM_shadow_multiplier': 1.0, 'PCI_bus': '', 'PV_args': '-- quiet console=hvc0', 'PV_bootloader': 'eliloader', 'PV_bootloader_args': '', 'PV_kernel': '', 'PV_legacy_args': '', 'PV_ramdisk': '', ...}, 'OpaqueRef:105fb78c-86da-09f8-be9a-bcf5678ad6fa': {'HVM_boot_params': {'order': 'dc'}, 'HVM_boot_policy': 'BIOS order', 'HVM_shadow_multiplier': 1.0, 'PCI_bus': '', 'PV_args': '', 'PV_bootloader': '', 'PV_bootloader_args': '', 'PV_kernel': '', 'PV_legacy_args': '', 'PV_ramdisk': '', ...}, 'OpaqueRef:14bb5949-8c50-c415-fc41-0c524f559860': {'HVM_boot_params': {}, 'HVM_boot_policy': '', 'HVM_shadow_multiplier': 1.0, 'PCI_bus': '', 'PV_args': '', 'PV_bootloader': '', 'PV_bootloader_args': '', 'PV_kernel': '', 'PV_legacy_args': '', 'PV_ramdisk': '', ...}, 'OpaqueRef:1608a219-98bb-f0bc-282a-9106f1075c5c': {'HVM_boot_params': {'order': 'dc'}, 'HVM_boot_policy': 'BIOS order', 'HVM_shadow_multiplier': 1.0, 'PCI_bus': '', 'PV_args': '', 'PV_bootloader': '', 'PV_bootloader_args': '', 'PV_kernel': '', 'PV_legacy_args': '', 'PV_ramdisk': '', ...}, 'OpaqueRef:182cb279-5786-1a6a-a960-fe7d5649782a': {'HVM_boot_params': {}, 'HVM_boot_policy': '', 'HVM_shadow_multiplier': 1.0, 'PCI_bus': '', 'PV_args': 'console=ttyS0 xencons=ttyS', 'PV_bootloader': 'eliloader', 'PV_bootloader_args': '', 'PV_kernel': '', 'PV_legacy_args': '', 'PV_ramdisk': '', ...}, 'OpaqueRef:19c9172f-4ad8-8def-73f1-5db4925fcd44': {'HVM_boot_params': {}, 'HVM_boot_policy': '', 'HVM_shadow_multiplier': 1.0, 'PCI_bus': '', 'PV_args': 'graphical utf8', 'PV_bootloader': 'eliloader', 'PV_bootloader_args': '', 'PV_kernel': '', 'PV_legacy_args': '', 'PV_ramdisk': '', ...}, ...})"
p2960
sg2901
S'encode'
p2961
sa(dp2962
g2892
S'C:\\Users\\nilton\\Desktop\\scripts\\curso_de_python\\web2py\\gluon\\contrib\\simplejson\\encoder.py'
p2963
sg2894
(dp2964
sg2896
I486
sg2897
(dp2965
sg2899
S"(o={'OpaqueRef:015714ed-6d12-2b72-09d9-cb3342152330': {'HVM_boot_params': {}, 'HVM_boot_policy': '', 'HVM_shadow_multiplier': 1.0, 'PCI_bus': '', 'PV_args': 'graphical utf8', 'PV_bootloader': 'eliloader', 'PV_bootloader_args': '', 'PV_kernel': '', 'PV_legacy_args': '', 'PV_ramdisk': '', ...}, 'OpaqueRef:05a8c6e7-0562-67cc-ffdf-b21b22832756': {'HVM_boot_params': {}, 'HVM_boot_policy': '', 'HVM_shadow_multiplier': 1.0, 'PCI_bus': '', 'PV_args': 'graphical utf8', 'PV_bootloader': 'eliloader', 'PV_bootloader_args': '', 'PV_kernel': '', 'PV_legacy_args': '', 'PV_ramdisk': '', ...}, 'OpaqueRef:0b3f155f-f0de-61fb-e394-f23ed727ca02': {'HVM_boot_params': {'order': 'dc'}, 'HVM_boot_policy': 'BIOS order', 'HVM_shadow_multiplier': 4.0, 'PCI_bus': '', 'PV_args': '', 'PV_bootloader': '', 'PV_bootloader_args': '', 'PV_kernel': '', 'PV_legacy_args': '', 'PV_ramdisk': '', ...}, 'OpaqueRef:0bbd8eba-1247-2dde-be8e-60e147877e9c': {'HVM_boot_params': {'order': 'dc'}, 'HVM_boot_policy': 'BIOS order', 'HVM_shadow_multiplier': 1.0, 'PCI_bus': '', 'PV_args': '', 'PV_bootloader': '', 'PV_bootloader_args': '', 'PV_kernel': '', 'PV_legacy_args': '', 'PV_ramdisk': '', ...}, 'OpaqueRef:0bcfa8b8-b8ea-61cb-bca0-4ab6ac683d10': {'HVM_boot_params': {}, 'HVM_boot_policy': '', 'HVM_shadow_multiplier': 1.0, 'PCI_bus': '', 'PV_args': '-- quiet console=hvc0', 'PV_bootloader': 'eliloader', 'PV_bootloader_args': '', 'PV_kernel': '', 'PV_legacy_args': '', 'PV_ramdisk': '', ...}, 'OpaqueRef:105fb78c-86da-09f8-be9a-bcf5678ad6fa': {'HVM_boot_params': {'order': 'dc'}, 'HVM_boot_policy': 'BIOS order', 'HVM_shadow_multiplier': 1.0, 'PCI_bus': '', 'PV_args': '', 'PV_bootloader': '', 'PV_bootloader_args': '', 'PV_kernel': '', 'PV_legacy_args': '', 'PV_ramdisk': '', ...}, 'OpaqueRef:14bb5949-8c50-c415-fc41-0c524f559860': {'HVM_boot_params': {}, 'HVM_boot_policy': '', 'HVM_shadow_multiplier': 1.0, 'PCI_bus': '', 'PV_args': '', 'PV_bootloader': '', 'PV_bootloader_args': '', 'PV_kernel': '', 'PV_legacy_args': '', 'PV_ramdisk': '', ...}, 'OpaqueRef:1608a219-98bb-f0bc-282a-9106f1075c5c': {'HVM_boot_params': {'order': 'dc'}, 'HVM_boot_policy': 'BIOS order', 'HVM_shadow_multiplier': 1.0, 'PCI_bus': '', 'PV_args': '', 'PV_bootloader': '', 'PV_bootloader_args': '', 'PV_kernel': '', 'PV_legacy_args': '', 'PV_ramdisk': '', ...}, 'OpaqueRef:182cb279-5786-1a6a-a960-fe7d5649782a': {'HVM_boot_params': {}, 'HVM_boot_policy': '', 'HVM_shadow_multiplier': 1.0, 'PCI_bus': '', 'PV_args': 'console=ttyS0 xencons=ttyS', 'PV_bootloader': 'eliloader', 'PV_bootloader_args': '', 'PV_kernel': '', 'PV_legacy_args': '', 'PV_ramdisk': '', ...}, 'OpaqueRef:19c9172f-4ad8-8def-73f1-5db4925fcd44': {'HVM_boot_params': {}, 'HVM_boot_policy': '', 'HVM_shadow_multiplier': 1.0, 'PCI_bus': '', 'PV_args': 'graphical utf8', 'PV_bootloader': 'eliloader', 'PV_bootloader_args': '', 'PV_kernel': '', 'PV_legacy_args': '', 'PV_ramdisk': '', ...}, ...}, _current_indent_level=0)"
p2966
sg2901
S'_iterencode'
p2967
sa(dp2968
g2892
S'C:\\Users\\nilton\\Desktop\\scripts\\curso_de_python\\web2py\\gluon\\contrib\\simplejson\\encoder.py'
p2969
sg2894
(dp2970
sg2896
I460
sg2897
(dp2971
sg2899
S"(dct={'OpaqueRef:015714ed-6d12-2b72-09d9-cb3342152330': {'HVM_boot_params': {}, 'HVM_boot_policy': '', 'HVM_shadow_multiplier': 1.0, 'PCI_bus': '', 'PV_args': 'graphical utf8', 'PV_bootloader': 'eliloader', 'PV_bootloader_args': '', 'PV_kernel': '', 'PV_legacy_args': '', 'PV_ramdisk': '', ...}, 'OpaqueRef:05a8c6e7-0562-67cc-ffdf-b21b22832756': {'HVM_boot_params': {}, 'HVM_boot_policy': '', 'HVM_shadow_multiplier': 1.0, 'PCI_bus': '', 'PV_args': 'graphical utf8', 'PV_bootloader': 'eliloader', 'PV_bootloader_args': '', 'PV_kernel': '', 'PV_legacy_args': '', 'PV_ramdisk': '', ...}, 'OpaqueRef:0b3f155f-f0de-61fb-e394-f23ed727ca02': {'HVM_boot_params': {'order': 'dc'}, 'HVM_boot_policy': 'BIOS order', 'HVM_shadow_multiplier': 4.0, 'PCI_bus': '', 'PV_args': '', 'PV_bootloader': '', 'PV_bootloader_args': '', 'PV_kernel': '', 'PV_legacy_args': '', 'PV_ramdisk': '', ...}, 'OpaqueRef:0bbd8eba-1247-2dde-be8e-60e147877e9c': {'HVM_boot_params': {'order': 'dc'}, 'HVM_boot_policy': 'BIOS order', 'HVM_shadow_multiplier': 1.0, 'PCI_bus': '', 'PV_args': '', 'PV_bootloader': '', 'PV_bootloader_args': '', 'PV_kernel': '', 'PV_legacy_args': '', 'PV_ramdisk': '', ...}, 'OpaqueRef:0bcfa8b8-b8ea-61cb-bca0-4ab6ac683d10': {'HVM_boot_params': {}, 'HVM_boot_policy': '', 'HVM_shadow_multiplier': 1.0, 'PCI_bus': '', 'PV_args': '-- quiet console=hvc0', 'PV_bootloader': 'eliloader', 'PV_bootloader_args': '', 'PV_kernel': '', 'PV_legacy_args': '', 'PV_ramdisk': '', ...}, 'OpaqueRef:105fb78c-86da-09f8-be9a-bcf5678ad6fa': {'HVM_boot_params': {'order': 'dc'}, 'HVM_boot_policy': 'BIOS order', 'HVM_shadow_multiplier': 1.0, 'PCI_bus': '', 'PV_args': '', 'PV_bootloader': '', 'PV_bootloader_args': '', 'PV_kernel': '', 'PV_legacy_args': '', 'PV_ramdisk': '', ...}, 'OpaqueRef:14bb5949-8c50-c415-fc41-0c524f559860': {'HVM_boot_params': {}, 'HVM_boot_policy': '', 'HVM_shadow_multiplier': 1.0, 'PCI_bus': '', 'PV_args': '', 'PV_bootloader': '', 'PV_bootloader_args': '', 'PV_kernel': '', 'PV_legacy_args': '', 'PV_ramdisk': '', ...}, 'OpaqueRef:1608a219-98bb-f0bc-282a-9106f1075c5c': {'HVM_boot_params': {'order': 'dc'}, 'HVM_boot_policy': 'BIOS order', 'HVM_shadow_multiplier': 1.0, 'PCI_bus': '', 'PV_args': '', 'PV_bootloader': '', 'PV_bootloader_args': '', 'PV_kernel': '', 'PV_legacy_args': '', 'PV_ramdisk': '', ...}, 'OpaqueRef:182cb279-5786-1a6a-a960-fe7d5649782a': {'HVM_boot_params': {}, 'HVM_boot_policy': '', 'HVM_shadow_multiplier': 1.0, 'PCI_bus': '', 'PV_args': 'console=ttyS0 xencons=ttyS', 'PV_bootloader': 'eliloader', 'PV_bootloader_args': '', 'PV_kernel': '', 'PV_legacy_args': '', 'PV_ramdisk': '', ...}, 'OpaqueRef:19c9172f-4ad8-8def-73f1-5db4925fcd44': {'HVM_boot_params': {}, 'HVM_boot_policy': '', 'HVM_shadow_multiplier': 1.0, 'PCI_bus': '', 'PV_args': 'graphical utf8', 'PV_bootloader': 'eliloader', 'PV_bootloader_args': '', 'PV_kernel': '', 'PV_legacy_args': '', 'PV_ramdisk': '', ...}, ...}, _current_indent_level=0)"
p2972
sg2901
S'_iterencode_dict'
p2973
sa(dp2974
g2892
S'C:\\Users\\nilton\\Desktop\\scripts\\curso_de_python\\web2py\\gluon\\contrib\\simplejson\\encoder.py'
p2975
sg2894
(dp2976
sg2896
I460
sg2897
(dp2977
sg2899
S"(dct={'HVM_boot_params': {}, 'HVM_boot_policy': '', 'HVM_shadow_multiplier': 1.0, 'PCI_bus': '', 'PV_args': 'console=ttyS0 xencons=ttyS', 'PV_bootloader': 'eliloader', 'PV_bootloader_args': '', 'PV_kernel': '', 'PV_legacy_args': '', 'PV_ramdisk': '', ...}, _current_indent_level=0)"
p2978
sg2901
g2973
sa(dp2979
g2892
S'C:\\Users\\nilton\\Desktop\\scripts\\curso_de_python\\web2py\\gluon\\contrib\\simplejson\\encoder.py'
p2980
sg2894
(dp2981
sg2896
I496
sg2897
(dp2982
sg2899
S"(o=<DateTime '19700101T00:00:00Z' at 29653c8>, _current_indent_level=0)"
p2983
sg2901
g2967
sa(dp2984
g2892
S'C:\\Users\\nilton\\Desktop\\scripts\\curso_de_python\\web2py\\gluon\\serializers.py'
p2985
sg2894
(dp2986
sg2896
I37
sg2897
(dp2987
sg2899
S"(o=<DateTime '19700101T00:00:00Z' at 29653c8>)"
p2988
sg2901
S'custom_json'
p2989
sasS'pyver'
p2990
S'Python 2.5.4: C:\\Users\\nilton\\Desktop\\scripts\\curso_de_python\\web2py\\web2py_no_console.exe'
p2991
sS'session'
p2992
g49
(g50
g51
NtRp2993
(dp2994
g54
(dp2995
sg56
(lp2996
g49
(g58
g51
NtRp2997
(dp2998
g54
(dp2999
g62
I5
ssg63
Nsg56
(lp3000
sbasbsS'etype'
p3001
S"<type 'exceptions.TypeError'>"
p3002
sS'date'
p3003
S'Tue Jan 24 13:39:17 2012'
p3004
sS'response'
p3005
g49
(g50
g51
NtRp3006
(dp3007
g54
(dp3008
sg56
(lp3009
g49
(g58
g51
NtRp3010
(dp3011
g54
(dp3012
g62
I5
ssg63
Nsg56
(lp3013
g49
(g65
g51
NtRp3014
(dp3015
g54
(dp3016
sg63
g3010
sg56
(lp3017
g49
(g70
g51
NtRp3018
(dp3019
g54
(dp3020
g74
g75
ssg63
g3014
sg56
(lp3021
g147
asbag49
(g70
g51
NtRp3022
(dp3023
g54
(dp3024
g81
g82
ssg63
g3014
sg56
(lp3025
S':'
asbag49
(g70
g51
NtRp3026
(dp3027
g54
(dp3028
sg63
g3014
sg56
(lp3029
g49
(g50
g51
NtRp3030
(dp3031
g54
(dp3032
g62
I5
ssg63
g3026
sg56
(lp3033
S'<cStringIO.StringO object at 0x05D03D40>'
p3034
asbasbasbag49
(g65
g51
NtRp3035
(dp3036
g54
(dp3037
sg63
g3010
sg56
(lp3038
g49
(g70
g51
NtRp3039
(dp3040
g54
(dp3041
g74
g75
ssg63
g3035
sg56
(lp3042
g213
asbag49
(g70
g51
NtRp3043
(dp3044
g54
(dp3045
g81
g82
ssg63
g3035
sg56
(lp3046
S':'
asbag49
(g70
g51
NtRp3047
(dp3048
g54
(dp3049
sg63
g3035
sg56
(lp3050
g49
(g50
g51
NtRp3051
(dp3052
g54
(dp3053
g62
I5
ssg63
g3047
sg56
(lp3054
g49
(g58
g51
NtRp3055
(dp3056
g54
(dp3057
g62
I4
ssg63
Nsg56
(lp3058
g49
(g65
g51
NtRp3059
(dp3060
g54
(dp3061
sg63
g3055
sg56
(lp3062
g49
(g70
g51
NtRp3063
(dp3064
g54
(dp3065
g74
g75
ssg63
g3059
sg56
(lp3066
S'session_id_xcpadmin'
p3067
asbag49
(g70
g51
NtRp3068
(dp3069
g54
(dp3070
g81
g82
ssg63
g3059
sg56
(lp3071
S':'
asbag49
(g70
g51
NtRp3072
(dp3073
g54
(dp3074
sg63
g3059
sg56
(lp3075
g49
(g50
g51
NtRp3076
(dp3077
g54
(dp3078
g62
I4
ssg63
g3072
sg56
(lp3079
g49
(g58
g51
NtRp3080
(dp3081
g54
(dp3082
g62
I3
ssg63
Nsg56
(lp3083
g49
(g65
g51
NtRp3084
(dp3085
g54
(dp3086
sg63
g3080
sg56
(lp3087
g49
(g70
g51
NtRp3088
(dp3089
g54
(dp3090
g74
g75
ssg63
g3084
sg56
(lp3091
g263
asbag49
(g70
g51
NtRp3092
(dp3093
g54
(dp3094
g81
g82
ssg63
g3084
sg56
(lp3095
S':'
asbag49
(g70
g51
NtRp3096
(dp3097
g54
(dp3098
sg63
g3084
sg56
(lp3099
g49
(g50
g51
NtRp3100
(dp3101
g54
(dp3102
g62
I3
ssg63
g3096
sg56
(lp3103
S''
asbasbasbag49
(g65
g51
NtRp3104
(dp3105
g54
(dp3106
sg63
g3080
sg56
(lp3107
g49
(g70
g51
NtRp3108
(dp3109
g54
(dp3110
g74
g75
ssg63
g3104
sg56
(lp3111
g284
asbag49
(g70
g51
NtRp3112
(dp3113
g54
(dp3114
g81
g82
ssg63
g3104
sg56
(lp3115
S':'
asbag49
(g70
g51
NtRp3116
(dp3117
g54
(dp3118
sg63
g3104
sg56
(lp3119
g49
(g50
g51
NtRp3120
(dp3121
g54
(dp3122
g62
I3
ssg63
g3116
sg56
(lp3123
S''
asbasbasbag49
(g65
g51
NtRp3124
(dp3125
g54
(dp3126
sg63
g3080
sg56
(lp3127
g49
(g70
g51
NtRp3128
(dp3129
g54
(dp3130
g74
g75
ssg63
g3124
sg56
(lp3131
g305
asbag49
(g70
g51
NtRp3132
(dp3133
g54
(dp3134
g81
g82
ssg63
g3124
sg56
(lp3135
S':'
asbag49
(g70
g51
NtRp3136
(dp3137
g54
(dp3138
sg63
g3124
sg56
(lp3139
g49
(g50
g51
NtRp3140
(dp3141
g54
(dp3142
g62
I3
ssg63
g3136
sg56
(lp3143
S''
asbasbasbag49
(g65
g51
NtRp3144
(dp3145
g54
(dp3146
sg63
g3080
sg56
(lp3147
g49
(g70
g51
NtRp3148
(dp3149
g54
(dp3150
g74
g75
ssg63
g3144
sg56
(lp3151
g326
asbag49
(g70
g51
NtRp3152
(dp3153
g54
(dp3154
g81
g82
ssg63
g3144
sg56
(lp3155
S':'
asbag49
(g70
g51
NtRp3156
(dp3157
g54
(dp3158
sg63
g3144
sg56
(lp3159
g49
(g50
g51
NtRp3160
(dp3161
g54
(dp3162
g62
I3
ssg63
g3156
sg56
(lp3163
S''
asbasbasbag49
(g65
g51
NtRp3164
(dp3165
g54
(dp3166
sg63
g3080
sg56
(lp3167
g49
(g70
g51
NtRp3168
(dp3169
g54
(dp3170
g74
g75
ssg63
g3164
sg56
(lp3171
g347
asbag49
(g70
g51
NtRp3172
(dp3173
g54
(dp3174
g81
g82
ssg63
g3164
sg56
(lp3175
S':'
asbag49
(g70
g51
NtRp3176
(dp3177
g54
(dp3178
sg63
g3164
sg56
(lp3179
g49
(g50
g51
NtRp3180
(dp3181
g54
(dp3182
g62
I3
ssg63
g3176
sg56
(lp3183
S'/'
asbasbasbag49
(g65
g51
NtRp3184
(dp3185
g54
(dp3186
sg63
g3080
sg56
(lp3187
g49
(g70
g51
NtRp3188
(dp3189
g54
(dp3190
g74
g75
ssg63
g3184
sg56
(lp3191
g368
asbag49
(g70
g51
NtRp3192
(dp3193
g54
(dp3194
g81
g82
ssg63
g3184
sg56
(lp3195
S':'
asbag49
(g70
g51
NtRp3196
(dp3197
g54
(dp3198
sg63
g3184
sg56
(lp3199
g49
(g50
g51
NtRp3200
(dp3201
g54
(dp3202
g62
I3
ssg63
g3196
sg56
(lp3203
S''
asbasbasbag49
(g65
g51
NtRp3204
(dp3205
g54
(dp3206
sg63
g3080
sg56
(lp3207
g49
(g70
g51
NtRp3208
(dp3209
g54
(dp3210
g74
g75
ssg63
g3204
sg56
(lp3211
g389
asbag49
(g70
g51
NtRp3212
(dp3213
g54
(dp3214
g81
g82
ssg63
g3204
sg56
(lp3215
S':'
asbag49
(g70
g51
NtRp3216
(dp3217
g54
(dp3218
sg63
g3204
sg56
(lp3219
g49
(g50
g51
NtRp3220
(dp3221
g54
(dp3222
g62
I3
ssg63
g3216
sg56
(lp3223
S''
asbasbasbasbasbasbasbasbasbasbasbag49
(g65
g51
NtRp3224
(dp3225
g54
(dp3226
sg63
g3010
sg56
(lp3227
g49
(g70
g51
NtRp3228
(dp3229
g54
(dp3230
g74
g75
ssg63
g3224
sg56
(lp3231
S'files'
p3232
asbag49
(g70
g51
NtRp3233
(dp3234
g54
(dp3235
g81
g82
ssg63
g3224
sg56
(lp3236
S':'
asbag49
(g70
g51
NtRp3237
(dp3238
g54
(dp3239
sg63
g3224
sg56
(lp3240
g49
(g50
g51
NtRp3241
(dp3242
g54
(dp3243
g62
I5
ssg63
g3237
sg56
(lp3244
g49
(g58
g51
NtRp3245
(dp3246
g54
(dp3247
g62
I4
ssg63
Nsg56
(lp3248
sbasbasbasbag49
(g65
g51
NtRp3249
(dp3250
g54
(dp3251
sg63
g3010
sg56
(lp3252
g49
(g70
g51
NtRp3253
(dp3254
g54
(dp3255
g74
g75
ssg63
g3249
sg56
(lp3256
S'flash'
p3257
asbag49
(g70
g51
NtRp3258
(dp3259
g54
(dp3260
g81
g82
ssg63
g3249
sg56
(lp3261
S':'
asbag49
(g70
g51
NtRp3262
(dp3263
g54
(dp3264
sg63
g3249
sg56
(lp3265
g49
(g50
g51
NtRp3266
(dp3267
g54
(dp3268
g62
I5
ssg63
g3262
sg56
(lp3269
S''
asbasbasbag49
(g65
g51
NtRp3270
(dp3271
g54
(dp3272
sg63
g3010
sg56
(lp3273
g49
(g70
g51
NtRp3274
(dp3275
g54
(dp3276
g74
g75
ssg63
g3270
sg56
(lp3277
S'generic_patterns'
p3278
asbag49
(g70
g51
NtRp3279
(dp3280
g54
(dp3281
g81
g82
ssg63
g3270
sg56
(lp3282
S':'
asbag49
(g70
g51
NtRp3283
(dp3284
g54
(dp3285
sg63
g3270
sg56
(lp3286
g49
(g50
g51
NtRp3287
(dp3288
g54
(dp3289
g62
I5
ssg63
g3283
sg56
(lp3290
g49
(g58
g51
NtRp3291
(dp3292
g54
(dp3293
g62
I4
ssg63
Nsg56
(lp3294
g49
(g65
g51
NtRp3295
(dp3296
g54
(dp3297
sg63
g3291
sg56
(lp3298
g49
(g70
g51
NtRp3299
(dp3300
g54
(dp3301
sg63
g3295
sg56
(lp3302
g49
(g50
g51
NtRp3303
(dp3304
g54
(dp3305
g62
I4
ssg63
g3299
sg56
(lp3306
S'*'
asbasbasbasbasbasbasbag49
(g65
g51
NtRp3307
(dp3308
g54
(dp3309
sg63
g3010
sg56
(lp3310
g49
(g70
g51
NtRp3311
(dp3312
g54
(dp3313
g74
g75
ssg63
g3307
sg56
(lp3314
S'headers'
p3315
asbag49
(g70
g51
NtRp3316
(dp3317
g54
(dp3318
g81
g82
ssg63
g3307
sg56
(lp3319
S':'
asbag49
(g70
g51
NtRp3320
(dp3321
g54
(dp3322
sg63
g3307
sg56
(lp3323
g49
(g50
g51
NtRp3324
(dp3325
g54
(dp3326
g62
I5
ssg63
g3320
sg56
(lp3327
g49
(g58
g51
NtRp3328
(dp3329
g54
(dp3330
g62
I4
ssg63
Nsg56
(lp3331
g49
(g65
g51
NtRp3332
(dp3333
g54
(dp3334
sg63
g3328
sg56
(lp3335
g49
(g70
g51
NtRp3336
(dp3337
g54
(dp3338
g74
g75
ssg63
g3332
sg56
(lp3339
S'Cache-Control'
p3340
asbag49
(g70
g51
NtRp3341
(dp3342
g54
(dp3343
g81
g82
ssg63
g3332
sg56
(lp3344
S':'
asbag49
(g70
g51
NtRp3345
(dp3346
g54
(dp3347
sg63
g3332
sg56
(lp3348
g49
(g50
g51
NtRp3349
(dp3350
g54
(dp3351
g62
I4
ssg63
g3345
sg56
(lp3352
S'no-store, no-cache, must-revalidate, post-check=0, pre-check=0'
p3353
asbasbasbag49
(g65
g51
NtRp3354
(dp3355
g54
(dp3356
sg63
g3328
sg56
(lp3357
g49
(g70
g51
NtRp3358
(dp3359
g54
(dp3360
g74
g75
ssg63
g3354
sg56
(lp3361
S'Content-Type'
p3362
asbag49
(g70
g51
NtRp3363
(dp3364
g54
(dp3365
g81
g82
ssg63
g3354
sg56
(lp3366
S':'
asbag49
(g70
g51
NtRp3367
(dp3368
g54
(dp3369
sg63
g3354
sg56
(lp3370
g49
(g50
g51
NtRp3371
(dp3372
g54
(dp3373
g62
I4
ssg63
g3367
sg56
(lp3374
S'text/html; charset=utf-8'
p3375
asbasbasbag49
(g65
g51
NtRp3376
(dp3377
g54
(dp3378
sg63
g3328
sg56
(lp3379
g49
(g70
g51
NtRp3380
(dp3381
g54
(dp3382
g74
g75
ssg63
g3376
sg56
(lp3383
S'Expires'
p3384
asbag49
(g70
g51
NtRp3385
(dp3386
g54
(dp3387
g81
g82
ssg63
g3376
sg56
(lp3388
S':'
asbag49
(g70
g51
NtRp3389
(dp3390
g54
(dp3391
sg63
g3376
sg56
(lp3392
g49
(g50
g51
NtRp3393
(dp3394
g54
(dp3395
g62
I4
ssg63
g3389
sg56
(lp3396
S'Tue, 24 Jan 2012 15:39:15 GMT'
p3397
asbasbasbag49
(g65
g51
NtRp3398
(dp3399
g54
(dp3400
sg63
g3328
sg56
(lp3401
g49
(g70
g51
NtRp3402
(dp3403
g54
(dp3404
g74
g75
ssg63
g3398
sg56
(lp3405
S'Pragma'
p3406
asbag49
(g70
g51
NtRp3407
(dp3408
g54
(dp3409
g81
g82
ssg63
g3398
sg56
(lp3410
S':'
asbag49
(g70
g51
NtRp3411
(dp3412
g54
(dp3413
sg63
g3398
sg56
(lp3414
g49
(g50
g51
NtRp3415
(dp3416
g54
(dp3417
g62
I4
ssg63
g3411
sg56
(lp3418
S'no-cache'
p3419
asbasbasbag49
(g65
g51
NtRp3420
(dp3421
g54
(dp3422
sg63
g3328
sg56
(lp3423
g49
(g70
g51
NtRp3424
(dp3425
g54
(dp3426
g74
g75
ssg63
g3420
sg56
(lp3427
S'X-Powered-By'
p3428
asbag49
(g70
g51
NtRp3429
(dp3430
g54
(dp3431
g81
g82
ssg63
g3420
sg56
(lp3432
S':'
asbag49
(g70
g51
NtRp3433
(dp3434
g54
(dp3435
sg63
g3420
sg56
(lp3436
g49
(g50
g51
NtRp3437
(dp3438
g54
(dp3439
g62
I4
ssg63
g3433
sg56
(lp3440
S'web2py'
p3441
asbasbasbasbasbasbasbag49
(g65
g51
NtRp3442
(dp3443
g54
(dp3444
sg63
g3010
sg56
(lp3445
g49
(g70
g51
NtRp3446
(dp3447
g54
(dp3448
g74
g75
ssg63
g3442
sg56
(lp3449
S'menu'
p3450
asbag49
(g70
g51
NtRp3451
(dp3452
g54
(dp3453
g81
g82
ssg63
g3442
sg56
(lp3454
S':'
asbag49
(g70
g51
NtRp3455
(dp3456
g54
(dp3457
sg63
g3442
sg56
(lp3458
g49
(g50
g51
NtRp3459
(dp3460
g54
(dp3461
g62
I5
ssg63
g3455
sg56
(lp3462
g49
(g58
g51
NtRp3463
(dp3464
g54
(dp3465
g62
I4
ssg63
Nsg56
(lp3466
g49
(g65
g51
NtRp3467
(dp3468
g54
(dp3469
sg63
g3463
sg56
(lp3470
g49
(g70
g51
NtRp3471
(dp3472
g54
(dp3473
sg63
g3467
sg56
(lp3474
g49
(g50
g51
NtRp3475
(dp3476
g54
(dp3477
g62
I4
ssg63
g3471
sg56
(lp3478
g49
(g58
g51
NtRp3479
(dp3480
g54
(dp3481
g62
I3
ssg63
Nsg56
(lp3482
g49
(g65
g51
NtRp3483
(dp3484
g54
(dp3485
sg63
g3479
sg56
(lp3486
g49
(g70
g51
NtRp3487
(dp3488
g54
(dp3489
sg63
g3483
sg56
(lp3490
g49
(g50
g51
NtRp3491
(dp3492
g54
(dp3493
g62
I3
ssg63
g3487
sg56
(lp3494
cgluon.languages
lazyT_unpickle
p3495
(S't\x04\x00\x00\x00Home'
tRp3496
asbasbasbag49
(g65
g51
NtRp3497
(dp3498
g54
(dp3499
sg63
g3479
sg56
(lp3500
g49
(g70
g51
NtRp3501
(dp3502
g54
(dp3503
sg63
g3497
sg56
(lp3504
g49
(g50
g51
NtRp3505
(dp3506
g54
(dp3507
g62
I3
ssg63
g3501
sg56
(lp3508
g92
asbasbasbag49
(g65
g51
NtRp3509
(dp3510
g54
(dp3511
sg63
g3479
sg56
(lp3512
g49
(g70
g51
NtRp3513
(dp3514
g54
(dp3515
sg63
g3509
sg56
(lp3516
g49
(g50
g51
NtRp3517
(dp3518
g54
(dp3519
g62
I3
ssg63
g3513
sg56
(lp3520
S'/xcpadmin/default/index'
p3521
asbasbasbag49
(g65
g51
NtRp3522
(dp3523
g54
(dp3524
sg63
g3479
sg56
(lp3525
g49
(g70
g51
NtRp3526
(dp3527
g54
(dp3528
sg63
g3522
sg56
(lp3529
g49
(g50
g51
NtRp3530
(dp3531
g54
(dp3532
g62
I3
ssg63
g3526
sg56
(lp3533
g49
(g58
g51
NtRp3534
(dp3535
g54
(dp3536
g62
I2
ssg63
Nsg56
(lp3537
sbasbasbasbasbasbasbasbag49
(g65
g51
NtRp3538
(dp3539
g54
(dp3540
sg63
g3463
sg56
(lp3541
g49
(g70
g51
NtRp3542
(dp3543
g54
(dp3544
sg63
g3538
sg56
(lp3545
g49
(g50
g51
NtRp3546
(dp3547
g54
(dp3548
g62
I4
ssg63
g3542
sg56
(lp3549
g49
(g58
g51
NtRp3550
(dp3551
g54
(dp3552
g62
I3
ssg63
Nsg56
(lp3553
g49
(g65
g51
NtRp3554
(dp3555
g54
(dp3556
sg63
g3550
sg56
(lp3557
g49
(g70
g51
NtRp3558
(dp3559
g54
(dp3560
sg63
g3554
sg56
(lp3561
g49
(g50
g51
NtRp3562
(dp3563
g54
(dp3564
g62
I3
ssg63
g3558
sg56
(lp3565
g49
(cgluon.html
SPAN
p3566
g51
NtRp3567
(dp3568
g54
(dp3569
g74
S'color:yellow'
p3570
ssg63
Nsg56
(lp3571
g3441
asbasbasbasbag49
(g65
g51
NtRp3572
(dp3573
g54
(dp3574
sg63
g3550
sg56
(lp3575
g49
(g70
g51
NtRp3576
(dp3577
g54
(dp3578
sg63
g3572
sg56
(lp3579
g49
(g50
g51
NtRp3580
(dp3581
g54
(dp3582
g62
I3
ssg63
g3576
sg56
(lp3583
g92
asbasbasbag49
(g65
g51
NtRp3584
(dp3585
g54
(dp3586
sg63
g3550
sg56
(lp3587
g49
(g70
g51
NtRp3588
(dp3589
g54
(dp3590
sg63
g3584
sg56
(lp3591
g49
(g50
g51
NtRp3592
(dp3593
g54
(dp3594
g62
I3
ssg63
g3588
sg56
(lp3595
S'None'
p3596
asbasbasbag49
(g65
g51
NtRp3597
(dp3598
g54
(dp3599
sg63
g3550
sg56
(lp3600
g49
(g70
g51
NtRp3601
(dp3602
g54
(dp3603
sg63
g3597
sg56
(lp3604
g49
(g50
g51
NtRp3605
(dp3606
g54
(dp3607
g62
I3
ssg63
g3601
sg56
(lp3608
g49
(g58
g51
NtRp3609
(dp3610
g54
(dp3611
g62
I2
ssg63
Nsg56
(lp3612
g49
(g65
g51
NtRp3613
(dp3614
g54
(dp3615
sg63
g3609
sg56
(lp3616
g49
(g70
g51
NtRp3617
(dp3618
g54
(dp3619
sg63
g3613
sg56
(lp3620
g49
(g50
g51
NtRp3621
(dp3622
g54
(dp3623
g62
I2
ssg63
g3617
sg56
(lp3624
g49
(g58
g51
NtRp3625
(dp3626
g54
(dp3627
g62
I1
ssg63
Nsg56
(lp3628
g49
(g65
g51
NtRp3629
(dp3630
g54
(dp3631
sg63
g3625
sg56
(lp3632
g49
(g70
g51
NtRp3633
(dp3634
g54
(dp3635
sg63
g3629
sg56
(lp3636
g49
(g50
g51
NtRp3637
(dp3638
g54
(dp3639
g62
I1
ssg63
g3633
sg56
(lp3640
g3495
(S's\x08\x00\x00\x00My Sites'
tRp3641
asbasbasbag49
(g65
g51
NtRp3642
(dp3643
g54
(dp3644
sg63
g3625
sg56
(lp3645
g49
(g70
g51
NtRp3646
(dp3647
g54
(dp3648
sg63
g3642
sg56
(lp3649
g49
(g50
g51
NtRp3650
(dp3651
g54
(dp3652
g62
I1
ssg63
g3646
sg56
(lp3653
I00
asbasbasbag49
(g65
g51
NtRp3654
(dp3655
g54
(dp3656
sg63
g3625
sg56
(lp3657
g49
(g70
g51
NtRp3658
(dp3659
g54
(dp3660
sg63
g3654
sg56
(lp3661
g49
(g50
g51
NtRp3662
(dp3663
g54
(dp3664
g62
I1
ssg63
g3658
sg56
(lp3665
S'/admin/default/site'
p3666
asbasbasbasbasbasbasbag49
(g65
g51
NtRp3667
(dp3668
g54
(dp3669
sg63
g3609
sg56
(lp3670
g49
(g70
g51
NtRp3671
(dp3672
g54
(dp3673
sg63
g3667
sg56
(lp3674
g49
(g50
g51
NtRp3675
(dp3676
g54
(dp3677
g62
I2
ssg63
g3671
sg56
(lp3678
g49
(g58
g51
NtRp3679
(dp3680
g54
(dp3681
g62
I1
ssg63
Nsg56
(lp3682
g49
(g65
g51
NtRp3683
(dp3684
g54
(dp3685
sg63
g3679
sg56
(lp3686
g49
(g70
g51
NtRp3687
(dp3688
g54
(dp3689
sg63
g3683
sg56
(lp3690
g49
(g50
g51
NtRp3691
(dp3692
g54
(dp3693
g62
I1
ssg63
g3687
sg56
(lp3694
g3495
(S's\x08\x00\x00\x00This App'
tRp3695
asbasbasbag49
(g65
g51
NtRp3696
(dp3697
g54
(dp3698
sg63
g3679
sg56
(lp3699
g49
(g70
g51
NtRp3700
(dp3701
g54
(dp3702
sg63
g3696
sg56
(lp3703
g49
(g50
g51
NtRp3704
(dp3705
g54
(dp3706
g62
I1
ssg63
g3700
sg56
(lp3707
I00
asbasbasbag49
(g65
g51
NtRp3708
(dp3709
g54
(dp3710
sg63
g3679
sg56
(lp3711
g49
(g70
g51
NtRp3712
(dp3713
g54
(dp3714
sg63
g3708
sg56
(lp3715
g49
(g50
g51
NtRp3716
(dp3717
g54
(dp3718
g62
I1
ssg63
g3712
sg56
(lp3719
S'/admin/default/design/xcpadmin'
p3720
asbasbasbag49
(g65
g51
NtRp3721
(dp3722
g54
(dp3723
sg63
g3679
sg56
(lp3724
g49
(g70
g51
NtRp3725
(dp3726
g54
(dp3727
sg63
g3721
sg56
(lp3728
g49
(g50
g51
NtRp3729
(dp3730
g54
(dp3731
g62
I1
ssg63
g3725
sg56
(lp3732
(lp3733
(g3495
(S't\x0b\x00\x00\x00Controlador'
tRp3734
I00
S'/admin/default/edit/xcpadmin/controllers/listvm.py'
tp3735
a(g3495
(S's\x0e\x00\x00\x00Visualiza\xc3\xa7\xc3\xa3o'
tRp3736
I00
S'/admin/default/edit/xcpadmin/views/listvm/get_data.html'
tp3737
a(g3495
(S't\x06\x00\x00\x00Layout'
tRp3738
I00
S'/admin/default/edit/xcpadmin/views/layout.html'
tp3739
a(g3495
(S't\n\x00\x00\x00Stylesheet'
tRp3740
I00
S'/admin/default/edit/xcpadmin/static/css/web2py.css'
tp3741
a(g3495
(S's\t\x00\x00\x00Modelo BD'
tRp3742
I00
S'/admin/default/edit/xcpadmin/models/db.py'
tp3743
a(g3495
(S's\x0e\x00\x00\x00Modelo de Menu'
tRp3744
I00
S'/admin/default/edit/xcpadmin/models/menu.py'
tp3745
a(g3495
(S's\x0e\x00\x00\x00Banco de dados'
tRp3746
I00
S'/xcpadmin/appadmin/index'
tp3747
a(g3495
(S't\x06\x00\x00\x00Errors'
tRp3748
I00
S'/admin/default/errors/xcpadmin'
tp3749
a(g3495
(S't\x05\x00\x00\x00About'
tRp3750
I00
S'/admin/default/about/xcpadmin'
tp3751
aasbasbasbasbasbasbasbag49
(g65
g51
NtRp3752
(dp3753
g54
(dp3754
sg63
g3609
sg56
(lp3755
g49
(g70
g51
NtRp3756
(dp3757
g54
(dp3758
sg63
g3752
sg56
(lp3759
g49
(g50
g51
NtRp3760
(dp3761
g54
(dp3762
g62
I2
ssg63
g3756
sg56
(lp3763
g49
(g58
g51
NtRp3764
(dp3765
g54
(dp3766
g62
I1
ssg63
Nsg56
(lp3767
g49
(g65
g51
NtRp3768
(dp3769
g54
(dp3770
sg63
g3764
sg56
(lp3771
g49
(g70
g51
NtRp3772
(dp3773
g54
(dp3774
sg63
g3768
sg56
(lp3775
g49
(g50
g51
NtRp3776
(dp3777
g54
(dp3778
g62
I1
ssg63
g3772
sg56
(lp3779
S'web2py.com'
p3780
asbasbasbag49
(g65
g51
NtRp3781
(dp3782
g54
(dp3783
sg63
g3764
sg56
(lp3784
g49
(g70
g51
NtRp3785
(dp3786
g54
(dp3787
sg63
g3781
sg56
(lp3788
g49
(g50
g51
NtRp3789
(dp3790
g54
(dp3791
g62
I1
ssg63
g3785
sg56
(lp3792
I00
asbasbasbag49
(g65
g51
NtRp3793
(dp3794
g54
(dp3795
sg63
g3764
sg56
(lp3796
g49
(g70
g51
NtRp3797
(dp3798
g54
(dp3799
sg63
g3793
sg56
(lp3800
g49
(g50
g51
NtRp3801
(dp3802
g54
(dp3803
g62
I1
ssg63
g3797
sg56
(lp3804
S'http://www.web2py.com'
p3805
asbasbasbag49
(g65
g51
NtRp3806
(dp3807
g54
(dp3808
sg63
g3764
sg56
(lp3809
g49
(g70
g51
NtRp3810
(dp3811
g54
(dp3812
sg63
g3806
sg56
(lp3813
g49
(g50
g51
NtRp3814
(dp3815
g54
(dp3816
g62
I1
ssg63
g3810
sg56
(lp3817
(lp3818
(g3495
(S't\x08\x00\x00\x00Download'
tRp3819
I00
S'http://www.web2py.com/examples/default/download'
p3820
tp3821
a(g3495
(S't\x07\x00\x00\x00Support'
tRp3822
I00
S'http://www.web2py.com/examples/default/support'
p3823
tp3824
a(g3495
(S't\x04\x00\x00\x00Demo'
tRp3825
I00
S'http://web2py.com/demo_admin'
p3826
tp3827
a(g3495
(S's\x0e\x00\x00\x00Quick Examples'
tRp3828
I00
S'http://web2py.com/examples/default/examples'
p3829
tp3830
a(g3495
(S't\x03\x00\x00\x00FAQ'
tRp3831
I00
S'http://web2py.com/AlterEgo'
p3832
tp3833
a(g3495
(S't\x06\x00\x00\x00Videos'
tRp3834
I00
S'http://www.web2py.com/examples/default/videos/'
p3835
tp3836
a(g3495
(S's\x11\x00\x00\x00Free Applications'
tRp3837
I00
S'http://web2py.com/appliances'
p3838
tp3839
a(g3495
(S't\x07\x00\x00\x00Plugins'
tRp3840
I00
S'http://web2py.com/plugins'
p3841
tp3842
a(g3495
(S't\x07\x00\x00\x00Layouts'
tRp3843
I00
S'http://web2py.com/layouts'
p3844
tp3845
a(g3495
(S't\x07\x00\x00\x00Recipes'
tRp3846
I00
S'http://web2pyslices.com/'
p3847
tp3848
a(g3495
(S't\x08\x00\x00\x00Semantic'
tRp3849
I00
S'http://web2py.com/semantic'
p3850
tp3851
aasbasbasbasbasbasbasbag49
(g65
g51
NtRp3852
(dp3853
g54
(dp3854
sg63
g3609
sg56
(lp3855
g49
(g70
g51
NtRp3856
(dp3857
g54
(dp3858
sg63
g3852
sg56
(lp3859
g49
(g50
g51
NtRp3860
(dp3861
g54
(dp3862
g62
I2
ssg63
g3856
sg56
(lp3863
g49
(g58
g51
NtRp3864
(dp3865
g54
(dp3866
g62
I1
ssg63
Nsg56
(lp3867
g49
(g65
g51
NtRp3868
(dp3869
g54
(dp3870
sg63
g3864
sg56
(lp3871
g49
(g70
g51
NtRp3872
(dp3873
g54
(dp3874
sg63
g3868
sg56
(lp3875
g49
(g50
g51
NtRp3876
(dp3877
g54
(dp3878
g62
I1
ssg63
g3872
sg56
(lp3879
g3495
(S't\r\x00\x00\x00Documentation'
tRp3880
asbasbasbag49
(g65
g51
NtRp3881
(dp3882
g54
(dp3883
sg63
g3864
sg56
(lp3884
g49
(g70
g51
NtRp3885
(dp3886
g54
(dp3887
sg63
g3881
sg56
(lp3888
g49
(g50
g51
NtRp3889
(dp3890
g54
(dp3891
g62
I1
ssg63
g3885
sg56
(lp3892
I00
asbasbasbag49
(g65
g51
NtRp3893
(dp3894
g54
(dp3895
sg63
g3864
sg56
(lp3896
g49
(g70
g51
NtRp3897
(dp3898
g54
(dp3899
sg63
g3893
sg56
(lp3900
g49
(g50
g51
NtRp3901
(dp3902
g54
(dp3903
g62
I1
ssg63
g3897
sg56
(lp3904
S'http://www.web2py.com/book'
p3905
asbasbasbag49
(g65
g51
NtRp3906
(dp3907
g54
(dp3908
sg63
g3864
sg56
(lp3909
g49
(g70
g51
NtRp3910
(dp3911
g54
(dp3912
sg63
g3906
sg56
(lp3913
g49
(g50
g51
NtRp3914
(dp3915
g54
(dp3916
g62
I1
ssg63
g3910
sg56
(lp3917
(lp3918
(g3495
(S't\x07\x00\x00\x00Preface'
tRp3919
I00
S'http://www.web2py.com/book/default/chapter/00'
p3920
tp3921
a(g3495
(S't\x0c\x00\x00\x00Introduction'
tRp3922
I00
S'http://www.web2py.com/book/default/chapter/01'
p3923
tp3924
a(g3495
(S't\x06\x00\x00\x00Python'
tRp3925
I00
S'http://www.web2py.com/book/default/chapter/02'
p3926
tp3927
a(g3495
(S't\x08\x00\x00\x00Overview'
tRp3928
I00
S'http://www.web2py.com/book/default/chapter/03'
p3929
tp3930
a(g3495
(S's\x08\x00\x00\x00The Core'
tRp3931
I00
S'http://www.web2py.com/book/default/chapter/04'
p3932
tp3933
a(g3495
(S's\t\x00\x00\x00The Views'
tRp3934
I00
S'http://www.web2py.com/book/default/chapter/05'
p3935
tp3936
a(g3495
(S's\x0e\x00\x00\x00Banco de dados'
tRp3937
I00
S'http://www.web2py.com/book/default/chapter/06'
p3938
tp3939
a(g3495
(S's\x14\x00\x00\x00Forms and Validators'
tRp3940
I00
S'http://www.web2py.com/book/default/chapter/07'
p3941
tp3942
a(g3495
(S's\r\x00\x00\x00Email and SMS'
tRp3943
I00
S'http://www.web2py.com/book/default/chapter/08'
p3944
tp3945
a(g3495
(S's\x0e\x00\x00\x00Access Control'
tRp3946
I00
S'http://www.web2py.com/book/default/chapter/09'
p3947
tp3948
a(g3495
(S't\x08\x00\x00\x00Services'
tRp3949
I00
S'http://www.web2py.com/book/default/chapter/10'
p3950
tp3951
a(g3495
(S's\x0c\x00\x00\x00Ajax Recipes'
tRp3952
I00
S'http://www.web2py.com/book/default/chapter/11'
p3953
tp3954
a(g3495
(S's\x16\x00\x00\x00Components and Plugins'
tRp3955
I00
S'http://www.web2py.com/book/default/chapter/12'
p3956
tp3957
a(g3495
(S's\x12\x00\x00\x00Deployment Recipes'
tRp3958
I00
S'http://www.web2py.com/book/default/chapter/13'
p3959
tp3960
a(g3495
(S's\r\x00\x00\x00Other Recipes'
tRp3961
I00
S'http://www.web2py.com/book/default/chapter/14'
p3962
tp3963
a(g3495
(S's\r\x00\x00\x00Buy this book'
tRp3964
I00
S'http://stores.lulu.com/web2py'
p3965
tp3966
aasbasbasbasbasbasbasbag49
(g65
g51
NtRp3967
(dp3968
g54
(dp3969
sg63
g3609
sg56
(lp3970
g49
(g70
g51
NtRp3971
(dp3972
g54
(dp3973
sg63
g3967
sg56
(lp3974
g49
(g50
g51
NtRp3975
(dp3976
g54
(dp3977
g62
I2
ssg63
g3971
sg56
(lp3978
g49
(g58
g51
NtRp3979
(dp3980
g54
(dp3981
g62
I1
ssg63
Nsg56
(lp3982
g49
(g65
g51
NtRp3983
(dp3984
g54
(dp3985
sg63
g3979
sg56
(lp3986
g49
(g70
g51
NtRp3987
(dp3988
g54
(dp3989
sg63
g3983
sg56
(lp3990
g49
(g50
g51
NtRp3991
(dp3992
g54
(dp3993
g62
I1
ssg63
g3987
sg56
(lp3994
g3495
(S't\t\x00\x00\x00Community'
tRp3995
asbasbasbag49
(g65
g51
NtRp3996
(dp3997
g54
(dp3998
sg63
g3979
sg56
(lp3999
g49
(g70
g51
NtRp4000
(dp4001
g54
(dp4002
sg63
g3996
sg56
(lp4003
g49
(g50
g51
NtRp4004
(dp4005
g54
(dp4006
g62
I1
ssg63
g4000
sg56
(lp4007
I00
asbasbasbag49
(g65
g51
NtRp4008
(dp4009
g54
(dp4010
sg63
g3979
sg56
(lp4011
g49
(g70
g51
NtRp4012
(dp4013
g54
(dp4014
sg63
g4008
sg56
(lp4015
g49
(g50
g51
NtRp4016
(dp4017
g54
(dp4018
g62
I1
ssg63
g4012
sg56
(lp4019
Nasbasbasbag49
(g65
g51
NtRp4020
(dp4021
g54
(dp4022
sg63
g3979
sg56
(lp4023
g49
(g70
g51
NtRp4024
(dp4025
g54
(dp4026
sg63
g4020
sg56
(lp4027
g49
(g50
g51
NtRp4028
(dp4029
g54
(dp4030
g62
I1
ssg63
g4024
sg56
(lp4031
(lp4032
(g3495
(S't\x06\x00\x00\x00Groups'
tRp4033
I00
S'http://www.web2py.com/examples/default/usergroups'
p4034
tp4035
a(g3495
(S't\x07\x00\x00\x00Twitter'
tRp4036
I00
S'http://twitter.com/web2py'
p4037
tp4038
a(g3495
(S's\t\x00\x00\x00Live Chat'
tRp4039
I00
S'http://webchat.freenode.net/?channels=web2py'
p4040
tp4041
aasbasbasbasbasbasbasbag49
(g65
g51
NtRp4042
(dp4043
g54
(dp4044
sg63
g3609
sg56
(lp4045
g49
(g70
g51
NtRp4046
(dp4047
g54
(dp4048
sg63
g4042
sg56
(lp4049
g49
(g50
g51
NtRp4050
(dp4051
g54
(dp4052
g62
I2
ssg63
g4046
sg56
(lp4053
g49
(g58
g51
NtRp4054
(dp4055
g54
(dp4056
g62
I1
ssg63
Nsg56
(lp4057
g49
(g65
g51
NtRp4058
(dp4059
g54
(dp4060
sg63
g4054
sg56
(lp4061
g49
(g70
g51
NtRp4062
(dp4063
g54
(dp4064
sg63
g4058
sg56
(lp4065
g49
(g50
g51
NtRp4066
(dp4067
g54
(dp4068
g62
I1
ssg63
g4062
sg56
(lp4069
g3495
(S't\x07\x00\x00\x00Plugins'
tRp4070
asbasbasbag49
(g65
g51
NtRp4071
(dp4072
g54
(dp4073
sg63
g4054
sg56
(lp4074
g49
(g70
g51
NtRp4075
(dp4076
g54
(dp4077
sg63
g4071
sg56
(lp4078
g49
(g50
g51
NtRp4079
(dp4080
g54
(dp4081
g62
I1
ssg63
g4075
sg56
(lp4082
I00
asbasbasbag49
(g65
g51
NtRp4083
(dp4084
g54
(dp4085
sg63
g4054
sg56
(lp4086
g49
(g70
g51
NtRp4087
(dp4088
g54
(dp4089
sg63
g4083
sg56
(lp4090
g49
(g50
g51
NtRp4091
(dp4092
g54
(dp4093
g62
I1
ssg63
g4087
sg56
(lp4094
Nasbasbasbag49
(g65
g51
NtRp4095
(dp4096
g54
(dp4097
sg63
g4054
sg56
(lp4098
g49
(g70
g51
NtRp4099
(dp4100
g54
(dp4101
sg63
g4095
sg56
(lp4102
g49
(g50
g51
NtRp4103
(dp4104
g54
(dp4105
g62
I1
ssg63
g4099
sg56
(lp4106
(lp4107
(S'plugin_wiki'
p4108
I00
S'http://web2py.com/examples/default/download'
p4109
tp4110
a(g3495
(S's\r\x00\x00\x00Other Plugins'
tRp4111
I00
g3841
tp4112
a(g3495
(S's\x0e\x00\x00\x00Layout Plugins'
tRp4113
I00
g3844
tp4114
aasbasbasbasbasbasbasbasbasbasbasbasbasbasbasbasbasbasbasbag49
(g65
g51
NtRp4115
(dp4116
g54
(dp4117
sg63
g3010
sg56
(lp4118
g49
(g70
g51
NtRp4119
(dp4120
g54
(dp4121
g74
g75
ssg63
g4115
sg56
(lp4122
S'meta'
p4123
asbag49
(g70
g51
NtRp4124
(dp4125
g54
(dp4126
g81
g82
ssg63
g4115
sg56
(lp4127
S':'
asbag49
(g70
g51
NtRp4128
(dp4129
g54
(dp4130
sg63
g4115
sg56
(lp4131
g49
(g50
g51
NtRp4132
(dp4133
g54
(dp4134
g62
I5
ssg63
g4128
sg56
(lp4135
g49
(g58
g51
NtRp4136
(dp4137
g54
(dp4138
g62
I4
ssg63
Nsg56
(lp4139
g49
(g65
g51
NtRp4140
(dp4141
g54
(dp4142
sg63
g4136
sg56
(lp4143
g49
(g70
g51
NtRp4144
(dp4145
g54
(dp4146
g74
g75
ssg63
g4140
sg56
(lp4147
S'author'
p4148
asbag49
(g70
g51
NtRp4149
(dp4150
g54
(dp4151
g81
g82
ssg63
g4140
sg56
(lp4152
S':'
asbag49
(g70
g51
NtRp4153
(dp4154
g54
(dp4155
sg63
g4140
sg56
(lp4156
g49
(g50
g51
NtRp4157
(dp4158
g54
(dp4159
g62
I4
ssg63
g4153
sg56
(lp4160
S'Your Name <you@example.com>'
p4161
asbasbasbag49
(g65
g51
NtRp4162
(dp4163
g54
(dp4164
sg63
g4136
sg56
(lp4165
g49
(g70
g51
NtRp4166
(dp4167
g54
(dp4168
g74
g75
ssg63
g4162
sg56
(lp4169
S'copyright'
p4170
asbag49
(g70
g51
NtRp4171
(dp4172
g54
(dp4173
g81
g82
ssg63
g4162
sg56
(lp4174
S':'
asbag49
(g70
g51
NtRp4175
(dp4176
g54
(dp4177
sg63
g4162
sg56
(lp4178
g49
(g50
g51
NtRp4179
(dp4180
g54
(dp4181
g62
I4
ssg63
g4175
sg56
(lp4182
S'Copyright 2011'
p4183
asbasbasbag49
(g65
g51
NtRp4184
(dp4185
g54
(dp4186
sg63
g4136
sg56
(lp4187
g49
(g70
g51
NtRp4188
(dp4189
g54
(dp4190
g74
g75
ssg63
g4184
sg56
(lp4191
S'description'
p4192
asbag49
(g70
g51
NtRp4193
(dp4194
g54
(dp4195
g81
g82
ssg63
g4184
sg56
(lp4196
S':'
asbag49
(g70
g51
NtRp4197
(dp4198
g54
(dp4199
sg63
g4184
sg56
(lp4200
g49
(g50
g51
NtRp4201
(dp4202
g54
(dp4203
g62
I4
ssg63
g4197
sg56
(lp4204
S'a cool new app'
p4205
asbasbasbag49
(g65
g51
NtRp4206
(dp4207
g54
(dp4208
sg63
g4136
sg56
(lp4209
g49
(g70
g51
NtRp4210
(dp4211
g54
(dp4212
g74
g75
ssg63
g4206
sg56
(lp4213
S'generator'
p4214
asbag49
(g70
g51
NtRp4215
(dp4216
g54
(dp4217
g81
g82
ssg63
g4206
sg56
(lp4218
S':'
asbag49
(g70
g51
NtRp4219
(dp4220
g54
(dp4221
sg63
g4206
sg56
(lp4222
g49
(g50
g51
NtRp4223
(dp4224
g54
(dp4225
g62
I4
ssg63
g4219
sg56
(lp4226
S'Web2py Web Framework'
p4227
asbasbasbag49
(g65
g51
NtRp4228
(dp4229
g54
(dp4230
sg63
g4136
sg56
(lp4231
g49
(g70
g51
NtRp4232
(dp4233
g54
(dp4234
g74
g75
ssg63
g4228
sg56
(lp4235
S'keywords'
p4236
asbag49
(g70
g51
NtRp4237
(dp4238
g54
(dp4239
g81
g82
ssg63
g4228
sg56
(lp4240
S':'
asbag49
(g70
g51
NtRp4241
(dp4242
g54
(dp4243
sg63
g4228
sg56
(lp4244
g49
(g50
g51
NtRp4245
(dp4246
g54
(dp4247
g62
I4
ssg63
g4241
sg56
(lp4248
S'web2py, python, framework'
p4249
asbasbasbasbasbasbasbag49
(g65
g51
NtRp4250
(dp4251
g54
(dp4252
sg63
g3010
sg56
(lp4253
g49
(g70
g51
NtRp4254
(dp4255
g54
(dp4256
g74
g75
ssg63
g4250
sg56
(lp4257
S'postprocessing'
p4258
asbag49
(g70
g51
NtRp4259
(dp4260
g54
(dp4261
g81
g82
ssg63
g4250
sg56
(lp4262
S':'
asbag49
(g70
g51
NtRp4263
(dp4264
g54
(dp4265
sg63
g4250
sg56
(lp4266
g49
(g50
g51
NtRp4267
(dp4268
g54
(dp4269
g62
I5
ssg63
g4263
sg56
(lp4270
g49
(g58
g51
NtRp4271
(dp4272
g54
(dp4273
g62
I4
ssg63
Nsg56
(lp4274
sbasbasbasbag49
(g65
g51
NtRp4275
(dp4276
g54
(dp4277
sg63
g3010
sg56
(lp4278
g49
(g70
g51
NtRp4279
(dp4280
g54
(dp4281
g74
g75
ssg63
g4275
sg56
(lp4282
S'session_file'
p4283
asbag49
(g70
g51
NtRp4284
(dp4285
g54
(dp4286
g81
g82
ssg63
g4275
sg56
(lp4287
S':'
asbag49
(g70
g51
NtRp4288
(dp4289
g54
(dp4290
sg63
g4275
sg56
(lp4291
g49
(g50
g51
NtRp4292
(dp4293
g54
(dp4294
g62
I5
ssg63
g4288
sg56
(lp4295
S"<open file 'C:\\Users\\nilton\\Desktop\\scripts\\curso_de_python\\web2py\\applications\\xcpadmin\\sessions\\127.0.0.1-0cb88dcb-67b2-4748-8846-25f35503a0e7', mode 'rb+' at 0x058841D0>"
p4296
asbasbasbag49
(g65
g51
NtRp4297
(dp4298
g54
(dp4299
sg63
g3010
sg56
(lp4300
g49
(g70
g51
NtRp4301
(dp4302
g54
(dp4303
g74
g75
ssg63
g4297
sg56
(lp4304
S'session_filename'
p4305
asbag49
(g70
g51
NtRp4306
(dp4307
g54
(dp4308
g81
g82
ssg63
g4297
sg56
(lp4309
S':'
asbag49
(g70
g51
NtRp4310
(dp4311
g54
(dp4312
sg63
g4297
sg56
(lp4313
g49
(g50
g51
NtRp4314
(dp4315
g54
(dp4316
g62
I5
ssg63
g4310
sg56
(lp4317
S'C:\\Users\\nilton\\Desktop\\scripts\\curso_de_python\\web2py\\applications\\xcpadmin\\sessions\\127.0.0.1-0cb88dcb-67b2-4748-8846-25f35503a0e7'
p4318
asbasbasbag49
(g65
g51
NtRp4319
(dp4320
g54
(dp4321
sg63
g3010
sg56
(lp4322
g49
(g70
g51
NtRp4323
(dp4324
g54
(dp4325
g74
g75
ssg63
g4319
sg56
(lp4326
S'session_id'
p4327
asbag49
(g70
g51
NtRp4328
(dp4329
g54
(dp4330
g81
g82
ssg63
g4319
sg56
(lp4331
S':'
asbag49
(g70
g51
NtRp4332
(dp4333
g54
(dp4334
sg63
g4319
sg56
(lp4335
g49
(g50
g51
NtRp4336
(dp4337
g54
(dp4338
g62
I5
ssg63
g4332
sg56
(lp4339
S'127.0.0.1-0cb88dcb-67b2-4748-8846-25f35503a0e7'
p4340
asbasbasbag49
(g65
g51
NtRp4341
(dp4342
g54
(dp4343
sg63
g3010
sg56
(lp4344
g49
(g70
g51
NtRp4345
(dp4346
g54
(dp4347
g74
g75
ssg63
g4341
sg56
(lp4348
S'session_id_name'
p4349
asbag49
(g70
g51
NtRp4350
(dp4351
g54
(dp4352
g81
g82
ssg63
g4341
sg56
(lp4353
S':'
asbag49
(g70
g51
NtRp4354
(dp4355
g54
(dp4356
sg63
g4341
sg56
(lp4357
g49
(g50
g51
NtRp4358
(dp4359
g54
(dp4360
g62
I5
ssg63
g4354
sg56
(lp4361
g3067
asbasbasbag49
(g65
g51
NtRp4362
(dp4363
g54
(dp4364
sg63
g3010
sg56
(lp4365
g49
(g70
g51
NtRp4366
(dp4367
g54
(dp4368
g74
g75
ssg63
g4362
sg56
(lp4369
S'session_locked'
p4370
asbag49
(g70
g51
NtRp4371
(dp4372
g54
(dp4373
g81
g82
ssg63
g4362
sg56
(lp4374
S':'
asbag49
(g70
g51
NtRp4375
(dp4376
g54
(dp4377
sg63
g4362
sg56
(lp4378
g49
(g50
g51
NtRp4379
(dp4380
g54
(dp4381
g62
I5
ssg63
g4375
sg56
(lp4382
g1587
asbasbasbag49
(g65
g51
NtRp4383
(dp4384
g54
(dp4385
sg63
g3010
sg56
(lp4386
g49
(g70
g51
NtRp4387
(dp4388
g54
(dp4389
g74
g75
ssg63
g4383
sg56
(lp4390
S'session_new'
p4391
asbag49
(g70
g51
NtRp4392
(dp4393
g54
(dp4394
g81
g82
ssg63
g4383
sg56
(lp4395
S':'
asbag49
(g70
g51
NtRp4396
(dp4397
g54
(dp4398
sg63
g4383
sg56
(lp4399
g49
(g50
g51
NtRp4400
(dp4401
g54
(dp4402
g62
I5
ssg63
g4396
sg56
(lp4403
g92
asbasbasbag49
(g65
g51
NtRp4404
(dp4405
g54
(dp4406
sg63
g3010
sg56
(lp4407
g49
(g70
g51
NtRp4408
(dp4409
g54
(dp4410
g74
g75
ssg63
g4404
sg56
(lp4411
S'status'
p4412
asbag49
(g70
g51
NtRp4413
(dp4414
g54
(dp4415
g81
g82
ssg63
g4404
sg56
(lp4416
S':'
asbag49
(g70
g51
NtRp4417
(dp4418
g54
(dp4419
sg63
g4404
sg56
(lp4420
g49
(g50
g51
NtRp4421
(dp4422
g54
(dp4423
g62
I5
ssg63
g4417
sg56
(lp4424
S'200'
p4425
asbasbasbag49
(g65
g51
NtRp4426
(dp4427
g54
(dp4428
sg63
g3010
sg56
(lp4429
g49
(g70
g51
NtRp4430
(dp4431
g54
(dp4432
g74
g75
ssg63
g4426
sg56
(lp4433
S'subtitle'
p4434
asbag49
(g70
g51
NtRp4435
(dp4436
g54
(dp4437
g81
g82
ssg63
g4426
sg56
(lp4438
S':'
asbag49
(g70
g51
NtRp4439
(dp4440
g54
(dp4441
sg63
g4426
sg56
(lp4442
g49
(g50
g51
NtRp4443
(dp4444
g54
(dp4445
g62
I5
ssg63
g4439
sg56
(lp4446
g3495
(S's\x0f\x00\x00\x00Personalize-me!'
tRp4447
asbasbasbag49
(g65
g51
NtRp4448
(dp4449
g54
(dp4450
sg63
g3010
sg56
(lp4451
g49
(g70
g51
NtRp4452
(dp4453
g54
(dp4454
g74
g75
ssg63
g4448
sg56
(lp4455
S'title'
p4456
asbag49
(g70
g51
NtRp4457
(dp4458
g54
(dp4459
g81
g82
ssg63
g4448
sg56
(lp4460
S':'
asbag49
(g70
g51
NtRp4461
(dp4462
g54
(dp4463
sg63
g4448
sg56
(lp4464
g49
(g50
g51
NtRp4465
(dp4466
g54
(dp4467
g62
I5
ssg63
g4461
sg56
(lp4468
S'XCP ADMIN'
p4469
asbasbasbag49
(g65
g51
NtRp4470
(dp4471
g54
(dp4472
sg63
g3010
sg56
(lp4473
g49
(g70
g51
NtRp4474
(dp4475
g54
(dp4476
g74
g75
ssg63
g4470
sg56
(lp4477
g2251
asbag49
(g70
g51
NtRp4478
(dp4479
g54
(dp4480
g81
g82
ssg63
g4470
sg56
(lp4481
S':'
asbag49
(g70
g51
NtRp4482
(dp4483
g54
(dp4484
sg63
g4470
sg56
(lp4485
g49
(g50
g51
NtRp4486
(dp4487
g54
(dp4488
g62
I5
ssg63
g4482
sg56
(lp4489
g2264
asbasbasbag49
(g65
g51
NtRp4490
(dp4491
g54
(dp4492
sg63
g3010
sg56
(lp4493
g49
(g70
g51
NtRp4494
(dp4495
g54
(dp4496
g74
g75
ssg63
g4490
sg56
(lp4497
S'view'
p4498
asbag49
(g70
g51
NtRp4499
(dp4500
g54
(dp4501
g81
g82
ssg63
g4490
sg56
(lp4502
S':'
asbag49
(g70
g51
NtRp4503
(dp4504
g54
(dp4505
sg63
g4490
sg56
(lp4506
g49
(g50
g51
NtRp4507
(dp4508
g54
(dp4509
g62
I5
ssg63
g4503
sg56
(lp4510
S'listvm/get_data.html'
p4511
asbasbasbasbasbsS'locals'
p4512
(dp4513
S'o'
S"<DateTime '19700101T00:00:00Z' at 29653c8>"
p4514
sssS'traceback'
p4515
S'Traceback (most recent call last):\n  File "gluon/restricted.py", line 204, in restricted\n  File "C:\\Users\\nilton\\Desktop\\scripts\\curso_de_python\\web2py\\applications\\xcpadmin\\controllers/listvm.py", line 42, in <module>\n  File "gluon/globals.py", line 172, in <lambda>\n  File "C:\\Users\\nilton\\Desktop\\scripts\\curso_de_python\\web2py\\applications\\xcpadmin\\controllers/listvm.py", line 40, in get_data\n  File "gluon/globals.py", line 338, in json\n  File "gluon/serializers.py", line 61, in json\n  File "gluon/contrib/simplejson/__init__.py", line 270, in dumps\n  File "gluon/contrib/simplejson/encoder.py", line 217, in encode\n  File "gluon/contrib/simplejson/encoder.py", line 486, in _iterencode\n  File "gluon/contrib/simplejson/encoder.py", line 460, in _iterencode_dict\n  File "gluon/contrib/simplejson/encoder.py", line 460, in _iterencode_dict\n  File "gluon/contrib/simplejson/encoder.py", line 496, in _iterencode\n  File "gluon/serializers.py", line 37, in custom_json\nTypeError: <DateTime \'19700101T00:00:00Z\' at 29653c8> is not JSON serializable\n'
p4516
s.